	.intel_syntax noprefix
	.file	"ld-temp.o"
	.section	.text._RNvNvNtNtNtNtCs3bNtqN8jaZB_3std3sys4args4unix3imp15ARGV_INIT_ARRAY12init_wrapper,"ax",@progbits
	.p2align	4                               # -- Begin function _RNvNvNtNtNtNtCs3bNtqN8jaZB_3std3sys4args4unix3imp15ARGV_INIT_ARRAY12init_wrapper
	.type	_RNvNvNtNtNtNtCs3bNtqN8jaZB_3std3sys4args4unix3imp15ARGV_INIT_ARRAY12init_wrapper,@function
_RNvNvNtNtNtNtCs3bNtqN8jaZB_3std3sys4args4unix3imp15ARGV_INIT_ARRAY12init_wrapper: # @_RNvNvNtNtNtNtCs3bNtqN8jaZB_3std3sys4args4unix3imp15ARGV_INIT_ARRAY12init_wrapper
	.cfi_startproc
# %bb.0:
	mov	qword ptr [rip + _RNvNtNtNtNtCs3bNtqN8jaZB_3std3sys4args4unix3imp4ARGV.0], rsi
	ret
.Lfunc_end0:
	.size	_RNvNvNtNtNtNtCs3bNtqN8jaZB_3std3sys4args4unix3imp15ARGV_INIT_ARRAY12init_wrapper, .Lfunc_end0-_RNvNvNtNtNtNtCs3bNtqN8jaZB_3std3sys4args4unix3imp15ARGV_INIT_ARRAY12init_wrapper
	.cfi_endproc
                                        # -- End function
	.section	.text.rust_eh_personality,"ax",@progbits
	.p2align	4                               # -- Begin function rust_eh_personality
	.type	rust_eh_personality,@function
rust_eh_personality:                    # @rust_eh_personality
.Lfunc_begin0:
	.cfi_startproc
	.cfi_personality 155, DW.ref.rust_eh_personality
	.cfi_lsda 27, .Lexception0
# %bb.0:
	push	rbp
	.cfi_def_cfa_offset 16
	push	r15
	.cfi_def_cfa_offset 24
	push	r14
	.cfi_def_cfa_offset 32
	push	r13
	.cfi_def_cfa_offset 40
	push	r12
	.cfi_def_cfa_offset 48
	push	rbx
	.cfi_def_cfa_offset 56
	sub	rsp, 88
	.cfi_def_cfa_offset 144
	.cfi_offset rbx, -56
	.cfi_offset r12, -48
	.cfi_offset r13, -40
	.cfi_offset r14, -32
	.cfi_offset r15, -24
	.cfi_offset rbp, -16
	mov	eax, 3
	cmp	edi, 1
	jne	.LBB1_77
# %bb.1:
	mov	rbx, r8
	mov	r12, rcx
	mov	dword ptr [rsp + 36], esi       # 4-byte Spill
	mov	qword ptr [rsp + 64], r8
	mov	rdi, r8
	call	qword ptr [rip + _Unwind_GetLanguageSpecificData@GOTPCREL]
	mov	r14, rax
	mov	dword ptr [rsp + 12], 0
	lea	rsi, [rsp + 12]
	mov	rdi, rbx
	call	qword ptr [rip + _Unwind_GetIPInfo@GOTPCREL]
	mov	r13, rax
	cmp	dword ptr [rsp + 12], 1
	sbb	r13, 0
	mov	rdi, rbx
	call	qword ptr [rip + _Unwind_GetRegionStart@GOTPCREL]
	mov	qword ptr [rsp + 24], rax       # 8-byte Spill
	lea	rax, [rsp + 64]
	mov	qword ptr [rsp + 72], rax
	mov	qword ptr [rsp + 80], rax
	test	r14, r14
	je	.LBB1_69
# %bb.2:
	movzx	ebp, byte ptr [r14]
	lea	r15, [r14 + 1]
	cmp	ebp, 255
	je	.LBB1_6
# %bb.3:
	mov	eax, ebp
	shr	eax, 4
	and	eax, 7
	cmp	eax, 5
	ja	.LBB1_76
# %bb.4:
	lea	rcx, [rip + .LJTI1_0]
	movsxd	rax, dword ptr [rcx + 4*rax]
	add	rax, rcx
	mov	r8, r15
	jmp	rax
.LBB1_5:
	lea	rdi, [rsp + 72]
	lea	rax, [rip + .Lanon.28cb502c8ec02091c8e32b488a8e08d8.435]
	jmp	.LBB1_9
.LBB1_6:
	mov	r8, qword ptr [rsp + 24]        # 8-byte Reload
	jmp	.LBB1_31
.LBB1_7:
	mov	rax, qword ptr [rsp + 24]       # 8-byte Reload
	mov	r8, rax
	test	rax, rax
	jne	.LBB1_11
	jmp	.LBB1_76
.LBB1_8:
	lea	rdi, [rsp + 80]
	lea	rax, [rip + .Lanon.28cb502c8ec02091c8e32b488a8e08d8.436]
.LBB1_9:
.Ltmp0:
	call	qword ptr [rax + 40]
.Ltmp1:
# %bb.10:
	mov	r8, rax
	test	rax, rax
	je	.LBB1_15
.LBB1_11:
	mov	eax, ebp
	and	eax, 15
	cmp	eax, 12
	ja	.LBB1_76
# %bb.12:
	lea	rcx, [rip + .LJTI1_1]
	movsxd	rax, dword ptr [rcx + 4*rax]
	add	rax, rcx
	jmp	rax
.LBB1_13:
	mov	rax, qword ptr [r14 + 1]
	add	r14, 9
	jmp	.LBB1_27
.LBB1_14:
	add	r15, 7
	and	r15, -8
.LBB1_15:
	test	bpl, 15
	jne	.LBB1_76
# %bb.16:
	mov	r8, qword ptr [r15]
	add	r15, 8
	jmp	.LBB1_29
.LBB1_17:
	mov	eax, dword ptr [r14 + 1]
	jmp	.LBB1_26
.LBB1_18:
	xor	eax, eax
	xor	ecx, ecx
	.p2align	4
.LBB1_19:                               # =>This Inner Loop Header: Depth=1
	movzx	edx, byte ptr [r15]
	mov	esi, edx
	and	esi, 127
	shl	rsi, cl
	inc	r15
	or	rax, rsi
	add	ecx, 7
	test	dl, dl
	js	.LBB1_19
# %bb.20:
	mov	rsi, -1
	shl	rsi, cl
	xor	edi, edi
	cmp	dl, 64
	cmovb	rsi, rdi
	cmp	ecx, 64
	cmovae	rsi, rdi
	or	rax, rsi
	jmp	.LBB1_28
.LBB1_21:
	movsx	rax, word ptr [r14 + 1]
	add	r14, 3
	jmp	.LBB1_27
.LBB1_22:
	xor	ecx, ecx
	xor	eax, eax
	.p2align	4
.LBB1_23:                               # =>This Inner Loop Header: Depth=1
	movzx	edx, byte ptr [r15]
	mov	esi, edx
	and	esi, 127
	shl	rsi, cl
	inc	r15
	or	rax, rsi
	add	rcx, 7
	test	dl, dl
	js	.LBB1_23
	jmp	.LBB1_28
.LBB1_24:
	movzx	eax, word ptr [r14 + 1]
	add	r14, 3
	jmp	.LBB1_27
.LBB1_25:
	movsxd	rax, dword ptr [r14 + 1]
.LBB1_26:
	add	r14, 5
.LBB1_27:
	mov	r15, r14
.LBB1_28:
	add	r8, rax
.LBB1_29:
	test	bpl, bpl
	jns	.LBB1_31
# %bb.30:
	mov	r8, qword ptr [r8]
.LBB1_31:
	mov	qword ptr [rsp + 16], r8        # 8-byte Spill
	lea	rax, [r15 + 1]
	cmp	byte ptr [r15], -1
	je	.LBB1_33
	.p2align	4
.LBB1_32:                               # =>This Inner Loop Header: Depth=1
	lea	r8, [rax + 1]
	cmp	byte ptr [rax], 0
	mov	rax, r8
	js	.LBB1_32
	jmp	.LBB1_34
.LBB1_33:
	mov	r8, rax
.LBB1_34:
	movzx	edi, byte ptr [r8]
	inc	r8
	xor	ecx, ecx
	xor	eax, eax
	.p2align	4
.LBB1_35:                               # =>This Inner Loop Header: Depth=1
	mov	rdx, r8
	movzx	esi, byte ptr [r8]
	mov	r9d, esi
	and	r9d, 127
	shl	r9, cl
	inc	r8
	or	rax, r9
	add	rcx, 7
	test	sil, sil
	js	.LBB1_35
# %bb.36:
	cmp	dil, 15
	ja	.LBB1_75
# %bb.37:
	lea	r10, [rdx + rax]
	inc	r10
	movzx	r11d, dil
	mov	qword ptr [rsp + 56], r12       # 8-byte Spill
	mov	byte ptr [rsp + 11], dil        # 1-byte Spill
	mov	qword ptr [rsp + 48], r10       # 8-byte Spill
	mov	qword ptr [rsp + 40], r11       # 8-byte Spill
	mov	r9d, 4
	.p2align	4
.LBB1_38:                               # =>This Loop Header: Depth=1
                                        #     Child Loop BB1_51 Depth 2
                                        #     Child Loop BB1_53 Depth 2
                                        #     Child Loop BB1_55 Depth 2
                                        #     Child Loop BB1_44 Depth 2
                                        #     Child Loop BB1_46 Depth 2
                                        #     Child Loop BB1_48 Depth 2
                                        #     Child Loop BB1_61 Depth 2
	cmp	r8, r10
	jae	.LBB1_70
# %bb.39:                               #   in Loop: Header=BB1_38 Depth=1
	cmp	dil, 12
	ja	.LBB1_76
# %bb.40:                               #   in Loop: Header=BB1_38 Depth=1
	lea	rcx, [rip + .LJTI1_2]
	movsxd	rax, dword ptr [rcx + 4*r11]
	add	rax, rcx
	jmp	rax
.LBB1_41:                               #   in Loop: Header=BB1_38 Depth=1
	mov	rbp, qword ptr [r8]
	mov	r15, qword ptr [r8 + 8]
	mov	r14, qword ptr [r8 + 16]
	add	r8, 24
	jmp	.LBB1_60
.LBB1_42:                               #   in Loop: Header=BB1_38 Depth=1
	mov	ebp, dword ptr [r8]
	mov	r15d, dword ptr [r8 + 4]
	mov	r14d, dword ptr [r8 + 8]
	add	r8, 12
	jmp	.LBB1_60
.LBB1_43:                               #   in Loop: Header=BB1_38 Depth=1
	xor	ecx, ecx
	xor	ebp, ebp
	.p2align	4
.LBB1_44:                               #   Parent Loop BB1_38 Depth=1
                                        # =>  This Inner Loop Header: Depth=2
	movzx	eax, byte ptr [r8]
	mov	edx, eax
	and	edx, 127
	shl	rdx, cl
	inc	r8
	or	rbp, rdx
	add	rcx, 7
	test	al, al
	js	.LBB1_44
# %bb.45:                               #   in Loop: Header=BB1_38 Depth=1
	xor	ecx, ecx
	xor	r15d, r15d
	.p2align	4
.LBB1_46:                               #   Parent Loop BB1_38 Depth=1
                                        # =>  This Inner Loop Header: Depth=2
	movzx	eax, byte ptr [r8]
	mov	edx, eax
	and	edx, 127
	shl	rdx, cl
	inc	r8
	or	r15, rdx
	add	rcx, 7
	test	al, al
	js	.LBB1_46
# %bb.47:                               #   in Loop: Header=BB1_38 Depth=1
	xor	ecx, ecx
	xor	r14d, r14d
	.p2align	4
.LBB1_48:                               #   Parent Loop BB1_38 Depth=1
                                        # =>  This Inner Loop Header: Depth=2
	movzx	eax, byte ptr [r8]
	mov	edx, eax
	and	edx, 127
	shl	rdx, cl
	inc	r8
	or	r14, rdx
	add	rcx, 7
	test	al, al
	js	.LBB1_48
	jmp	.LBB1_60
.LBB1_49:                               #   in Loop: Header=BB1_38 Depth=1
	movsxd	rbp, dword ptr [r8]
	movsxd	r15, dword ptr [r8 + 4]
	movsxd	r14, dword ptr [r8 + 8]
	add	r8, 12
	jmp	.LBB1_60
.LBB1_50:                               #   in Loop: Header=BB1_38 Depth=1
	xor	ebp, ebp
	xor	eax, eax
	.p2align	4
.LBB1_51:                               #   Parent Loop BB1_38 Depth=1
                                        # =>  This Inner Loop Header: Depth=2
	movzx	r11d, byte ptr [r8]
	mov	edx, r11d
	and	edx, 127
	mov	ecx, eax
	shl	rdx, cl
	inc	r8
	or	rbp, rdx
	add	eax, 7
	test	r11b, r11b
	js	.LBB1_51
# %bb.52:                               #   in Loop: Header=BB1_38 Depth=1
	xor	r15d, r15d
	xor	edx, edx
	.p2align	4
.LBB1_53:                               #   Parent Loop BB1_38 Depth=1
                                        # =>  This Inner Loop Header: Depth=2
	movzx	r10d, byte ptr [r8]
	mov	esi, r10d
	and	esi, 127
	mov	ecx, edx
	shl	rsi, cl
	inc	r8
	or	r15, rsi
	add	edx, 7
	test	r10b, r10b
	js	.LBB1_53
# %bb.54:                               #   in Loop: Header=BB1_38 Depth=1
	xor	r14d, r14d
	xor	esi, esi
	.p2align	4
.LBB1_55:                               #   Parent Loop BB1_38 Depth=1
                                        # =>  This Inner Loop Header: Depth=2
	movzx	edi, byte ptr [r8]
	mov	r12d, edi
	and	r12d, 127
	mov	ecx, esi
	shl	r12, cl
	inc	r8
	or	r14, r12
	add	esi, 7
	test	dil, dil
	js	.LBB1_55
# %bb.56:                               #   in Loop: Header=BB1_38 Depth=1
	mov	r12, -1
	mov	ecx, eax
	shl	r12, cl
	cmp	r11b, 64
	mov	r11d, 0
	cmovb	r12, r11
	cmp	eax, 64
	cmovae	r12, r11
	mov	rax, -1
	mov	ecx, edx
	shl	rax, cl
	or	rbp, r12
	cmp	r10b, 64
	cmovb	rax, r11
	cmp	edx, 64
	cmovae	rax, r11
	mov	rdx, -1
	mov	ecx, esi
	shl	rdx, cl
	or	r15, rax
	cmp	dil, 64
	cmovb	rdx, r11
	cmp	esi, 64
	cmovae	rdx, r11
	or	r14, rdx
	mov	r12, qword ptr [rsp + 56]       # 8-byte Reload
	movzx	edi, byte ptr [rsp + 11]        # 1-byte Folded Reload
	mov	r10, qword ptr [rsp + 48]       # 8-byte Reload
	mov	r11, qword ptr [rsp + 40]       # 8-byte Reload
	jmp	.LBB1_60
.LBB1_57:                               #   in Loop: Header=BB1_38 Depth=1
	movzx	ebp, word ptr [r8]
	movzx	r15d, word ptr [r8 + 2]
	movzx	r14d, word ptr [r8 + 4]
	jmp	.LBB1_59
.LBB1_58:                               #   in Loop: Header=BB1_38 Depth=1
	movsx	rbp, word ptr [r8]
	movsx	r15, word ptr [r8 + 2]
	movsx	r14, word ptr [r8 + 4]
.LBB1_59:                               #   in Loop: Header=BB1_38 Depth=1
	add	r8, 6
.LBB1_60:                               #   in Loop: Header=BB1_38 Depth=1
	xor	ecx, ecx
	xor	eax, eax
	.p2align	4
.LBB1_61:                               #   Parent Loop BB1_38 Depth=1
                                        # =>  This Inner Loop Header: Depth=2
	movzx	edx, byte ptr [r8]
	mov	esi, edx
	and	esi, 127
	shl	rsi, cl
	inc	r8
	or	rax, rsi
	add	rcx, 7
	test	dl, dl
	js	.LBB1_61
# %bb.62:                               #   in Loop: Header=BB1_38 Depth=1
	add	rbp, qword ptr [rsp + 24]       # 8-byte Folded Reload
	cmp	r13, rbp
	jb	.LBB1_71
# %bb.63:                               #   in Loop: Header=BB1_38 Depth=1
	add	rbp, r15
	cmp	r13, rbp
	jae	.LBB1_38
# %bb.64:
	test	r14, r14
	je	.LBB1_69
# %bb.65:
	mov	rcx, qword ptr [rsp + 16]       # 8-byte Reload
	add	rcx, r14
	test	rax, rax
	mov	qword ptr [rsp + 16], rcx       # 8-byte Spill
	je	.LBB1_82
# %bb.66:
	lea	rdx, [r10 + rax]
	dec	rdx
	xor	eax, eax
	xor	ecx, ecx
	.p2align	4
.LBB1_67:                               # =>This Inner Loop Header: Depth=1
	movzx	esi, byte ptr [rdx]
	mov	edi, esi
	and	edi, 127
	shl	rdi, cl
	inc	rdx
	or	rax, rdi
	add	ecx, 7
	test	sil, sil
	js	.LBB1_67
# %bb.68:
	mov	rdx, -1
	shl	rdx, cl
	xor	edi, edi
	cmp	sil, 64
	cmovb	rdx, rdi
	cmp	ecx, 64
	cmovae	rdx, rdi
	xor	ecx, ecx
	mov	rsi, rax
	or	rsi, rdx
	setg	cl
	xor	rcx, 3
	or	rdx, rax
	mov	r9d, 1
	cmovne	r9, rcx
	mov	edx, dword ptr [rsp + 36]       # 4-byte Reload
	test	dl, 1
	jne	.LBB1_74
	jmp	.LBB1_72
.LBB1_69:
	xor	r9d, r9d
.LBB1_70:
                                        # implicit-def: $rax
                                        # kill: killed $rax
.LBB1_71:
	mov	edx, dword ptr [rsp + 36]       # 4-byte Reload
	test	dl, 1
	jne	.LBB1_74
.LBB1_72:
	mov	eax, 8
	lea	rsi, [rip + .LJTI1_3]
	movsxd	rcx, dword ptr [rsi + 4*r9]
	add	rcx, rsi
	jmp	rcx
.LBB1_73:
	mov	r14, qword ptr [rip + _Unwind_SetGR@GOTPCREL]
	mov	rdi, rbx
	xor	esi, esi
	mov	rdx, r12
	call	r14
	mov	rdi, rbx
	mov	esi, 1
	xor	edx, edx
	call	r14
	mov	rdi, rbx
	mov	rsi, qword ptr [rsp + 16]       # 8-byte Reload
	call	qword ptr [rip + _Unwind_SetIP@GOTPCREL]
	mov	eax, 7
	jmp	.LBB1_77
.LBB1_75:
	test	rax, rax
	jle	.LBB1_78
.LBB1_76:
	mov	eax, 3
	jmp	.LBB1_77
.LBB1_78:
	mov	r9d, 4
	jmp	.LBB1_70
.LBB1_80:
	mov	eax, 2
	jmp	.LBB1_77
.LBB1_81:
	test	dl, 8
	jne	.LBB1_77
	jmp	.LBB1_73
.LBB1_82:
	mov	r9d, 1
	mov	edx, dword ptr [rsp + 36]       # 4-byte Reload
	test	dl, 1
	je	.LBB1_72
.LBB1_74:
	lea	rax, [rip + .Lswitch.table.rust_eh_personality]
	mov	eax, dword ptr [rax + 4*r9]
.LBB1_77:
	add	rsp, 88
	.cfi_def_cfa_offset 56
	pop	rbx
	.cfi_def_cfa_offset 48
	pop	r12
	.cfi_def_cfa_offset 40
	pop	r13
	.cfi_def_cfa_offset 32
	pop	r14
	.cfi_def_cfa_offset 24
	pop	r15
	.cfi_def_cfa_offset 16
	pop	rbp
	.cfi_def_cfa_offset 8
	ret
.LBB1_83:
	.cfi_def_cfa_offset 144
.Ltmp2:
	call	_RNvNtCsfQL5qMWGko6_4core9panicking19panic_cannot_unwind
.Lfunc_end1:
	.size	rust_eh_personality, .Lfunc_end1-rust_eh_personality
	.cfi_endproc
	.section	.rodata.rust_eh_personality,"a",@progbits
	.p2align	2, 0x0
.LJTI1_0:
	.long	.LBB1_15-.LJTI1_0
	.long	.LBB1_11-.LJTI1_0
	.long	.LBB1_5-.LJTI1_0
	.long	.LBB1_8-.LJTI1_0
	.long	.LBB1_7-.LJTI1_0
	.long	.LBB1_14-.LJTI1_0
.LJTI1_1:
	.long	.LBB1_13-.LJTI1_1
	.long	.LBB1_22-.LJTI1_1
	.long	.LBB1_24-.LJTI1_1
	.long	.LBB1_17-.LJTI1_1
	.long	.LBB1_13-.LJTI1_1
	.long	.LBB1_76-.LJTI1_1
	.long	.LBB1_76-.LJTI1_1
	.long	.LBB1_76-.LJTI1_1
	.long	.LBB1_76-.LJTI1_1
	.long	.LBB1_18-.LJTI1_1
	.long	.LBB1_21-.LJTI1_1
	.long	.LBB1_25-.LJTI1_1
	.long	.LBB1_13-.LJTI1_1
.LJTI1_2:
	.long	.LBB1_41-.LJTI1_2
	.long	.LBB1_43-.LJTI1_2
	.long	.LBB1_57-.LJTI1_2
	.long	.LBB1_42-.LJTI1_2
	.long	.LBB1_41-.LJTI1_2
	.long	.LBB1_76-.LJTI1_2
	.long	.LBB1_76-.LJTI1_2
	.long	.LBB1_76-.LJTI1_2
	.long	.LBB1_76-.LJTI1_2
	.long	.LBB1_50-.LJTI1_2
	.long	.LBB1_58-.LJTI1_2
	.long	.LBB1_49-.LJTI1_2
	.long	.LBB1_41-.LJTI1_2
.LJTI1_3:
	.long	.LBB1_77-.LJTI1_3
	.long	.LBB1_73-.LJTI1_3
	.long	.LBB1_73-.LJTI1_3
	.long	.LBB1_81-.LJTI1_3
	.long	.LBB1_80-.LJTI1_3
	.section	.gcc_except_table.rust_eh_personality,"a",@progbits
	.p2align	2, 0x0
GCC_except_table1:
.Lexception0:
	.byte	255                             # @LPStart Encoding = omit
	.byte	155                             # @TType Encoding = indirect pcrel sdata4
	.uleb128 .Lttbase0-.Lttbaseref0
.Lttbaseref0:
	.byte	1                               # Call site Encoding = uleb128
	.uleb128 .Lcst_end0-.Lcst_begin0
.Lcst_begin0:
	.uleb128 .Ltmp0-.Lfunc_begin0           # >> Call Site 1 <<
	.uleb128 .Ltmp1-.Ltmp0                  #   Call between .Ltmp0 and .Ltmp1
	.uleb128 .Ltmp2-.Lfunc_begin0           #     jumps to .Ltmp2
	.byte	1                               #   On action: 1
	.uleb128 .Ltmp1-.Lfunc_begin0           # >> Call Site 2 <<
	.uleb128 .Lfunc_end1-.Ltmp1             #   Call between .Ltmp1 and .Lfunc_end1
	.byte	0                               #     has no landing pad
	.byte	0                               #   On action: cleanup
.Lcst_end0:
	.byte	127                             # >> Action Record 1 <<
                                        #   Filter TypeInfo -1
	.byte	0                               #   No further actions
	.p2align	2, 0x0
.Lttbase0:
                                        # >> Filter TypeInfos <<
	.byte	0
	.p2align	2, 0x0
                                        # -- End function
	.section	.text.unlikely._RNvNtCsfQL5qMWGko6_4core9panicking19panic_cannot_unwind,"ax",@progbits
	.type	_RNvNtCsfQL5qMWGko6_4core9panicking19panic_cannot_unwind,@function # -- Begin function _RNvNtCsfQL5qMWGko6_4core9panicking19panic_cannot_unwind
_RNvNtCsfQL5qMWGko6_4core9panicking19panic_cannot_unwind: # @_RNvNtCsfQL5qMWGko6_4core9panicking19panic_cannot_unwind
	.cfi_startproc
# %bb.0:
	push	rax
	.cfi_def_cfa_offset 16
	lea	rdi, [rip + .Lanon.d5d3fb2753c9188cafcf94e7b22ba015.151]
	call	_RNvNtCsfQL5qMWGko6_4core9panicking14panic_nounwind
.Lfunc_end2:
	.size	_RNvNtCsfQL5qMWGko6_4core9panicking19panic_cannot_unwind, .Lfunc_end2-_RNvNtCsfQL5qMWGko6_4core9panicking19panic_cannot_unwind
	.cfi_endproc
                                        # -- End function
	.section	.text.unlikely._RNvNtCsfQL5qMWGko6_4core9panicking14panic_nounwind,"ax",@progbits
	.p2align	4                               # -- Begin function _RNvNtCsfQL5qMWGko6_4core9panicking14panic_nounwind
	.type	_RNvNtCsfQL5qMWGko6_4core9panicking14panic_nounwind,@function
_RNvNtCsfQL5qMWGko6_4core9panicking14panic_nounwind: # @_RNvNtCsfQL5qMWGko6_4core9panicking14panic_nounwind
	.cfi_startproc
# %bb.0:
	push	rax
	.cfi_def_cfa_offset 16
	lea	rcx, [rip + .Lanon.d5d3fb2753c9188cafcf94e7b22ba015.142]
	mov	esi, 77
	xor	edx, edx
	call	_RNvNtCsfQL5qMWGko6_4core9panicking18panic_nounwind_fmt
.Lfunc_end3:
	.size	_RNvNtCsfQL5qMWGko6_4core9panicking14panic_nounwind, .Lfunc_end3-_RNvNtCsfQL5qMWGko6_4core9panicking14panic_nounwind
	.cfi_endproc
                                        # -- End function
	.section	.text.unlikely._RNvNtCsfQL5qMWGko6_4core9panicking18panic_nounwind_fmt,"ax",@progbits
	.p2align	4                               # -- Begin function _RNvNtCsfQL5qMWGko6_4core9panicking18panic_nounwind_fmt
	.type	_RNvNtCsfQL5qMWGko6_4core9panicking18panic_nounwind_fmt,@function
_RNvNtCsfQL5qMWGko6_4core9panicking18panic_nounwind_fmt: # @_RNvNtCsfQL5qMWGko6_4core9panicking18panic_nounwind_fmt
.Lfunc_begin1:
	.cfi_startproc
	.cfi_personality 155, DW.ref.rust_eh_personality
	.cfi_lsda 27, .Lexception1
# %bb.0:
	sub	rsp, 40
	.cfi_def_cfa_offset 48
	mov	qword ptr [rsp + 24], rdi
	mov	qword ptr [rsp + 32], rsi
	lea	rax, [rsp + 24]
	mov	qword ptr [rsp], rax
	mov	qword ptr [rsp + 8], rcx
	mov	byte ptr [rsp + 16], 0
	mov	byte ptr [rsp + 17], dl
.Ltmp3:
	mov	rdi, rsp
	call	_RNvCsL6e0J8m5bd_7___rustc17rust_begin_unwind
.Ltmp4:
# %bb.1:
.LBB4_2:
.Ltmp5:
	call	_RNvNtCsfQL5qMWGko6_4core9panicking19panic_cannot_unwind
.Lfunc_end4:
	.size	_RNvNtCsfQL5qMWGko6_4core9panicking18panic_nounwind_fmt, .Lfunc_end4-_RNvNtCsfQL5qMWGko6_4core9panicking18panic_nounwind_fmt
	.cfi_endproc
	.section	.gcc_except_table._RNvNtCsfQL5qMWGko6_4core9panicking18panic_nounwind_fmt,"a",@progbits
	.p2align	2, 0x0
GCC_except_table4:
.Lexception1:
	.byte	255                             # @LPStart Encoding = omit
	.byte	155                             # @TType Encoding = indirect pcrel sdata4
	.uleb128 .Lttbase1-.Lttbaseref1
.Lttbaseref1:
	.byte	1                               # Call site Encoding = uleb128
	.uleb128 .Lcst_end1-.Lcst_begin1
.Lcst_begin1:
	.uleb128 .Ltmp3-.Lfunc_begin1           # >> Call Site 1 <<
	.uleb128 .Ltmp4-.Ltmp3                  #   Call between .Ltmp3 and .Ltmp4
	.uleb128 .Ltmp5-.Lfunc_begin1           #     jumps to .Ltmp5
	.byte	1                               #   On action: 1
.Lcst_end1:
	.byte	127                             # >> Action Record 1 <<
                                        #   Filter TypeInfo -1
	.byte	0                               #   No further actions
	.p2align	2, 0x0
.Lttbase1:
                                        # >> Filter TypeInfos <<
	.byte	0
	.p2align	2, 0x0
                                        # -- End function
	.section	.text._RNvCsL6e0J8m5bd_7___rustc17rust_begin_unwind,"ax",@progbits
	.p2align	4                               # -- Begin function _RNvCsL6e0J8m5bd_7___rustc17rust_begin_unwind
	.type	_RNvCsL6e0J8m5bd_7___rustc17rust_begin_unwind,@function
_RNvCsL6e0J8m5bd_7___rustc17rust_begin_unwind: # @_RNvCsL6e0J8m5bd_7___rustc17rust_begin_unwind
	.cfi_startproc
# %bb.0:
	sub	rsp, 24
	.cfi_def_cfa_offset 32
	movups	xmm0, xmmword ptr [rdi]
	movups	xmmword ptr [rsp], xmm0
	mov	qword ptr [rsp + 16], rdi
	mov	rdi, rsp
	call	_RINvNtNtCs3bNtqN8jaZB_3std3sys9backtrace26___rust_end_short_backtraceNCNvNtB6_9panicking13panic_handler0zEB6_
.Lfunc_end5:
	.size	_RNvCsL6e0J8m5bd_7___rustc17rust_begin_unwind, .Lfunc_end5-_RNvCsL6e0J8m5bd_7___rustc17rust_begin_unwind
	.cfi_endproc
                                        # -- End function
	.section	.text._RINvNtNtCs3bNtqN8jaZB_3std3sys9backtrace26___rust_end_short_backtraceNCNvNtB6_9panicking13panic_handler0zEB6_,"ax",@progbits
	.p2align	4                               # -- Begin function _RINvNtNtCs3bNtqN8jaZB_3std3sys9backtrace26___rust_end_short_backtraceNCNvNtB6_9panicking13panic_handler0zEB6_
	.type	_RINvNtNtCs3bNtqN8jaZB_3std3sys9backtrace26___rust_end_short_backtraceNCNvNtB6_9panicking13panic_handler0zEB6_,@function
_RINvNtNtCs3bNtqN8jaZB_3std3sys9backtrace26___rust_end_short_backtraceNCNvNtB6_9panicking13panic_handler0zEB6_: # @_RINvNtNtCs3bNtqN8jaZB_3std3sys9backtrace26___rust_end_short_backtraceNCNvNtB6_9panicking13panic_handler0zEB6_
	.cfi_startproc
# %bb.0:
	push	rax
	.cfi_def_cfa_offset 16
	call	_RNCNvNtCs3bNtqN8jaZB_3std9panicking13panic_handler0B5_
.Lfunc_end6:
	.size	_RINvNtNtCs3bNtqN8jaZB_3std3sys9backtrace26___rust_end_short_backtraceNCNvNtB6_9panicking13panic_handler0zEB6_, .Lfunc_end6-_RINvNtNtCs3bNtqN8jaZB_3std3sys9backtrace26___rust_end_short_backtraceNCNvNtB6_9panicking13panic_handler0zEB6_
	.cfi_endproc
                                        # -- End function
	.section	.text._RNCNvNtCs3bNtqN8jaZB_3std9panicking13panic_handler0B5_,"ax",@progbits
	.p2align	4                               # -- Begin function _RNCNvNtCs3bNtqN8jaZB_3std9panicking13panic_handler0B5_
	.type	_RNCNvNtCs3bNtqN8jaZB_3std9panicking13panic_handler0B5_,@function
_RNCNvNtCs3bNtqN8jaZB_3std9panicking13panic_handler0B5_: # @_RNCNvNtCs3bNtqN8jaZB_3std9panicking13panic_handler0B5_
.Lfunc_begin2:
	.cfi_startproc
	.cfi_personality 155, DW.ref.rust_eh_personality
	.cfi_lsda 27, .Lexception2
# %bb.0:
	push	rbx
	.cfi_def_cfa_offset 16
	sub	rsp, 32
	.cfi_def_cfa_offset 48
	.cfi_offset rbx, -16
	mov	rcx, qword ptr [rdi]
	mov	rax, qword ptr [rcx + 8]
	test	al, 1
	jne	.LBB7_6
# %bb.1:
	mov	qword ptr [rsp + 24], rdi
	movabs	rax, -9223372036854775808
	mov	qword ptr [rsp], rax
	mov	rdx, qword ptr [rdi + 8]
	mov	rax, qword ptr [rdi + 16]
	movzx	ecx, byte ptr [rax + 16]
	movzx	r8d, byte ptr [rax + 17]
.Ltmp6:
	lea	rsi, [rip + .Lanon.28cb502c8ec02091c8e32b488a8e08d8.127]
	mov	rdi, rsp
	call	_RNvNtCs3bNtqN8jaZB_3std9panicking15panic_with_hook
.Ltmp7:
# %bb.5:
.LBB7_6:
	mov	rcx, qword ptr [rcx]
	shr	rax
	mov	qword ptr [rsp], rcx
	mov	qword ptr [rsp + 8], rax
	mov	rdx, qword ptr [rdi + 8]
	mov	rax, qword ptr [rdi + 16]
	movzx	ecx, byte ptr [rax + 16]
	movzx	r8d, byte ptr [rax + 17]
	lea	rsi, [rip + .Lanon.28cb502c8ec02091c8e32b488a8e08d8.126]
	mov	rdi, rsp
	call	_RNvNtCs3bNtqN8jaZB_3std9panicking15panic_with_hook
.LBB7_2:
.Ltmp8:
	mov	rcx, qword ptr [rsp]
	shl	rcx
	test	rcx, rcx
	jne	.LBB7_3
# %bb.4:
	mov	rdi, rax
	call	_Unwind_Resume@PLT
.LBB7_3:
	mov	rdi, qword ptr [rsp + 8]
	mov	rbx, rax
	call	qword ptr [rip + free@GOTPCREL]
	mov	rax, rbx
	mov	rdi, rax
	call	_Unwind_Resume@PLT
.Lfunc_end7:
	.size	_RNCNvNtCs3bNtqN8jaZB_3std9panicking13panic_handler0B5_, .Lfunc_end7-_RNCNvNtCs3bNtqN8jaZB_3std9panicking13panic_handler0B5_
	.cfi_endproc
	.section	.gcc_except_table._RNCNvNtCs3bNtqN8jaZB_3std9panicking13panic_handler0B5_,"a",@progbits
	.p2align	2, 0x0
GCC_except_table7:
.Lexception2:
	.byte	255                             # @LPStart Encoding = omit
	.byte	255                             # @TType Encoding = omit
	.byte	1                               # Call site Encoding = uleb128
	.uleb128 .Lcst_end2-.Lcst_begin2
.Lcst_begin2:
	.uleb128 .Ltmp6-.Lfunc_begin2           # >> Call Site 1 <<
	.uleb128 .Ltmp7-.Ltmp6                  #   Call between .Ltmp6 and .Ltmp7
	.uleb128 .Ltmp8-.Lfunc_begin2           #     jumps to .Ltmp8
	.byte	0                               #   On action: cleanup
	.uleb128 .Ltmp7-.Lfunc_begin2           # >> Call Site 2 <<
	.uleb128 .Lfunc_end7-.Ltmp7             #   Call between .Ltmp7 and .Lfunc_end7
	.byte	0                               #     has no landing pad
	.byte	0                               #   On action: cleanup
.Lcst_end2:
	.p2align	2, 0x0
                                        # -- End function
	.section	.rodata.cst16,"aM",@progbits,16
	.p2align	4, 0x0                          # -- Begin function _RNvNtCs3bNtqN8jaZB_3std9panicking15panic_with_hook
.LCPI8_0:
	.byte	109                             # 0x6d
	.byte	93                              # 0x5d
	.byte	203                             # 0xcb
	.byte	214                             # 0xd6
	.byte	44                              # 0x2c
	.byte	80                              # 0x50
	.byte	235                             # 0xeb
	.byte	99                              # 0x63
	.byte	120                             # 0x78
	.byte	65                              # 0x41
	.byte	166                             # 0xa6
	.byte	87                              # 0x57
	.byte	113                             # 0x71
	.byte	27                              # 0x1b
	.byte	139                             # 0x8b
	.byte	185                             # 0xb9
.LCPI8_1:
	.byte	9                               # 0x9
	.byte	44                              # 0x2c
	.byte	116                             # 0x74
	.byte	215                             # 0xd7
	.byte	167                             # 0xa7
	.byte	180                             # 0xb4
	.byte	56                              # 0x38
	.byte	70                              # 0x46
	.byte	92                              # 0x5c
	.byte	111                             # 0x6f
	.byte	238                             # 0xee
	.byte	250                             # 0xfa
	.byte	132                             # 0x84
	.byte	93                              # 0x5d
	.byte	202                             # 0xca
	.byte	232                             # 0xe8
	.section	.text._RNvNtCs3bNtqN8jaZB_3std9panicking15panic_with_hook,"ax",@progbits
	.type	_RNvNtCs3bNtqN8jaZB_3std9panicking15panic_with_hook,@function
_RNvNtCs3bNtqN8jaZB_3std9panicking15panic_with_hook: # @_RNvNtCs3bNtqN8jaZB_3std9panicking15panic_with_hook
.Lfunc_begin3:
	.cfi_startproc
	.cfi_personality 155, DW.ref.rust_eh_personality
	.cfi_lsda 27, .Lexception3
# %bb.0:
	push	rbp
	.cfi_def_cfa_offset 16
	push	r15
	.cfi_def_cfa_offset 24
	push	r14
	.cfi_def_cfa_offset 32
	push	r13
	.cfi_def_cfa_offset 40
	push	r12
	.cfi_def_cfa_offset 48
	push	rbx
	.cfi_def_cfa_offset 56
	sub	rsp, 728
	.cfi_def_cfa_offset 784
	.cfi_offset rbx, -56
	.cfi_offset r12, -48
	.cfi_offset r13, -40
	.cfi_offset r14, -32
	.cfi_offset r15, -24
	.cfi_offset rbp, -16
	mov	dword ptr [rsp + 20], ecx       # 4-byte Spill
	mov	qword ptr [rsp + 32], rdi
	mov	qword ptr [rsp + 40], rsi
	mov	qword ptr [rsp + 24], rdx
	lock		inc	qword ptr [rip + _RNvNtNtCs3bNtqN8jaZB_3std9panicking11panic_count18GLOBAL_PANIC_COUNT]
	jle	.LBB8_71
# %bb.1:
	cmp	byte ptr fs:[_RNvNCNKNvNtNtCs3bNtqN8jaZB_3std9panicking11panic_count17LOCAL_PANIC_COUNT0s_023___RUST_STD_INTERNAL_VAL@TPOFF+8], 0
	jne	.LBB8_72
# %bb.2:
	mov	r13d, r8d
	inc	qword ptr fs:[_RNvNCNKNvNtNtCs3bNtqN8jaZB_3std9panicking11panic_count17LOCAL_PANIC_COUNT0s_023___RUST_STD_INTERNAL_VAL@TPOFF]
	mov	byte ptr fs:[_RNvNCNKNvNtNtCs3bNtqN8jaZB_3std9panicking11panic_count17LOCAL_PANIC_COUNT0s_023___RUST_STD_INTERNAL_VAL@TPOFF+8], 1
	mov	eax, dword ptr [rip + _RNvNtCs3bNtqN8jaZB_3std9panicking4HOOK]
	cmp	eax, 1073741822
	jae	.LBB8_60
# %bb.3:
	lea	ecx, [rax + 1]
                                        # kill: def $eax killed $eax killed $rax
	lock		cmpxchg	dword ptr [rip + _RNvNtCs3bNtqN8jaZB_3std9panicking4HOOK], ecx
	jne	.LBB8_60
.LBB8_4:
	cmp	qword ptr [rip + _RNvNtCs3bNtqN8jaZB_3std9panicking4HOOK+8], 0
	jne	.LBB8_16
# %bb.5:
	mov	rdi, qword ptr [rsp + 32]
	mov	r15, qword ptr [rsp + 40]
.Ltmp13:
	mov	qword ptr [rsp + 48], rdi       # 8-byte Spill
	call	qword ptr [r15 + 40]
.Ltmp14:
# %bb.6:
	mov	r12, rax
	mov	rbx, rdx
	mov	r14, qword ptr [rsp + 24]
	mov	bpl, 3
	test	r13b, r13b
	jne	.LBB8_10
# %bb.7:
	mov	bpl, 1
	cmp	qword ptr fs:[_RNvNCNKNvNtNtCs3bNtqN8jaZB_3std9panicking11panic_count17LOCAL_PANIC_COUNT0s_023___RUST_STD_INTERNAL_VAL@TPOFF], 1
	ja	.LBB8_10
# %bb.8:
.Ltmp15:
	call	_RNvNtCs3bNtqN8jaZB_3std5panic19get_backtrace_style
.Ltmp16:
# %bb.9:
	mov	ebp, eax
.LBB8_10:
	mov	qword ptr [rsp + 56], r14
	mov	rbx, qword ptr [rbx + 24]
.Ltmp17:
	lea	r13, [rsp + 208]
	mov	rdi, r13
	mov	rsi, r12
	call	rbx
.Ltmp18:
# %bb.11:
	movdqa	xmm0, xmmword ptr [rsp + 208]
	pcmpeqb	xmm0, xmmword ptr [rip + .LCPI8_0]
	pmovmskb	eax, xmm0
	cmp	eax, 65535
	jne	.LBB8_20
# %bb.12:
	push	8
	.cfi_adjust_cfa_offset 8
	pop	rcx
	.cfi_adjust_cfa_offset -8
	mov	rax, r12
.LBB8_13:
	mov	rax, qword ptr [rax]
	mov	rcx, qword ptr [r12 + rcx]
.LBB8_14:
	mov	qword ptr [rsp + 64], rax
	mov	qword ptr [rsp + 72], rcx
	call	_RNvNtNtCs3bNtqN8jaZB_3std3sys9backtrace4lock
	mov	rcx, qword ptr [rip + _RNvNtNtCs3bNtqN8jaZB_3std6thread11main_thread4MAIN.0]
	xor	edx, edx
	cmp	qword ptr fs:[_RNvNtNtNtCs3bNtqN8jaZB_3std6thread7current2id2ID@TPOFF], rcx
	lea	rsi, [rip + .Lanon.28cb502c8ec02091c8e32b488a8e08d8.90]
	cmove	rdx, rsi
	test	rcx, rcx
	cmove	rdx, rcx
	mov	byte ptr [rsp + 7], al          # 1-byte Spill
	xor	eax, eax
	test	rdx, rdx
	sete	al
	lea	rcx, [rip + .Lanon.28cb502c8ec02091c8e32b488a8e08d8.94]
	cmovne	rcx, rdx
	lea	rax, [rax + 4*rax]
	add	rax, 4
	mov	qword ptr [rsp + 80], rcx
	mov	qword ptr [rsp + 88], rax
	cmp	qword ptr [rip + gettid@GOTPCREL], 0
	jne	.LBB8_23
# %bb.15:
	mov	edi, 186
	xor	eax, eax
	call	qword ptr [rip + syscall@GOTPCREL]
	jmp	.LBB8_24
.LBB8_16:
	mov	rdi, qword ptr [rsp + 32]
	mov	r15, qword ptr [rsp + 40]
.Ltmp9:
	mov	qword ptr [rsp + 48], rdi       # 8-byte Spill
	call	qword ptr [r15 + 40]
.Ltmp10:
# %bb.17:
	lea	rsi, [rsp + 208]
	mov	qword ptr [rsi], rax
	mov	qword ptr [rsi + 8], rdx
	mov	rax, qword ptr [rsp + 24]
	mov	qword ptr [rsi + 16], rax
	mov	eax, dword ptr [rsp + 20]       # 4-byte Reload
	mov	byte ptr [rsi + 24], al
	mov	byte ptr [rsi + 25], r13b
	mov	rdi, qword ptr [rip + _RNvNtCs3bNtqN8jaZB_3std9panicking4HOOK+8]
	mov	rax, qword ptr [rip + _RNvNtCs3bNtqN8jaZB_3std9panicking4HOOK+16]
.Ltmp11:
	call	qword ptr [rax + 40]
.Ltmp12:
.LBB8_18:
	call	_RINvNtCsfQL5qMWGko6_4core3ptr13drop_in_placeINtNtNtNtCs3bNtqN8jaZB_3std4sync9nonpoison6rwlock15RwLockReadGuardNtNtBP_9panicking4HookEEBP_
	mov	byte ptr fs:[_RNvNCNKNvNtNtCs3bNtqN8jaZB_3std9panicking11panic_count17LOCAL_PANIC_COUNT0s_023___RUST_STD_INTERNAL_VAL@TPOFF+8], 0
	cmp	byte ptr [rsp + 20], 0          # 1-byte Folded Reload
	je	.LBB8_75
# %bb.19:
	mov	rdi, qword ptr [rsp + 48]       # 8-byte Reload
	mov	rsi, r15
	call	_RNvCsL6e0J8m5bd_7___rustc10rust_panic
.LBB8_20:
.Ltmp19:
	lea	rdi, [rsp + 208]
	mov	rsi, r12
	call	rbx
.Ltmp20:
# %bb.21:
	movdqa	xmm0, xmmword ptr [rsp + 208]
	pcmpeqb	xmm0, xmmword ptr [rip + .LCPI8_1]
	pmovmskb	eax, xmm0
	cmp	eax, 65535
	jne	.LBB8_39
# %bb.22:
	lea	rax, [r12 + 8]
	push	16
	.cfi_adjust_cfa_offset 8
	pop	rcx
	.cfi_adjust_cfa_offset -8
	jmp	.LBB8_13
.LBB8_23:
	call	qword ptr [rip + gettid@GOTPCREL]
                                        # kill: def $eax killed $eax def $rax
.LBB8_24:
	and	byte ptr [rsp + 7], 1           # 1-byte Folded Spill
	cdqe
	lea	r12, [rsp + 176]
	mov	qword ptr [r12], rax
	mov	ecx, 128
	xor	eax, eax
	mov	rdi, r13
	rep stosd es:[rdi], eax
	lea	rax, [rsp + 184]
	mov	qword ptr [rax], r13
	mov	qword ptr [rax + 8], 512
	and	qword ptr [rax + 16], 0
	lea	rcx, [rsp + 80]
	lea	r14, [rsp + 112]
	mov	qword ptr [r14], rcx
	lea	rbx, [rip + _RNvXs1i_NtCsfQL5qMWGko6_4core3fmtReNtB6_7Display3fmtB8_]
	mov	qword ptr [r14 + 8], rbx
	mov	qword ptr [r14 + 16], r12
	lea	rcx, [rip + _RNvXsd_NtNtNtCsfQL5qMWGko6_4core3fmt3num3impyNtB9_7Display3fmt]
	mov	qword ptr [r14 + 24], rcx
	lea	rcx, [rsp + 56]
	mov	qword ptr [r14 + 32], rcx
	lea	rcx, [rip + _RNvXs1i_NtCsfQL5qMWGko6_4core3fmtRNtNtNtB8_5panic8location8LocationNtB6_7Display3fmtCs3bNtqN8jaZB_3std]
	mov	qword ptr [r14 + 40], rcx
	lea	rcx, [rsp + 64]
	mov	qword ptr [r14 + 48], rcx
	mov	qword ptr [r14 + 56], rbx
	lea	rdi, [rsp + 96]
	mov	qword ptr [rdi], rax
	and	qword ptr [rdi + 8], 0
.Ltmp22:
	lea	rsi, [rip + .Lanon.28cb502c8ec02091c8e32b488a8e08d8.49]
	lea	rdx, [rip + .Lanon.28cb502c8ec02091c8e32b488a8e08d8.92]
	mov	rcx, r14
	call	_RNvNtCsfQL5qMWGko6_4core3fmt5write
.Ltmp23:
# %bb.25:
	mov	rcx, qword ptr [rsp + 104]
	movzx	ebp, bpl
	test	al, al
	je	.LBB8_32
# %bb.26:
	test	rcx, rcx
	je	.LBB8_81
# %bb.27:
	mov	eax, ecx
	and	eax, 3
	cmp	eax, 1
	je	.LBB8_50
.LBB8_28:
	lea	rdx, [rsp + 112]
	lea	rax, [rsp + 80]
	mov	qword ptr [rdx], rax
	mov	qword ptr [rdx + 8], rbx
	mov	qword ptr [rdx + 16], r12
	lea	rax, [rip + _RNvXsd_NtNtNtCsfQL5qMWGko6_4core3fmt3num3impyNtB9_7Display3fmt]
	mov	qword ptr [rdx + 24], rax
	lea	rax, [rsp + 56]
	mov	qword ptr [rdx + 32], rax
	lea	rax, [rip + _RNvXs1i_NtCsfQL5qMWGko6_4core3fmtRNtNtNtB8_5panic8location8LocationNtB6_7Display3fmtCs3bNtqN8jaZB_3std]
	mov	qword ptr [rdx + 40], rax
	lea	rax, [rsp + 64]
	mov	qword ptr [rdx + 48], rax
	mov	qword ptr [rdx + 56], rbx
.Ltmp37:
	lea	rsi, [rip + .Lanon.28cb502c8ec02091c8e32b488a8e08d8.92]
	lea	rdi, [rsp + 6]
	call	_RNvYNtNtNtNtCs3bNtqN8jaZB_3std3sys5stdio4unix6StderrNtNtBa_2io5Write9write_fmtBa_
.Ltmp38:
# %bb.29:
	mov	ecx, eax
	and	ecx, 3
	cmp	ecx, 1
	jne	.LBB8_37
# %bb.30:
	mov	qword ptr [rsp + 8], rbp        # 8-byte Spill
	mov	rbx, r14
	mov	rbp, rax
	dec	rbp
	mov	r13, qword ptr [rax - 1]
	mov	r14, qword ptr [rax + 7]
	mov	rax, qword ptr [r14]
	test	rax, rax
	je	.LBB8_63
# %bb.31:
.Ltmp39:
	mov	rdi, r13
	call	rax
.Ltmp40:
	jmp	.LBB8_63
.LBB8_32:
	mov	qword ptr [rsp + 8], rbp        # 8-byte Spill
	mov	eax, ecx
	and	eax, 3
	cmp	eax, 1
	je	.LBB8_55
.LBB8_33:
	mov	rbp, qword ptr [rsp + 200]
	cmp	rbp, 513
	jae	.LBB8_76
# %bb.34:
	test	rbp, rbp
	jne	.LBB8_40
# %bb.35:
	xor	ecx, ecx
.LBB8_36:
	mov	eax, ecx
	and	eax, 3
	cmp	eax, 1
	mov	rbp, qword ptr [rsp + 8]        # 8-byte Reload
	je	.LBB8_61
.LBB8_37:
	lea	rax, [rip + .LJTI8_0]
	movsxd	rcx, dword ptr [rax + 4*rbp]
	add	rcx, rax
	jmp	rcx
.LBB8_38:
	mov	byte ptr [rsp + 112], 0
	lea	rdx, [rsp + 208]
	mov	qword ptr [rdx], r14
	lea	rax, [rip + _RNvXNvMNtNtCs3bNtqN8jaZB_3std3sys9backtraceNtB5_13BacktraceLock5printNtB2_16DisplayBacktraceNtNtCsfQL5qMWGko6_4core3fmt7Display3fmt]
	mov	qword ptr [rdx + 8], rax
.Ltmp46:
	lea	rsi, [rip + .Lanon.28cb502c8ec02091c8e32b488a8e08d8.164]
	lea	rdi, [rsp + 6]
	call	_RNvYNtNtNtNtCs3bNtqN8jaZB_3std3sys5stdio4unix6StderrNtNtBa_2io5Write9write_fmtBa_
.Ltmp47:
	jmp	.LBB8_69
.LBB8_39:
	lea	rax, [rip + .Lanon.28cb502c8ec02091c8e32b488a8e08d8.397]
	push	12
	.cfi_adjust_cfa_offset 8
	pop	rcx
	.cfi_adjust_cfa_offset -8
	jmp	.LBB8_14
.LBB8_40:
	push	2
	.cfi_adjust_cfa_offset 8
	pop	r12
	.cfi_adjust_cfa_offset -8
	mov	rbx, qword ptr [rip + write@GOTPCREL]
	mov	r14, qword ptr [rip + __errno_location@GOTPCREL]
.LBB8_41:                               # =>This Inner Loop Header: Depth=1
	mov	edi, r12d
	mov	rsi, r13
	mov	rdx, rbp
	call	rbx
	cmp	rax, -1
	je	.LBB8_45
# %bb.42:                               #   in Loop: Header=BB8_41 Depth=1
	test	rax, rax
	je	.LBB8_78
# %bb.43:                               #   in Loop: Header=BB8_41 Depth=1
	mov	rcx, rbp
	sub	rcx, rax
	jb	.LBB8_48
# %bb.44:                               #   in Loop: Header=BB8_41 Depth=1
	add	r13, rax
	mov	rbp, rcx
	jmp	.LBB8_46
.LBB8_45:                               #   in Loop: Header=BB8_41 Depth=1
	call	r14
	movsxd	rax, dword ptr [rax]
	cmp	rax, 4
	jne	.LBB8_79
.LBB8_46:                               #   in Loop: Header=BB8_41 Depth=1
	test	rbp, rbp
	jne	.LBB8_41
# %bb.47:
	xor	ecx, ecx
	jmp	.LBB8_80
.LBB8_48:
.Ltmp29:
	lea	rcx, [rip + .Lanon.28cb502c8ec02091c8e32b488a8e08d8.944]
	mov	rdi, rax
	mov	rsi, rbp
	mov	rdx, rbp
	call	_RNvNtNtCsfQL5qMWGko6_4core5slice5index16slice_index_fail
.Ltmp30:
# %bb.49:
.LBB8_50:
	mov	qword ptr [rsp + 8], rbp        # 8-byte Spill
	lea	rbp, [rcx - 1]
	mov	r13, qword ptr [rcx - 1]
	mov	r14, qword ptr [rcx + 7]
	mov	rax, qword ptr [r14]
	test	rax, rax
	je	.LBB8_52
# %bb.51:
.Ltmp34:
	mov	rdi, r13
	call	rax
.Ltmp35:
.LBB8_52:
	cmp	qword ptr [r14 + 8], 0
	je	.LBB8_54
# %bb.53:
	mov	rdi, r13
	call	qword ptr [rip + free@GOTPCREL]
.LBB8_54:
	mov	rdi, rbp
	call	qword ptr [rip + free@GOTPCREL]
	lea	r14, [rsp + 112]
	mov	rbp, qword ptr [rsp + 8]        # 8-byte Reload
	jmp	.LBB8_28
.LBB8_55:
	mov	rbx, r14
	lea	r12, [rcx - 1]
	mov	rbp, qword ptr [rcx - 1]
	mov	r14, qword ptr [rcx + 7]
	mov	rax, qword ptr [r14]
	test	rax, rax
	je	.LBB8_57
# %bb.56:
.Ltmp24:
	mov	rdi, rbp
	call	rax
.Ltmp25:
.LBB8_57:
	cmp	qword ptr [r14 + 8], 0
	je	.LBB8_59
# %bb.58:
	mov	rdi, rbp
	call	qword ptr [rip + free@GOTPCREL]
.LBB8_59:
	mov	rdi, r12
	call	qword ptr [rip + free@GOTPCREL]
	mov	r14, rbx
	jmp	.LBB8_33
.LBB8_60:
	lea	rdi, [rip + _RNvNtCs3bNtqN8jaZB_3std9panicking4HOOK]
	call	_RNvMNtNtNtNtCs3bNtqN8jaZB_3std3sys4sync6rwlock5futexNtB2_6RwLock14read_contended
	jmp	.LBB8_4
.LBB8_61:
	mov	rbx, r14
	lea	rbp, [rcx - 1]
	mov	r13, qword ptr [rcx - 1]
	mov	r14, qword ptr [rcx + 7]
	mov	rax, qword ptr [r14]
	test	rax, rax
	je	.LBB8_63
# %bb.62:
.Ltmp31:
	mov	rdi, r13
	call	rax
.Ltmp32:
.LBB8_63:
	cmp	qword ptr [r14 + 8], 0
	je	.LBB8_65
# %bb.64:
	mov	rdi, r13
	call	qword ptr [rip + free@GOTPCREL]
.LBB8_65:
	mov	rdi, rbp
	call	qword ptr [rip + free@GOTPCREL]
	lea	rax, [rip + .LJTI8_0]
	mov	rcx, qword ptr [rsp + 8]        # 8-byte Reload
	movsxd	rcx, dword ptr [rax + 4*rcx]
	add	rcx, rax
	mov	r14, rbx
	jmp	rcx
.LBB8_66:
	mov	byte ptr [rsp + 112], 1
	lea	rdx, [rsp + 208]
	mov	qword ptr [rdx], r14
	lea	rax, [rip + _RNvXNvMNtNtCs3bNtqN8jaZB_3std3sys9backtraceNtB5_13BacktraceLock5printNtB2_16DisplayBacktraceNtNtCsfQL5qMWGko6_4core3fmt7Display3fmt]
	mov	qword ptr [rdx + 8], rax
.Ltmp44:
	lea	rsi, [rip + .Lanon.28cb502c8ec02091c8e32b488a8e08d8.164]
	lea	rdi, [rsp + 6]
	call	_RNvYNtNtNtNtCs3bNtqN8jaZB_3std3sys5stdio4unix6StderrNtNtBa_2io5Write9write_fmtBa_
.Ltmp45:
	jmp	.LBB8_69
.LBB8_67:
	xor	eax, eax
	xchg	byte ptr [rip + _RNvNCNvNtCs3bNtqN8jaZB_3std9panicking12default_hook011FIRST_PANIC], al
	test	al, al
	je	.LBB8_70
# %bb.68:
.Ltmp42:
	lea	rsi, [rip + .Lanon.28cb502c8ec02091c8e32b488a8e08d8.125]
	lea	rdi, [rsp + 6]
	mov	edx, 157
	call	_RNvYNtNtNtNtCs3bNtqN8jaZB_3std3sys5stdio4unix6StderrNtNtBa_2io5Write9write_fmtBa_
.Ltmp43:
.LBB8_69:
.Ltmp48:
	mov	rdi, rax
	call	_RINvNtCsfQL5qMWGko6_4core3ptr13drop_in_placeINtNtB4_6result6ResultuNtNtNtCs3bNtqN8jaZB_3std2io5error5ErrorEEB19_
.Ltmp49:
.LBB8_70:
	movzx	edi, byte ptr [rsp + 7]         # 1-byte Folded Reload
	call	_RINvNtCsfQL5qMWGko6_4core3ptr13drop_in_placeNtNtNtCs3bNtqN8jaZB_3std3sys9backtrace13BacktraceLockEBM_
	jmp	.LBB8_18
.LBB8_71:
	lea	rax, [rsp + 24]
	lea	rdx, [rsp + 208]
	mov	qword ptr [rdx], rax
	lea	rax, [rip + _RNvXs1i_NtCsfQL5qMWGko6_4core3fmtRNtNtNtB8_5panic8location8LocationNtB6_7Display3fmtCs3bNtqN8jaZB_3std]
	mov	qword ptr [rdx + 8], rax
	lea	rax, [rsp + 32]
	mov	qword ptr [rdx + 16], rax
	lea	rax, [rip + _RNvXs1g_NtCsfQL5qMWGko6_4core3fmtRDNtB6_5DebugEL_Bx_3fmtB8_]
	mov	qword ptr [rdx + 24], rax
	lea	rsi, [rip + .Lanon.28cb502c8ec02091c8e32b488a8e08d8.398]
	jmp	.LBB8_73
.LBB8_72:
	call	qword ptr [rsi + 48]
	test	rax, rax
	push	1
	.cfi_adjust_cfa_offset 8
	pop	rcx
	.cfi_adjust_cfa_offset -8
	cmovne	rcx, rax
	cmove	rdx, rax
	lea	rax, [rsp + 112]
	mov	qword ptr [rax], rcx
	mov	qword ptr [rax + 8], rdx
	lea	rcx, [rsp + 24]
	lea	rdx, [rsp + 208]
	mov	qword ptr [rdx], rcx
	lea	rcx, [rip + _RNvXs1i_NtCsfQL5qMWGko6_4core3fmtRNtNtNtB8_5panic8location8LocationNtB6_7Display3fmtCs3bNtqN8jaZB_3std]
	mov	qword ptr [rdx + 8], rcx
	mov	qword ptr [rdx + 16], rax
	lea	rax, [rip + _RNvXs1i_NtCsfQL5qMWGko6_4core3fmtReNtB6_7Display3fmtB8_]
	mov	qword ptr [rdx + 24], rax
	lea	rsi, [rip + .Lanon.28cb502c8ec02091c8e32b488a8e08d8.399]
.LBB8_73:
	lea	rdi, [rsp + 6]
.LBB8_74:
	call	_RNvYNtNtNtNtCs3bNtqN8jaZB_3std3sys5stdio4unix6StderrNtNtBa_2io5Write9write_fmtBa_
	mov	rdi, rax
	call	_RINvNtCsfQL5qMWGko6_4core3ptr13drop_in_placeINtNtB4_6result6ResultuNtNtNtCs3bNtqN8jaZB_3std2io5error5ErrorEEB19_
	call	_RNvNtCs3bNtqN8jaZB_3std7process5abort
.LBB8_75:
	lea	rsi, [rip + .Lanon.28cb502c8ec02091c8e32b488a8e08d8.400]
	lea	rdi, [rsp + 6]
	push	91
	.cfi_adjust_cfa_offset 8
	pop	rdx
	.cfi_adjust_cfa_offset -8
	jmp	.LBB8_74
.LBB8_76:
.Ltmp27:
	lea	rcx, [rip + .Lanon.28cb502c8ec02091c8e32b488a8e08d8.96]
	mov	edx, 512
	xor	edi, edi
	mov	rsi, rbp
	call	_RNvNtNtCsfQL5qMWGko6_4core5slice5index16slice_index_fail
.Ltmp28:
# %bb.77:
.LBB8_78:
	lea	r14, [rsp + 112]
	lea	rcx, [rip + .Lanon.28cb502c8ec02091c8e32b488a8e08d8.414]
	jmp	.LBB8_36
.LBB8_79:
	shl	rax, 32
	or	rax, 2
	mov	rcx, rax
.LBB8_80:
	lea	r14, [rsp + 112]
	jmp	.LBB8_36
.LBB8_81:
.Ltmp51:
	lea	rdi, [rip + .Lanon.28cb502c8ec02091c8e32b488a8e08d8.50]
	lea	rdx, [rip + .Lanon.28cb502c8ec02091c8e32b488a8e08d8.51]
	mov	esi, 173
	call	_RNvNtCsfQL5qMWGko6_4core9panicking9panic_fmt
.Ltmp52:
# %bb.82:
.LBB8_83:
.Ltmp41:
	jmp	.LBB8_90
.LBB8_84:
.Ltmp33:
	jmp	.LBB8_90
.LBB8_85:
.Ltmp26:
	mov	rbx, rax
	cmp	qword ptr [r14 + 8], 0
	je	.LBB8_87
# %bb.86:
	mov	rdi, rbp
	call	qword ptr [rip + free@GOTPCREL]
.LBB8_87:
	mov	rdi, r12
	jmp	.LBB8_88
.LBB8_89:
.Ltmp36:
.LBB8_90:
	mov	rbx, rax
	cmp	qword ptr [r14 + 8], 0
	je	.LBB8_92
# %bb.91:
	mov	rdi, r13
	call	qword ptr [rip + free@GOTPCREL]
.LBB8_92:
	mov	rdi, rbp
.LBB8_88:
	call	qword ptr [rip + free@GOTPCREL]
	jmp	.LBB8_96
.LBB8_93:
.Ltmp50:
	mov	rbx, rax
	jmp	.LBB8_96
.LBB8_94:
.Ltmp53:
	mov	rbx, rax
	mov	rdi, qword ptr [rsp + 104]
	test	rdi, rdi
	je	.LBB8_96
# %bb.95:
.Ltmp54:
	call	_RINvNtCsfQL5qMWGko6_4core3ptr13drop_in_placeNtNtNtCs3bNtqN8jaZB_3std2io5error5ErrorEBM_
.Ltmp55:
.LBB8_96:
	movzx	edi, byte ptr [rsp + 7]         # 1-byte Folded Reload
	call	_RINvNtCsfQL5qMWGko6_4core3ptr13drop_in_placeNtNtNtCs3bNtqN8jaZB_3std3sys9backtrace13BacktraceLockEBM_
	jmp	.LBB8_99
.LBB8_97:
.Ltmp56:
	call	_RNvNtCsfQL5qMWGko6_4core9panicking16panic_in_cleanup
.LBB8_98:
.Ltmp21:
	mov	rbx, rax
.LBB8_99:
.Ltmp57:
	call	_RINvNtCsfQL5qMWGko6_4core3ptr13drop_in_placeINtNtNtNtCs3bNtqN8jaZB_3std4sync9nonpoison6rwlock15RwLockReadGuardNtNtBP_9panicking4HookEEBP_
.Ltmp58:
# %bb.100:
	mov	rdi, rbx
	call	_Unwind_Resume@PLT
.LBB8_101:
.Ltmp59:
	call	_RNvNtCsfQL5qMWGko6_4core9panicking16panic_in_cleanup
.Lfunc_end8:
	.size	_RNvNtCs3bNtqN8jaZB_3std9panicking15panic_with_hook, .Lfunc_end8-_RNvNtCs3bNtqN8jaZB_3std9panicking15panic_with_hook
	.cfi_endproc
	.section	.rodata._RNvNtCs3bNtqN8jaZB_3std9panicking15panic_with_hook,"a",@progbits
	.p2align	2, 0x0
.LJTI8_0:
	.long	.LBB8_38-.LJTI8_0
	.long	.LBB8_66-.LJTI8_0
	.long	.LBB8_67-.LJTI8_0
	.long	.LBB8_70-.LJTI8_0
	.section	.gcc_except_table._RNvNtCs3bNtqN8jaZB_3std9panicking15panic_with_hook,"a",@progbits
	.p2align	2, 0x0
GCC_except_table8:
.Lexception3:
	.byte	255                             # @LPStart Encoding = omit
	.byte	155                             # @TType Encoding = indirect pcrel sdata4
	.uleb128 .Lttbase2-.Lttbaseref2
.Lttbaseref2:
	.byte	1                               # Call site Encoding = uleb128
	.uleb128 .Lcst_end3-.Lcst_begin3
.Lcst_begin3:
	.uleb128 .Ltmp13-.Lfunc_begin3          # >> Call Site 1 <<
	.uleb128 .Ltmp12-.Ltmp13                #   Call between .Ltmp13 and .Ltmp12
	.uleb128 .Ltmp21-.Lfunc_begin3          #     jumps to .Ltmp21
	.byte	0                               #   On action: cleanup
	.uleb128 .Ltmp12-.Lfunc_begin3          # >> Call Site 2 <<
	.uleb128 .Ltmp19-.Ltmp12                #   Call between .Ltmp12 and .Ltmp19
	.byte	0                               #     has no landing pad
	.byte	0                               #   On action: cleanup
	.uleb128 .Ltmp19-.Lfunc_begin3          # >> Call Site 3 <<
	.uleb128 .Ltmp20-.Ltmp19                #   Call between .Ltmp19 and .Ltmp20
	.uleb128 .Ltmp21-.Lfunc_begin3          #     jumps to .Ltmp21
	.byte	0                               #   On action: cleanup
	.uleb128 .Ltmp22-.Lfunc_begin3          # >> Call Site 4 <<
	.uleb128 .Ltmp23-.Ltmp22                #   Call between .Ltmp22 and .Ltmp23
	.uleb128 .Ltmp53-.Lfunc_begin3          #     jumps to .Ltmp53
	.byte	0                               #   On action: cleanup
	.uleb128 .Ltmp37-.Lfunc_begin3          # >> Call Site 5 <<
	.uleb128 .Ltmp38-.Ltmp37                #   Call between .Ltmp37 and .Ltmp38
	.uleb128 .Ltmp50-.Lfunc_begin3          #     jumps to .Ltmp50
	.byte	0                               #   On action: cleanup
	.uleb128 .Ltmp39-.Lfunc_begin3          # >> Call Site 6 <<
	.uleb128 .Ltmp40-.Ltmp39                #   Call between .Ltmp39 and .Ltmp40
	.uleb128 .Ltmp41-.Lfunc_begin3          #     jumps to .Ltmp41
	.byte	0                               #   On action: cleanup
	.uleb128 .Ltmp46-.Lfunc_begin3          # >> Call Site 7 <<
	.uleb128 .Ltmp47-.Ltmp46                #   Call between .Ltmp46 and .Ltmp47
	.uleb128 .Ltmp50-.Lfunc_begin3          #     jumps to .Ltmp50
	.byte	0                               #   On action: cleanup
	.uleb128 .Ltmp47-.Lfunc_begin3          # >> Call Site 8 <<
	.uleb128 .Ltmp29-.Ltmp47                #   Call between .Ltmp47 and .Ltmp29
	.byte	0                               #     has no landing pad
	.byte	0                               #   On action: cleanup
	.uleb128 .Ltmp29-.Lfunc_begin3          # >> Call Site 9 <<
	.uleb128 .Ltmp30-.Ltmp29                #   Call between .Ltmp29 and .Ltmp30
	.uleb128 .Ltmp50-.Lfunc_begin3          #     jumps to .Ltmp50
	.byte	0                               #   On action: cleanup
	.uleb128 .Ltmp34-.Lfunc_begin3          # >> Call Site 10 <<
	.uleb128 .Ltmp35-.Ltmp34                #   Call between .Ltmp34 and .Ltmp35
	.uleb128 .Ltmp36-.Lfunc_begin3          #     jumps to .Ltmp36
	.byte	0                               #   On action: cleanup
	.uleb128 .Ltmp24-.Lfunc_begin3          # >> Call Site 11 <<
	.uleb128 .Ltmp25-.Ltmp24                #   Call between .Ltmp24 and .Ltmp25
	.uleb128 .Ltmp26-.Lfunc_begin3          #     jumps to .Ltmp26
	.byte	0                               #   On action: cleanup
	.uleb128 .Ltmp25-.Lfunc_begin3          # >> Call Site 12 <<
	.uleb128 .Ltmp31-.Ltmp25                #   Call between .Ltmp25 and .Ltmp31
	.byte	0                               #     has no landing pad
	.byte	0                               #   On action: cleanup
	.uleb128 .Ltmp31-.Lfunc_begin3          # >> Call Site 13 <<
	.uleb128 .Ltmp32-.Ltmp31                #   Call between .Ltmp31 and .Ltmp32
	.uleb128 .Ltmp33-.Lfunc_begin3          #     jumps to .Ltmp33
	.byte	0                               #   On action: cleanup
	.uleb128 .Ltmp44-.Lfunc_begin3          # >> Call Site 14 <<
	.uleb128 .Ltmp49-.Ltmp44                #   Call between .Ltmp44 and .Ltmp49
	.uleb128 .Ltmp50-.Lfunc_begin3          #     jumps to .Ltmp50
	.byte	0                               #   On action: cleanup
	.uleb128 .Ltmp49-.Lfunc_begin3          # >> Call Site 15 <<
	.uleb128 .Ltmp27-.Ltmp49                #   Call between .Ltmp49 and .Ltmp27
	.byte	0                               #     has no landing pad
	.byte	0                               #   On action: cleanup
	.uleb128 .Ltmp27-.Lfunc_begin3          # >> Call Site 16 <<
	.uleb128 .Ltmp28-.Ltmp27                #   Call between .Ltmp27 and .Ltmp28
	.uleb128 .Ltmp50-.Lfunc_begin3          #     jumps to .Ltmp50
	.byte	0                               #   On action: cleanup
	.uleb128 .Ltmp51-.Lfunc_begin3          # >> Call Site 17 <<
	.uleb128 .Ltmp52-.Ltmp51                #   Call between .Ltmp51 and .Ltmp52
	.uleb128 .Ltmp53-.Lfunc_begin3          #     jumps to .Ltmp53
	.byte	0                               #   On action: cleanup
	.uleb128 .Ltmp54-.Lfunc_begin3          # >> Call Site 18 <<
	.uleb128 .Ltmp55-.Ltmp54                #   Call between .Ltmp54 and .Ltmp55
	.uleb128 .Ltmp56-.Lfunc_begin3          #     jumps to .Ltmp56
	.byte	1                               #   On action: 1
	.uleb128 .Ltmp57-.Lfunc_begin3          # >> Call Site 19 <<
	.uleb128 .Ltmp58-.Ltmp57                #   Call between .Ltmp57 and .Ltmp58
	.uleb128 .Ltmp59-.Lfunc_begin3          #     jumps to .Ltmp59
	.byte	1                               #   On action: 1
	.uleb128 .Ltmp58-.Lfunc_begin3          # >> Call Site 20 <<
	.uleb128 .Lfunc_end8-.Ltmp58            #   Call between .Ltmp58 and .Lfunc_end8
	.byte	0                               #     has no landing pad
	.byte	0                               #   On action: cleanup
.Lcst_end3:
	.byte	127                             # >> Action Record 1 <<
                                        #   Filter TypeInfo -1
	.byte	0                               #   No further actions
	.p2align	2, 0x0
.Lttbase2:
                                        # >> Filter TypeInfos <<
	.byte	0
	.p2align	2, 0x0
                                        # -- End function
	.section	.text._RINvNtCsfQL5qMWGko6_4core3ptr13drop_in_placeNCNvNtNtCs3bNtqN8jaZB_3std3sys9backtrace10__print_fmt0EBO_,"ax",@progbits
	.p2align	4                               # -- Begin function _RINvNtCsfQL5qMWGko6_4core3ptr13drop_in_placeNCNvNtNtCs3bNtqN8jaZB_3std3sys9backtrace10__print_fmt0EBO_
	.type	_RINvNtCsfQL5qMWGko6_4core3ptr13drop_in_placeNCNvNtNtCs3bNtqN8jaZB_3std3sys9backtrace10__print_fmt0EBO_,@function
_RINvNtCsfQL5qMWGko6_4core3ptr13drop_in_placeNCNvNtNtCs3bNtqN8jaZB_3std3sys9backtrace10__print_fmt0EBO_: # @_RINvNtCsfQL5qMWGko6_4core3ptr13drop_in_placeNCNvNtNtCs3bNtqN8jaZB_3std3sys9backtrace10__print_fmt0EBO_
	.cfi_startproc
# %bb.0:
	mov	rax, qword ptr [rdi]
	shl	rax
	test	rax, rax
	jne	.LBB9_2
# %bb.1:
	ret
.LBB9_2:
	mov	rdi, qword ptr [rdi + 8]
	jmp	qword ptr [rip + free@GOTPCREL] # TAILCALL
.Lfunc_end9:
	.size	_RINvNtCsfQL5qMWGko6_4core3ptr13drop_in_placeNCNvNtNtCs3bNtqN8jaZB_3std3sys9backtrace10__print_fmt0EBO_, .Lfunc_end9-_RINvNtCsfQL5qMWGko6_4core3ptr13drop_in_placeNCNvNtNtCs3bNtqN8jaZB_3std3sys9backtrace10__print_fmt0EBO_
	.cfi_endproc
                                        # -- End function
	.section	.text._RNvXs0_NvNtCs3bNtqN8jaZB_3std9panicking13panic_handlerNtB5_19FormatStringPayloadNtNtCsfQL5qMWGko6_4core3fmt7Display3fmt,"ax",@progbits
	.p2align	4                               # -- Begin function _RNvXs0_NvNtCs3bNtqN8jaZB_3std9panicking13panic_handlerNtB5_19FormatStringPayloadNtNtCsfQL5qMWGko6_4core3fmt7Display3fmt
	.type	_RNvXs0_NvNtCs3bNtqN8jaZB_3std9panicking13panic_handlerNtB5_19FormatStringPayloadNtNtCsfQL5qMWGko6_4core3fmt7Display3fmt,@function
_RNvXs0_NvNtCs3bNtqN8jaZB_3std9panicking13panic_handlerNtB5_19FormatStringPayloadNtNtCsfQL5qMWGko6_4core3fmt7Display3fmt: # @_RNvXs0_NvNtCs3bNtqN8jaZB_3std9panicking13panic_handlerNtB5_19FormatStringPayloadNtNtCsfQL5qMWGko6_4core3fmt7Display3fmt
	.cfi_startproc
# %bb.0:
	xor	eax, eax
	cmp	rax, qword ptr [rdi]
	jno	.LBB10_3
# %bb.1:
	mov	rax, qword ptr [rdi + 24]
	mov	rax, qword ptr [rax]
	mov	rdx, qword ptr [rax]
	mov	rcx, qword ptr [rax + 8]
	mov	rdi, qword ptr [rsi]
	mov	rsi, qword ptr [rsi + 8]
	test	cl, 1
	jne	.LBB10_4
# %bb.2:
	jmp	_RNvNtCsfQL5qMWGko6_4core3fmt5write # TAILCALL
.LBB10_3:
	mov	rax, qword ptr [rdi + 8]
	mov	rdx, qword ptr [rdi + 16]
	mov	rdi, qword ptr [rsi]
	mov	rcx, qword ptr [rsi + 8]
	mov	rcx, qword ptr [rcx + 24]
	mov	rsi, rax
	jmp	rcx                             # TAILCALL
.LBB10_4:
	shr	rcx
	mov	rax, qword ptr [rsi + 24]
	mov	rsi, rdx
	mov	rdx, rcx
	jmp	rax                             # TAILCALL
.Lfunc_end10:
	.size	_RNvXs0_NvNtCs3bNtqN8jaZB_3std9panicking13panic_handlerNtB5_19FormatStringPayloadNtNtCsfQL5qMWGko6_4core3fmt7Display3fmt, .Lfunc_end10-_RNvXs0_NvNtCs3bNtqN8jaZB_3std9panicking13panic_handlerNtB5_19FormatStringPayloadNtNtCsfQL5qMWGko6_4core3fmt7Display3fmt
	.cfi_endproc
                                        # -- End function
	.section	.text._RNvXs_NvNtCs3bNtqN8jaZB_3std9panicking13panic_handlerNtB4_19FormatStringPayloadNtNtCsfQL5qMWGko6_4core5panic12PanicPayload8take_box,"ax",@progbits
	.p2align	4                               # -- Begin function _RNvXs_NvNtCs3bNtqN8jaZB_3std9panicking13panic_handlerNtB4_19FormatStringPayloadNtNtCsfQL5qMWGko6_4core5panic12PanicPayload8take_box
	.type	_RNvXs_NvNtCs3bNtqN8jaZB_3std9panicking13panic_handlerNtB4_19FormatStringPayloadNtNtCsfQL5qMWGko6_4core5panic12PanicPayload8take_box,@function
_RNvXs_NvNtCs3bNtqN8jaZB_3std9panicking13panic_handlerNtB4_19FormatStringPayloadNtNtCsfQL5qMWGko6_4core5panic12PanicPayload8take_box: # @_RNvXs_NvNtCs3bNtqN8jaZB_3std9panicking13panic_handlerNtB4_19FormatStringPayloadNtNtCsfQL5qMWGko6_4core5panic12PanicPayload8take_box
.Lfunc_begin4:
	.cfi_startproc
	.cfi_personality 155, DW.ref.rust_eh_personality
	.cfi_lsda 27, .Lexception4
# %bb.0:
	push	r15
	.cfi_def_cfa_offset 16
	push	r14
	.cfi_def_cfa_offset 24
	push	r12
	.cfi_def_cfa_offset 32
	push	rbx
	.cfi_def_cfa_offset 40
	push	rax
	.cfi_def_cfa_offset 48
	.cfi_offset rbx, -40
	.cfi_offset r12, -32
	.cfi_offset r14, -24
	.cfi_offset r15, -16
	mov	r14, rdi
	call	_RNvMNvNtCs3bNtqN8jaZB_3std9panicking13panic_handlerNtB2_19FormatStringPayload4fill
	mov	r15, qword ptr [r14]
	mov	rbx, qword ptr [r14 + 8]
	mov	r12, qword ptr [r14 + 16]
	mov	qword ptr [r14], 0
	mov	qword ptr [r14 + 8], 1
	mov	qword ptr [r14 + 16], 0
	mov	edi, 24
	call	qword ptr [rip + malloc@GOTPCREL]
	test	rax, rax
	je	.LBB11_1
# %bb.6:
	mov	qword ptr [rax], r15
	mov	qword ptr [rax + 8], rbx
	mov	qword ptr [rax + 16], r12
	lea	rdx, [rip + .Lanon.28cb502c8ec02091c8e32b488a8e08d8.809]
	add	rsp, 8
	.cfi_def_cfa_offset 40
	pop	rbx
	.cfi_def_cfa_offset 32
	pop	r12
	.cfi_def_cfa_offset 24
	pop	r14
	.cfi_def_cfa_offset 16
	pop	r15
	.cfi_def_cfa_offset 8
	ret
.LBB11_1:
	.cfi_def_cfa_offset 48
.Ltmp60:
	mov	edi, 24
	call	_RNvNtCs78A21jy8lRn_5alloc5alloc18handle_alloc_error
.Ltmp61:
# %bb.2:
.LBB11_3:
.Ltmp62:
	mov	r14, rax
	test	r15, r15
	je	.LBB11_5
# %bb.4:
	mov	rdi, rbx
	call	qword ptr [rip + free@GOTPCREL]
.LBB11_5:
	mov	rdi, r14
	call	_Unwind_Resume@PLT
.Lfunc_end11:
	.size	_RNvXs_NvNtCs3bNtqN8jaZB_3std9panicking13panic_handlerNtB4_19FormatStringPayloadNtNtCsfQL5qMWGko6_4core5panic12PanicPayload8take_box, .Lfunc_end11-_RNvXs_NvNtCs3bNtqN8jaZB_3std9panicking13panic_handlerNtB4_19FormatStringPayloadNtNtCsfQL5qMWGko6_4core5panic12PanicPayload8take_box
	.cfi_endproc
	.section	.gcc_except_table._RNvXs_NvNtCs3bNtqN8jaZB_3std9panicking13panic_handlerNtB4_19FormatStringPayloadNtNtCsfQL5qMWGko6_4core5panic12PanicPayload8take_box,"a",@progbits
	.p2align	2, 0x0
GCC_except_table11:
.Lexception4:
	.byte	255                             # @LPStart Encoding = omit
	.byte	255                             # @TType Encoding = omit
	.byte	1                               # Call site Encoding = uleb128
	.uleb128 .Lcst_end4-.Lcst_begin4
.Lcst_begin4:
	.uleb128 .Lfunc_begin4-.Lfunc_begin4    # >> Call Site 1 <<
	.uleb128 .Ltmp60-.Lfunc_begin4          #   Call between .Lfunc_begin4 and .Ltmp60
	.byte	0                               #     has no landing pad
	.byte	0                               #   On action: cleanup
	.uleb128 .Ltmp60-.Lfunc_begin4          # >> Call Site 2 <<
	.uleb128 .Ltmp61-.Ltmp60                #   Call between .Ltmp60 and .Ltmp61
	.uleb128 .Ltmp62-.Lfunc_begin4          #     jumps to .Ltmp62
	.byte	0                               #   On action: cleanup
	.uleb128 .Ltmp61-.Lfunc_begin4          # >> Call Site 3 <<
	.uleb128 .Lfunc_end11-.Ltmp61           #   Call between .Ltmp61 and .Lfunc_end11
	.byte	0                               #     has no landing pad
	.byte	0                               #   On action: cleanup
.Lcst_end4:
	.p2align	2, 0x0
                                        # -- End function
	.section	.text._RNvXs_NvNtCs3bNtqN8jaZB_3std9panicking13panic_handlerNtB4_19FormatStringPayloadNtNtCsfQL5qMWGko6_4core5panic12PanicPayload3get,"ax",@progbits
	.p2align	4                               # -- Begin function _RNvXs_NvNtCs3bNtqN8jaZB_3std9panicking13panic_handlerNtB4_19FormatStringPayloadNtNtCsfQL5qMWGko6_4core5panic12PanicPayload3get
	.type	_RNvXs_NvNtCs3bNtqN8jaZB_3std9panicking13panic_handlerNtB4_19FormatStringPayloadNtNtCsfQL5qMWGko6_4core5panic12PanicPayload3get,@function
_RNvXs_NvNtCs3bNtqN8jaZB_3std9panicking13panic_handlerNtB4_19FormatStringPayloadNtNtCsfQL5qMWGko6_4core5panic12PanicPayload3get: # @_RNvXs_NvNtCs3bNtqN8jaZB_3std9panicking13panic_handlerNtB4_19FormatStringPayloadNtNtCsfQL5qMWGko6_4core5panic12PanicPayload3get
	.cfi_startproc
# %bb.0:
	push	rbx
	.cfi_def_cfa_offset 16
	.cfi_offset rbx, -16
	mov	rbx, rdi
	call	_RNvMNvNtCs3bNtqN8jaZB_3std9panicking13panic_handlerNtB2_19FormatStringPayload4fill
	lea	rdx, [rip + .Lanon.28cb502c8ec02091c8e32b488a8e08d8.809]
	mov	rax, rbx
	pop	rbx
	.cfi_def_cfa_offset 8
	ret
.Lfunc_end12:
	.size	_RNvXs_NvNtCs3bNtqN8jaZB_3std9panicking13panic_handlerNtB4_19FormatStringPayloadNtNtCsfQL5qMWGko6_4core5panic12PanicPayload3get, .Lfunc_end12-_RNvXs_NvNtCs3bNtqN8jaZB_3std9panicking13panic_handlerNtB4_19FormatStringPayloadNtNtCsfQL5qMWGko6_4core5panic12PanicPayload3get
	.cfi_endproc
                                        # -- End function
	.section	.text._RNvYINtNvNtCs3bNtqN8jaZB_3std9panicking11begin_panic7PayloadReENtNtCsfQL5qMWGko6_4core5panic12PanicPayload6as_strB9_,"ax",@progbits
	.p2align	4                               # -- Begin function _RNvYINtNvNtCs3bNtqN8jaZB_3std9panicking11begin_panic7PayloadReENtNtCsfQL5qMWGko6_4core5panic12PanicPayload6as_strB9_
	.type	_RNvYINtNvNtCs3bNtqN8jaZB_3std9panicking11begin_panic7PayloadReENtNtCsfQL5qMWGko6_4core5panic12PanicPayload6as_strB9_,@function
_RNvYINtNvNtCs3bNtqN8jaZB_3std9panicking11begin_panic7PayloadReENtNtCsfQL5qMWGko6_4core5panic12PanicPayload6as_strB9_: # @_RNvYINtNvNtCs3bNtqN8jaZB_3std9panicking11begin_panic7PayloadReENtNtCsfQL5qMWGko6_4core5panic12PanicPayload6as_strB9_
	.cfi_startproc
# %bb.0:
	xor	eax, eax
	ret
.Lfunc_end13:
	.size	_RNvYINtNvNtCs3bNtqN8jaZB_3std9panicking11begin_panic7PayloadReENtNtCsfQL5qMWGko6_4core5panic12PanicPayload6as_strB9_, .Lfunc_end13-_RNvYINtNvNtCs3bNtqN8jaZB_3std9panicking11begin_panic7PayloadReENtNtCsfQL5qMWGko6_4core5panic12PanicPayload6as_strB9_
	.cfi_endproc
                                        # -- End function
	.section	.text._RNvMNvNtCs3bNtqN8jaZB_3std9panicking13panic_handlerNtB2_19FormatStringPayload4fill,"ax",@progbits
	.p2align	4                               # -- Begin function _RNvMNvNtCs3bNtqN8jaZB_3std9panicking13panic_handlerNtB2_19FormatStringPayload4fill
	.type	_RNvMNvNtCs3bNtqN8jaZB_3std9panicking13panic_handlerNtB2_19FormatStringPayload4fill,@function
_RNvMNvNtCs3bNtqN8jaZB_3std9panicking13panic_handlerNtB2_19FormatStringPayload4fill: # @_RNvMNvNtCs3bNtqN8jaZB_3std9panicking13panic_handlerNtB2_19FormatStringPayload4fill
.Lfunc_begin5:
	.cfi_startproc
	.cfi_personality 155, DW.ref.rust_eh_personality
	.cfi_lsda 27, .Lexception5
# %bb.0:
	push	r15
	.cfi_def_cfa_offset 16
	push	r14
	.cfi_def_cfa_offset 24
	push	r12
	.cfi_def_cfa_offset 32
	push	rbx
	.cfi_def_cfa_offset 40
	sub	rsp, 56
	.cfi_def_cfa_offset 96
	.cfi_offset rbx, -40
	.cfi_offset r12, -32
	.cfi_offset r14, -24
	.cfi_offset r15, -16
	mov	rbx, rdi
	xor	eax, eax
	cmp	rax, qword ptr [rdi]
	jno	.LBB14_12
# %bb.1:
	mov	rax, qword ptr [rbx + 24]
	mov	qword ptr [rsp + 8], 0
	mov	qword ptr [rsp + 16], 1
	mov	qword ptr [rsp + 24], 0
	mov	rax, qword ptr [rax]
	mov	r14, qword ptr [rax]
	mov	rcx, qword ptr [rax + 8]
	test	cl, 1
	jne	.LBB14_2
# %bb.10:
.Ltmp65:
	lea	rsi, [rip + .Lanon.28cb502c8ec02091c8e32b488a8e08d8.103]
	lea	rdi, [rsp + 8]
	mov	rdx, r14
	call	_RNvNtCsfQL5qMWGko6_4core3fmt5write
.Ltmp66:
	jmp	.LBB14_11
.LBB14_2:
	mov	r15, rcx
	shr	r15
	cmp	rcx, 2
	jae	.LBB14_4
# %bb.3:
	mov	edi, 1
	xor	r12d, r12d
.LBB14_6:
	add	rdi, r12
	mov	rsi, r14
	mov	rdx, r15
	call	qword ptr [rip + memcpy@GOTPCREL]
	add	r12, r15
	mov	qword ptr [rsp + 24], r12
.LBB14_11:
	mov	rax, qword ptr [rsp + 24]
	mov	qword ptr [rsp + 48], rax
	movups	xmm0, xmmword ptr [rsp + 8]
	movaps	xmmword ptr [rsp + 32], xmm0
	mov	qword ptr [rbx + 16], rax
	movups	xmmword ptr [rbx], xmm0
.LBB14_12:
	mov	rax, rbx
	add	rsp, 56
	.cfi_def_cfa_offset 40
	pop	rbx
	.cfi_def_cfa_offset 32
	pop	r12
	.cfi_def_cfa_offset 24
	pop	r14
	.cfi_def_cfa_offset 16
	pop	r15
	.cfi_def_cfa_offset 8
	ret
.LBB14_4:
	.cfi_def_cfa_offset 96
.Ltmp63:
	lea	rdi, [rsp + 8]
	mov	ecx, 1
	mov	r8d, 1
	xor	esi, esi
	mov	rdx, r15
	call	_RINvNvMs2_NtCs78A21jy8lRn_5alloc7raw_vecINtB8_11RawVecInnerpE7reserve21do_reserve_and_handleNtNtBa_5alloc6GlobalECs3bNtqN8jaZB_3std
.Ltmp64:
# %bb.5:
	mov	rdi, qword ptr [rsp + 16]
	mov	r12, qword ptr [rsp + 24]
	jmp	.LBB14_6
.LBB14_7:
.Ltmp67:
	mov	rbx, rax
	cmp	qword ptr [rsp + 8], 0
	je	.LBB14_9
# %bb.8:
	mov	rdi, qword ptr [rsp + 16]
	call	qword ptr [rip + free@GOTPCREL]
.LBB14_9:
	mov	rdi, rbx
	call	_Unwind_Resume@PLT
.Lfunc_end14:
	.size	_RNvMNvNtCs3bNtqN8jaZB_3std9panicking13panic_handlerNtB2_19FormatStringPayload4fill, .Lfunc_end14-_RNvMNvNtCs3bNtqN8jaZB_3std9panicking13panic_handlerNtB2_19FormatStringPayload4fill
	.cfi_endproc
	.section	.gcc_except_table._RNvMNvNtCs3bNtqN8jaZB_3std9panicking13panic_handlerNtB2_19FormatStringPayload4fill,"a",@progbits
	.p2align	2, 0x0
GCC_except_table14:
.Lexception5:
	.byte	255                             # @LPStart Encoding = omit
	.byte	255                             # @TType Encoding = omit
	.byte	1                               # Call site Encoding = uleb128
	.uleb128 .Lcst_end5-.Lcst_begin5
.Lcst_begin5:
	.uleb128 .Ltmp65-.Lfunc_begin5          # >> Call Site 1 <<
	.uleb128 .Ltmp66-.Ltmp65                #   Call between .Ltmp65 and .Ltmp66
	.uleb128 .Ltmp67-.Lfunc_begin5          #     jumps to .Ltmp67
	.byte	0                               #   On action: cleanup
	.uleb128 .Ltmp66-.Lfunc_begin5          # >> Call Site 2 <<
	.uleb128 .Ltmp63-.Ltmp66                #   Call between .Ltmp66 and .Ltmp63
	.byte	0                               #     has no landing pad
	.byte	0                               #   On action: cleanup
	.uleb128 .Ltmp63-.Lfunc_begin5          # >> Call Site 3 <<
	.uleb128 .Ltmp64-.Ltmp63                #   Call between .Ltmp63 and .Ltmp64
	.uleb128 .Ltmp67-.Lfunc_begin5          #     jumps to .Ltmp67
	.byte	0                               #   On action: cleanup
	.uleb128 .Ltmp64-.Lfunc_begin5          # >> Call Site 4 <<
	.uleb128 .Lfunc_end14-.Ltmp64           #   Call between .Ltmp64 and .Lfunc_end14
	.byte	0                               #     has no landing pad
	.byte	0                               #   On action: cleanup
.Lcst_end5:
	.p2align	2, 0x0
                                        # -- End function
	.section	.text._RINvNtCsfQL5qMWGko6_4core3ptr13drop_in_placeNtNtCs78A21jy8lRn_5alloc6string6StringECs3bNtqN8jaZB_3std,"ax",@progbits
	.p2align	4                               # -- Begin function _RINvNtCsfQL5qMWGko6_4core3ptr13drop_in_placeNtNtCs78A21jy8lRn_5alloc6string6StringECs3bNtqN8jaZB_3std
	.type	_RINvNtCsfQL5qMWGko6_4core3ptr13drop_in_placeNtNtCs78A21jy8lRn_5alloc6string6StringECs3bNtqN8jaZB_3std,@function
_RINvNtCsfQL5qMWGko6_4core3ptr13drop_in_placeNtNtCs78A21jy8lRn_5alloc6string6StringECs3bNtqN8jaZB_3std: # @_RINvNtCsfQL5qMWGko6_4core3ptr13drop_in_placeNtNtCs78A21jy8lRn_5alloc6string6StringECs3bNtqN8jaZB_3std
	.cfi_startproc
# %bb.0:
	cmp	qword ptr [rdi], 0
	je	.LBB15_1
# %bb.2:
	mov	rdi, qword ptr [rdi + 8]
	jmp	qword ptr [rip + free@GOTPCREL] # TAILCALL
.LBB15_1:
	ret
.Lfunc_end15:
	.size	_RINvNtCsfQL5qMWGko6_4core3ptr13drop_in_placeNtNtCs78A21jy8lRn_5alloc6string6StringECs3bNtqN8jaZB_3std, .Lfunc_end15-_RINvNtCsfQL5qMWGko6_4core3ptr13drop_in_placeNtNtCs78A21jy8lRn_5alloc6string6StringECs3bNtqN8jaZB_3std
	.cfi_endproc
                                        # -- End function
	.section	.text._RNvXNtCsfQL5qMWGko6_4core3anyNtNtCs78A21jy8lRn_5alloc6string6StringNtB2_3Any7type_idCs3bNtqN8jaZB_3std,"ax",@progbits
	.p2align	4                               # -- Begin function _RNvXNtCsfQL5qMWGko6_4core3anyNtNtCs78A21jy8lRn_5alloc6string6StringNtB2_3Any7type_idCs3bNtqN8jaZB_3std
	.type	_RNvXNtCsfQL5qMWGko6_4core3anyNtNtCs78A21jy8lRn_5alloc6string6StringNtB2_3Any7type_idCs3bNtqN8jaZB_3std,@function
_RNvXNtCsfQL5qMWGko6_4core3anyNtNtCs78A21jy8lRn_5alloc6string6StringNtB2_3Any7type_idCs3bNtqN8jaZB_3std: # @_RNvXNtCsfQL5qMWGko6_4core3anyNtNtCs78A21jy8lRn_5alloc6string6StringNtB2_3Any7type_idCs3bNtqN8jaZB_3std
	.cfi_startproc
# %bb.0:
	mov	rax, rdi
	movups	xmm0, xmmword ptr [rip + .Lanon.28cb502c8ec02091c8e32b488a8e08d8.151]
	movups	xmmword ptr [rdi], xmm0
	ret
.Lfunc_end16:
	.size	_RNvXNtCsfQL5qMWGko6_4core3anyNtNtCs78A21jy8lRn_5alloc6string6StringNtB2_3Any7type_idCs3bNtqN8jaZB_3std, .Lfunc_end16-_RNvXNtCsfQL5qMWGko6_4core3anyNtNtCs78A21jy8lRn_5alloc6string6StringNtB2_3Any7type_idCs3bNtqN8jaZB_3std
	.cfi_endproc
                                        # -- End function
	.section	.text.unlikely._RINvNvMs2_NtCs78A21jy8lRn_5alloc7raw_vecINtB8_11RawVecInnerpE7reserve21do_reserve_and_handleNtNtBa_5alloc6GlobalECs3bNtqN8jaZB_3std,"ax",@progbits
	.p2align	4                               # -- Begin function _RINvNvMs2_NtCs78A21jy8lRn_5alloc7raw_vecINtB8_11RawVecInnerpE7reserve21do_reserve_and_handleNtNtBa_5alloc6GlobalECs3bNtqN8jaZB_3std
	.type	_RINvNvMs2_NtCs78A21jy8lRn_5alloc7raw_vecINtB8_11RawVecInnerpE7reserve21do_reserve_and_handleNtNtBa_5alloc6GlobalECs3bNtqN8jaZB_3std,@function
_RINvNvMs2_NtCs78A21jy8lRn_5alloc7raw_vecINtB8_11RawVecInnerpE7reserve21do_reserve_and_handleNtNtBa_5alloc6GlobalECs3bNtqN8jaZB_3std: # @_RINvNvMs2_NtCs78A21jy8lRn_5alloc7raw_vecINtB8_11RawVecInnerpE7reserve21do_reserve_and_handleNtNtBa_5alloc6GlobalECs3bNtqN8jaZB_3std
	.cfi_startproc
# %bb.0:
	push	r14
	.cfi_def_cfa_offset 16
	push	rbx
	.cfi_def_cfa_offset 24
	sub	rsp, 24
	.cfi_def_cfa_offset 48
	.cfi_offset rbx, -24
	.cfi_offset r14, -16
	add	rsi, rdx
	jb	.LBB17_1
# %bb.2:
	mov	r9, r8
	mov	r8, rcx
	mov	rbx, rdi
	mov	rax, qword ptr [rdi]
	lea	r14, [rax + rax]
	cmp	rsi, r14
	cmova	r14, rsi
	xor	ecx, ecx
	cmp	r9, 1
	sete	cl
	lea	rcx, [4*rcx + 4]
	cmp	r14, rcx
	cmovbe	r14, rcx
	mov	rdx, qword ptr [rdi + 8]
	mov	rdi, rsp
	mov	rsi, rax
	mov	rcx, r14
	call	_RNvMs2_NtCs78A21jy8lRn_5alloc7raw_vecNtB5_11RawVecInner11finish_growCs3bNtqN8jaZB_3std
	cmp	dword ptr [rsp], 1
	je	.LBB17_3
# %bb.5:
	mov	rax, qword ptr [rsp + 8]
	mov	qword ptr [rbx + 8], rax
	mov	qword ptr [rbx], r14
	add	rsp, 24
	.cfi_def_cfa_offset 24
	pop	rbx
	.cfi_def_cfa_offset 16
	pop	r14
	.cfi_def_cfa_offset 8
	ret
.LBB17_1:
	.cfi_def_cfa_offset 48
	xor	edi, edi
                                        # implicit-def: $rsi
	call	_RNvNtCs78A21jy8lRn_5alloc7raw_vec12handle_error
.LBB17_3:
	mov	rdi, qword ptr [rsp + 8]
	mov	rsi, qword ptr [rsp + 16]
	call	_RNvNtCs78A21jy8lRn_5alloc7raw_vec12handle_error
.Lfunc_end17:
	.size	_RINvNvMs2_NtCs78A21jy8lRn_5alloc7raw_vecINtB8_11RawVecInnerpE7reserve21do_reserve_and_handleNtNtBa_5alloc6GlobalECs3bNtqN8jaZB_3std, .Lfunc_end17-_RINvNvMs2_NtCs78A21jy8lRn_5alloc7raw_vecINtB8_11RawVecInnerpE7reserve21do_reserve_and_handleNtNtBa_5alloc6GlobalECs3bNtqN8jaZB_3std
	.cfi_endproc
                                        # -- End function
	.section	.text._RNvNtCsfQL5qMWGko6_4core3fmt5write,"ax",@progbits
	.p2align	4                               # -- Begin function _RNvNtCsfQL5qMWGko6_4core3fmt5write
	.type	_RNvNtCsfQL5qMWGko6_4core3fmt5write,@function
_RNvNtCsfQL5qMWGko6_4core3fmt5write:    # @_RNvNtCsfQL5qMWGko6_4core3fmt5write
	.cfi_startproc
# %bb.0:
	push	rbp
	.cfi_def_cfa_offset 16
	push	r15
	.cfi_def_cfa_offset 24
	push	r14
	.cfi_def_cfa_offset 32
	push	r13
	.cfi_def_cfa_offset 40
	push	r12
	.cfi_def_cfa_offset 48
	push	rbx
	.cfi_def_cfa_offset 56
	sub	rsp, 40
	.cfi_def_cfa_offset 96
	.cfi_offset rbx, -56
	.cfi_offset r12, -48
	.cfi_offset r13, -40
	.cfi_offset r14, -32
	.cfi_offset r15, -24
	.cfi_offset rbp, -16
	mov	rbx, rcx
	mov	rbp, rdx
	mov	r14, rdi
	test	bl, 1
	jne	.LBB18_29
# %bb.1:
	movzx	eax, byte ptr [rbp]
	test	al, al
	je	.LBB18_30
# %bb.2:
	mov	qword ptr [rsp + 24], rsi       # 8-byte Spill
	mov	rcx, qword ptr [rsi + 24]
	mov	qword ptr [rsp + 32], rcx       # 8-byte Spill
	xor	r15d, r15d
	jmp	.LBB18_7
	.p2align	4
.LBB18_6:                               #   in Loop: Header=BB18_7 Depth=1
	movzx	eax, byte ptr [r13]
	mov	rbp, r13
	test	al, al
	je	.LBB18_30
.LBB18_7:                               # =>This Inner Loop Header: Depth=1
	lea	r13, [rbp + 1]
	movzx	r12d, al
	test	al, al
	js	.LBB18_10
# %bb.8:                                #   in Loop: Header=BB18_7 Depth=1
	mov	rdi, r14
	mov	rsi, r13
	mov	rdx, r12
	call	qword ptr [rsp + 32]            # 8-byte Folded Reload
	test	al, al
	jne	.LBB18_31
# %bb.9:                                #   in Loop: Header=BB18_7 Depth=1
	add	r13, r12
	jmp	.LBB18_6
	.p2align	4
.LBB18_10:                              #   in Loop: Header=BB18_7 Depth=1
	cmp	al, -128
	je	.LBB18_13
# %bb.11:                               #   in Loop: Header=BB18_7 Depth=1
	cmp	r12d, 192
	jne	.LBB18_15
# %bb.12:                               #   in Loop: Header=BB18_7 Depth=1
	mov	rax, r15
	shl	rax, 4
	mov	qword ptr [rsp + 16], 1610612768
	jmp	.LBB18_4
.LBB18_13:                              #   in Loop: Header=BB18_7 Depth=1
	movzx	r12d, word ptr [rbp + 1]
	lea	rsi, [rbp + 3]
	mov	rdi, r14
	mov	rdx, r12
	call	qword ptr [rsp + 32]            # 8-byte Folded Reload
	test	al, al
	jne	.LBB18_31
# %bb.14:                               #   in Loop: Header=BB18_7 Depth=1
	lea	r13, [r12 + rbp]
	add	r13, 3
	jmp	.LBB18_6
.LBB18_15:                              #   in Loop: Header=BB18_7 Depth=1
	mov	ecx, 1610612768
	test	al, 1
	je	.LBB18_17
# %bb.16:                               #   in Loop: Header=BB18_7 Depth=1
	mov	ecx, dword ptr [rbp + 1]
	add	rbp, 5
	mov	r13, rbp
.LBB18_17:                              #   in Loop: Header=BB18_7 Depth=1
	test	al, 2
	jne	.LBB18_20
# %bb.18:                               #   in Loop: Header=BB18_7 Depth=1
	xor	edx, edx
	test	al, 4
	je	.LBB18_21
.LBB18_19:                              #   in Loop: Header=BB18_7 Depth=1
	movzx	esi, word ptr [r13]
	add	r13, 2
	test	al, 8
	jne	.LBB18_22
	jmp	.LBB18_23
.LBB18_20:                              #   in Loop: Header=BB18_7 Depth=1
	movzx	edx, word ptr [r13]
	add	r13, 2
	test	al, 4
	jne	.LBB18_19
.LBB18_21:                              #   in Loop: Header=BB18_7 Depth=1
	xor	esi, esi
	test	al, 8
	je	.LBB18_23
.LBB18_22:                              #   in Loop: Header=BB18_7 Depth=1
	movzx	r15d, word ptr [r13]
	add	r13, 2
.LBB18_23:                              #   in Loop: Header=BB18_7 Depth=1
	test	al, 16
	je	.LBB18_26
# %bb.24:                               #   in Loop: Header=BB18_7 Depth=1
	movzx	edi, dx
	shl	edi, 4
	cmp	qword ptr [rbx + rdi], 0
                                        # implicit-def: $dx
	jne	.LBB18_26
# %bb.25:                               #   in Loop: Header=BB18_7 Depth=1
	add	rdi, rbx
	movzx	edx, word ptr [rdi + 8]
.LBB18_26:                              #   in Loop: Header=BB18_7 Depth=1
	test	al, 32
	je	.LBB18_3
# %bb.27:                               #   in Loop: Header=BB18_7 Depth=1
	movzx	eax, si
	shl	eax, 4
	cmp	qword ptr [rbx + rax], 0
                                        # implicit-def: $si
	jne	.LBB18_3
# %bb.28:                               #   in Loop: Header=BB18_7 Depth=1
	add	rax, rbx
	movzx	esi, word ptr [rax + 8]
.LBB18_3:                               #   in Loop: Header=BB18_7 Depth=1
	mov	rax, r15
	shl	rax, 4
	mov	dword ptr [rsp + 16], ecx
	mov	word ptr [rsp + 20], dx
	mov	word ptr [rsp + 22], si
.LBB18_4:                               #   in Loop: Header=BB18_7 Depth=1
	mov	qword ptr [rsp], r14
	mov	rcx, qword ptr [rsp + 24]       # 8-byte Reload
	mov	qword ptr [rsp + 8], rcx
	mov	rdi, qword ptr [rbx + rax]
	mov	rsi, rsp
	call	qword ptr [rbx + rax + 8]
	test	al, al
	jne	.LBB18_31
# %bb.5:                                #   in Loop: Header=BB18_7 Depth=1
	inc	r15
	jmp	.LBB18_6
.LBB18_29:
	shr	rbx
	mov	rax, qword ptr [rsi + 24]
	mov	rdi, r14
	mov	rsi, rbp
	mov	rdx, rbx
	add	rsp, 40
	.cfi_def_cfa_offset 56
	pop	rbx
	.cfi_def_cfa_offset 48
	pop	r12
	.cfi_def_cfa_offset 40
	pop	r13
	.cfi_def_cfa_offset 32
	pop	r14
	.cfi_def_cfa_offset 24
	pop	r15
	.cfi_def_cfa_offset 16
	pop	rbp
	.cfi_def_cfa_offset 8
	jmp	rax                             # TAILCALL
.LBB18_30:
	.cfi_def_cfa_offset 96
	xor	eax, eax
	jmp	.LBB18_32
.LBB18_31:
	mov	al, 1
.LBB18_32:
                                        # kill: def $al killed $al killed $eax
	add	rsp, 40
	.cfi_def_cfa_offset 56
	pop	rbx
	.cfi_def_cfa_offset 48
	pop	r12
	.cfi_def_cfa_offset 40
	pop	r13
	.cfi_def_cfa_offset 32
	pop	r14
	.cfi_def_cfa_offset 24
	pop	r15
	.cfi_def_cfa_offset 16
	pop	rbp
	.cfi_def_cfa_offset 8
	ret
.Lfunc_end18:
	.size	_RNvNtCsfQL5qMWGko6_4core3fmt5write, .Lfunc_end18-_RNvNtCsfQL5qMWGko6_4core3fmt5write
	.cfi_endproc
                                        # -- End function
	.section	.text._RNvXsW_NtCs78A21jy8lRn_5alloc6stringNtB5_6StringNtNtCsfQL5qMWGko6_4core3fmt5Write9write_str.66,"ax",@progbits
	.p2align	4                               # -- Begin function _RNvXsW_NtCs78A21jy8lRn_5alloc6stringNtB5_6StringNtNtCsfQL5qMWGko6_4core3fmt5Write9write_str.66
	.type	_RNvXsW_NtCs78A21jy8lRn_5alloc6stringNtB5_6StringNtNtCsfQL5qMWGko6_4core3fmt5Write9write_str.66,@function
_RNvXsW_NtCs78A21jy8lRn_5alloc6stringNtB5_6StringNtNtCsfQL5qMWGko6_4core3fmt5Write9write_str.66: # @_RNvXsW_NtCs78A21jy8lRn_5alloc6stringNtB5_6StringNtNtCsfQL5qMWGko6_4core3fmt5Write9write_str.66
	.cfi_startproc
# %bb.0:
	push	r15
	.cfi_def_cfa_offset 16
	push	r14
	.cfi_def_cfa_offset 24
	push	r12
	.cfi_def_cfa_offset 32
	push	rbx
	.cfi_def_cfa_offset 40
	push	rax
	.cfi_def_cfa_offset 48
	.cfi_offset rbx, -40
	.cfi_offset r12, -32
	.cfi_offset r14, -24
	.cfi_offset r15, -16
	mov	rbx, rdx
	mov	r14, rdi
	mov	rax, qword ptr [rdi]
	mov	r15, qword ptr [rdi + 16]
	sub	rax, r15
	cmp	rdx, rax
	ja	.LBB19_1
.LBB19_2:
	mov	rdi, qword ptr [r14 + 8]
	add	rdi, r15
	mov	rdx, rbx
	call	qword ptr [rip + memcpy@GOTPCREL]
	add	r15, rbx
	mov	qword ptr [r14 + 16], r15
	xor	eax, eax
	add	rsp, 8
	.cfi_def_cfa_offset 40
	pop	rbx
	.cfi_def_cfa_offset 32
	pop	r12
	.cfi_def_cfa_offset 24
	pop	r14
	.cfi_def_cfa_offset 16
	pop	r15
	.cfi_def_cfa_offset 8
	ret
.LBB19_1:
	.cfi_def_cfa_offset 48
	mov	ecx, 1
	mov	r8d, 1
	mov	rdi, r14
	mov	r12, rsi
	mov	rsi, r15
	mov	rdx, rbx
	call	_RINvNvMs2_NtCs78A21jy8lRn_5alloc7raw_vecINtB8_11RawVecInnerpE7reserve21do_reserve_and_handleNtNtBa_5alloc6GlobalECs3bNtqN8jaZB_3std
	mov	rsi, r12
	mov	r15, qword ptr [r14 + 16]
	jmp	.LBB19_2
.Lfunc_end19:
	.size	_RNvXsW_NtCs78A21jy8lRn_5alloc6stringNtB5_6StringNtNtCsfQL5qMWGko6_4core3fmt5Write9write_str.66, .Lfunc_end19-_RNvXsW_NtCs78A21jy8lRn_5alloc6stringNtB5_6StringNtNtCsfQL5qMWGko6_4core3fmt5Write9write_str.66
	.cfi_endproc
                                        # -- End function
	.section	.text._RNvXsW_NtCs78A21jy8lRn_5alloc6stringNtB5_6StringNtNtCsfQL5qMWGko6_4core3fmt5Write10write_char.67,"ax",@progbits
	.p2align	4                               # -- Begin function _RNvXsW_NtCs78A21jy8lRn_5alloc6stringNtB5_6StringNtNtCsfQL5qMWGko6_4core3fmt5Write10write_char.67
	.type	_RNvXsW_NtCs78A21jy8lRn_5alloc6stringNtB5_6StringNtNtCsfQL5qMWGko6_4core3fmt5Write10write_char.67,@function
_RNvXsW_NtCs78A21jy8lRn_5alloc6stringNtB5_6StringNtNtCsfQL5qMWGko6_4core3fmt5Write10write_char.67: # @_RNvXsW_NtCs78A21jy8lRn_5alloc6stringNtB5_6StringNtNtCsfQL5qMWGko6_4core3fmt5Write10write_char.67
	.cfi_startproc
# %bb.0:
	push	rbp
	.cfi_def_cfa_offset 16
	push	r15
	.cfi_def_cfa_offset 24
	push	r14
	.cfi_def_cfa_offset 32
	push	rbx
	.cfi_def_cfa_offset 40
	push	rax
	.cfi_def_cfa_offset 48
	.cfi_offset rbx, -40
	.cfi_offset r14, -32
	.cfi_offset r15, -24
	.cfi_offset rbp, -16
	mov	rbx, qword ptr [rdi + 16]
	mov	r14d, 1
	cmp	esi, 128
	jb	.LBB20_3
# %bb.1:
	mov	r14d, 2
	cmp	esi, 2048
	jb	.LBB20_3
# %bb.2:
	cmp	esi, 65536
	mov	r14d, 4
	sbb	r14, 0
.LBB20_3:
	mov	rcx, qword ptr [rdi]
	sub	rcx, rbx
	mov	rax, rbx
	cmp	r14, rcx
	ja	.LBB20_4
# %bb.5:
	mov	rcx, qword ptr [rdi + 8]
	cmp	esi, 128
	jae	.LBB20_6
.LBB20_12:
	mov	byte ptr [rcx + rax], sil
	jmp	.LBB20_11
.LBB20_4:
	mov	ecx, 1
	mov	r8d, 1
	mov	r15, rdi
	mov	ebp, esi
	mov	rsi, rbx
	mov	rdx, r14
	call	_RINvNvMs2_NtCs78A21jy8lRn_5alloc7raw_vecINtB8_11RawVecInnerpE7reserve21do_reserve_and_handleNtNtBa_5alloc6GlobalECs3bNtqN8jaZB_3std
	mov	esi, ebp
	mov	rdi, r15
	mov	rax, qword ptr [r15 + 16]
	mov	rcx, qword ptr [rdi + 8]
	cmp	esi, 128
	jb	.LBB20_12
.LBB20_6:
	mov	edx, esi
	and	dl, 63
	or	dl, -128
	mov	r8d, esi
	shr	r8d, 6
	cmp	esi, 2048
	jae	.LBB20_8
# %bb.7:
	or	r8b, -64
	mov	byte ptr [rcx + rax], r8b
	mov	byte ptr [rcx + rax + 1], dl
	jmp	.LBB20_11
.LBB20_8:
	and	r8b, 63
	or	r8b, -128
	mov	r9d, esi
	shr	r9d, 12
	cmp	esi, 65535
	ja	.LBB20_10
# %bb.9:
	or	r9b, -32
	mov	byte ptr [rcx + rax], r9b
	mov	byte ptr [rcx + rax + 1], r8b
	mov	byte ptr [rcx + rax + 2], dl
	jmp	.LBB20_11
.LBB20_10:
	and	r9b, 63
	or	r9b, -128
	shr	esi, 18
	or	sil, -16
	mov	byte ptr [rcx + rax], sil
	mov	byte ptr [rcx + rax + 1], r9b
	mov	byte ptr [rcx + rax + 2], r8b
	mov	byte ptr [rcx + rax + 3], dl
.LBB20_11:
	add	r14, rbx
	mov	qword ptr [rdi + 16], r14
	xor	eax, eax
	add	rsp, 8
	.cfi_def_cfa_offset 40
	pop	rbx
	.cfi_def_cfa_offset 32
	pop	r14
	.cfi_def_cfa_offset 24
	pop	r15
	.cfi_def_cfa_offset 16
	pop	rbp
	.cfi_def_cfa_offset 8
	ret
.Lfunc_end20:
	.size	_RNvXsW_NtCs78A21jy8lRn_5alloc6stringNtB5_6StringNtNtCsfQL5qMWGko6_4core3fmt5Write10write_char.67, .Lfunc_end20-_RNvXsW_NtCs78A21jy8lRn_5alloc6stringNtB5_6StringNtNtCsfQL5qMWGko6_4core3fmt5Write10write_char.67
	.cfi_endproc
                                        # -- End function
	.section	.text._RNvYNtNtCs78A21jy8lRn_5alloc6string6StringNtNtCsfQL5qMWGko6_4core3fmt5Write9write_fmtCs3bNtqN8jaZB_3std,"ax",@progbits
	.p2align	4                               # -- Begin function _RNvYNtNtCs78A21jy8lRn_5alloc6string6StringNtNtCsfQL5qMWGko6_4core3fmt5Write9write_fmtCs3bNtqN8jaZB_3std
	.type	_RNvYNtNtCs78A21jy8lRn_5alloc6string6StringNtNtCsfQL5qMWGko6_4core3fmt5Write9write_fmtCs3bNtqN8jaZB_3std,@function
_RNvYNtNtCs78A21jy8lRn_5alloc6string6StringNtNtCsfQL5qMWGko6_4core3fmt5Write9write_fmtCs3bNtqN8jaZB_3std: # @_RNvYNtNtCs78A21jy8lRn_5alloc6string6StringNtNtCsfQL5qMWGko6_4core3fmt5Write9write_fmtCs3bNtqN8jaZB_3std
	.cfi_startproc
# %bb.0:
	push	r15
	.cfi_def_cfa_offset 16
	push	r14
	.cfi_def_cfa_offset 24
	push	r12
	.cfi_def_cfa_offset 32
	push	rbx
	.cfi_def_cfa_offset 40
	push	rax
	.cfi_def_cfa_offset 48
	.cfi_offset rbx, -40
	.cfi_offset r12, -32
	.cfi_offset r14, -24
	.cfi_offset r15, -16
	mov	rbx, rdx
	test	bl, 1
	jne	.LBB21_1
# %bb.4:
	lea	rax, [rip + .Lanon.28cb502c8ec02091c8e32b488a8e08d8.103]
	mov	rdx, rsi
	mov	rsi, rax
	mov	rcx, rbx
	add	rsp, 8
	.cfi_def_cfa_offset 40
	pop	rbx
	.cfi_def_cfa_offset 32
	pop	r12
	.cfi_def_cfa_offset 24
	pop	r14
	.cfi_def_cfa_offset 16
	pop	r15
	.cfi_def_cfa_offset 8
	jmp	_RNvNtCsfQL5qMWGko6_4core3fmt5write # TAILCALL
.LBB21_1:
	.cfi_def_cfa_offset 48
	shr	rbx
	mov	rax, qword ptr [rdi]
	mov	r14, qword ptr [rdi + 16]
	sub	rax, r14
	cmp	rbx, rax
	ja	.LBB21_2
.LBB21_3:
	mov	rax, qword ptr [rdi + 8]
	add	rax, r14
	mov	r15, rdi
	mov	rdi, rax
	mov	rdx, rbx
	call	qword ptr [rip + memcpy@GOTPCREL]
	add	r14, rbx
	mov	qword ptr [r15 + 16], r14
	xor	eax, eax
	add	rsp, 8
	.cfi_def_cfa_offset 40
	pop	rbx
	.cfi_def_cfa_offset 32
	pop	r12
	.cfi_def_cfa_offset 24
	pop	r14
	.cfi_def_cfa_offset 16
	pop	r15
	.cfi_def_cfa_offset 8
	ret
.LBB21_2:
	.cfi_def_cfa_offset 48
	mov	ecx, 1
	mov	r8d, 1
	mov	r15, rdi
	mov	r12, rsi
	mov	rsi, r14
	mov	rdx, rbx
	call	_RINvNvMs2_NtCs78A21jy8lRn_5alloc7raw_vecINtB8_11RawVecInnerpE7reserve21do_reserve_and_handleNtNtBa_5alloc6GlobalECs3bNtqN8jaZB_3std
	mov	rsi, r12
	mov	rdi, r15
	mov	r14, qword ptr [r15 + 16]
	jmp	.LBB21_3
.Lfunc_end21:
	.size	_RNvYNtNtCs78A21jy8lRn_5alloc6string6StringNtNtCsfQL5qMWGko6_4core3fmt5Write9write_fmtCs3bNtqN8jaZB_3std, .Lfunc_end21-_RNvYNtNtCs78A21jy8lRn_5alloc6string6StringNtNtCsfQL5qMWGko6_4core3fmt5Write9write_fmtCs3bNtqN8jaZB_3std
	.cfi_endproc
                                        # -- End function
	.section	.text.unlikely._RNvMs2_NtCs78A21jy8lRn_5alloc7raw_vecNtB5_11RawVecInner11finish_growCs3bNtqN8jaZB_3std,"ax",@progbits
	.p2align	4                               # -- Begin function _RNvMs2_NtCs78A21jy8lRn_5alloc7raw_vecNtB5_11RawVecInner11finish_growCs3bNtqN8jaZB_3std
	.type	_RNvMs2_NtCs78A21jy8lRn_5alloc7raw_vecNtB5_11RawVecInner11finish_growCs3bNtqN8jaZB_3std,@function
_RNvMs2_NtCs78A21jy8lRn_5alloc7raw_vecNtB5_11RawVecInner11finish_growCs3bNtqN8jaZB_3std: # @_RNvMs2_NtCs78A21jy8lRn_5alloc7raw_vecNtB5_11RawVecInner11finish_growCs3bNtqN8jaZB_3std
	.cfi_startproc
# %bb.0:
	push	rbp
	.cfi_def_cfa_offset 16
	push	r15
	.cfi_def_cfa_offset 24
	push	r14
	.cfi_def_cfa_offset 32
	push	r13
	.cfi_def_cfa_offset 40
	push	r12
	.cfi_def_cfa_offset 48
	push	rbx
	.cfi_def_cfa_offset 56
	sub	rsp, 24
	.cfi_def_cfa_offset 80
	.cfi_offset rbx, -56
	.cfi_offset r12, -48
	.cfi_offset r13, -40
	.cfi_offset r14, -32
	.cfi_offset r15, -24
	.cfi_offset rbp, -16
	mov	r12, rdx
	mov	rbx, rdi
	lea	rdx, [r8 + r9]
	dec	rdx
	mov	rax, r8
	neg	rax
	and	rax, rdx
	mul	rcx
	mov	r14, rax
	seto	al
	movabs	rcx, -9223372036854775808
	sub	rcx, r8
	cmp	r14, rcx
	seta	cl
	or	cl, al
	mov	r13d, 1
	je	.LBB22_2
# %bb.1:
	mov	eax, 8
	xor	r14d, r14d
	jmp	.LBB22_16
.LBB22_2:
	mov	r15, r8
	test	rsi, rsi
	je	.LBB22_3
# %bb.8:
	cmp	r15, r14
	jbe	.LBB22_13
# %bb.9:
	mov	qword ptr [rsp + 16], rsi       # 8-byte Spill
	mov	rbp, r9
	mov	qword ptr [rsp + 8], 0
	lea	rdi, [rsp + 8]
	mov	esi, 8
	mov	rdx, r14
	call	qword ptr [rip + posix_memalign@GOTPCREL]
	test	eax, eax
	setne	al
	mov	rdi, qword ptr [rsp + 8]
	test	rdi, rdi
	sete	cl
	or	cl, al
	jne	.LBB22_15
# %bb.10:
	imul	rbp, qword ptr [rsp + 16]       # 8-byte Folded Reload
	mov	rsi, r12
	mov	rdx, rbp
	mov	r15, rdi
	call	qword ptr [rip + memcpy@GOTPCREL]
	mov	rdi, r12
	call	qword ptr [rip + free@GOTPCREL]
	jmp	.LBB22_11
.LBB22_3:
	test	r14, r14
	je	.LBB22_11
# %bb.4:
	cmp	r15, r14
	jbe	.LBB22_7
# %bb.5:
	mov	qword ptr [rsp + 8], 0
	lea	rdi, [rsp + 8]
	mov	esi, 8
	mov	rdx, r14
	call	qword ptr [rip + posix_memalign@GOTPCREL]
	test	eax, eax
	jne	.LBB22_15
# %bb.6:
	mov	rax, qword ptr [rsp + 8]
	test	rax, rax
	jne	.LBB22_12
	jmp	.LBB22_15
.LBB22_13:
	mov	rdi, r12
	mov	rsi, r14
	call	qword ptr [rip + realloc@GOTPCREL]
	test	rax, rax
	jne	.LBB22_12
	jmp	.LBB22_15
.LBB22_11:
	mov	rax, r15
.LBB22_12:
	mov	qword ptr [rbx + 8], rax
	mov	eax, 16
	xor	r13d, r13d
	jmp	.LBB22_16
.LBB22_7:
	mov	rdi, r14
	call	qword ptr [rip + malloc@GOTPCREL]
	test	rax, rax
	jne	.LBB22_12
.LBB22_15:
	mov	qword ptr [rbx + 8], r15
	mov	eax, 16
.LBB22_16:
	mov	qword ptr [rbx + rax], r14
	mov	qword ptr [rbx], r13
	add	rsp, 24
	.cfi_def_cfa_offset 56
	pop	rbx
	.cfi_def_cfa_offset 48
	pop	r12
	.cfi_def_cfa_offset 40
	pop	r13
	.cfi_def_cfa_offset 32
	pop	r14
	.cfi_def_cfa_offset 24
	pop	r15
	.cfi_def_cfa_offset 16
	pop	rbp
	.cfi_def_cfa_offset 8
	ret
.Lfunc_end22:
	.size	_RNvMs2_NtCs78A21jy8lRn_5alloc7raw_vecNtB5_11RawVecInner11finish_growCs3bNtqN8jaZB_3std, .Lfunc_end22-_RNvMs2_NtCs78A21jy8lRn_5alloc7raw_vecNtB5_11RawVecInner11finish_growCs3bNtqN8jaZB_3std
	.cfi_endproc
                                        # -- End function
	.section	.text.unlikely._RNvNtCs78A21jy8lRn_5alloc7raw_vec12handle_error,"ax",@progbits
	.type	_RNvNtCs78A21jy8lRn_5alloc7raw_vec12handle_error,@function # -- Begin function _RNvNtCs78A21jy8lRn_5alloc7raw_vec12handle_error
_RNvNtCs78A21jy8lRn_5alloc7raw_vec12handle_error: # @_RNvNtCs78A21jy8lRn_5alloc7raw_vec12handle_error
	.cfi_startproc
# %bb.0:
	push	rax
	.cfi_def_cfa_offset 16
	test	rdi, rdi
	jne	.LBB23_1
# %bb.2:
	call	_RNvNtCs78A21jy8lRn_5alloc7raw_vec17capacity_overflow
.LBB23_1:
	mov	rdi, rsi
	call	_RNvNtCs78A21jy8lRn_5alloc5alloc18handle_alloc_error
.Lfunc_end23:
	.size	_RNvNtCs78A21jy8lRn_5alloc7raw_vec12handle_error, .Lfunc_end23-_RNvNtCs78A21jy8lRn_5alloc7raw_vec12handle_error
	.cfi_endproc
                                        # -- End function
	.section	.text.unlikely._RNvNtCs78A21jy8lRn_5alloc5alloc18handle_alloc_error,"ax",@progbits
	.type	_RNvNtCs78A21jy8lRn_5alloc5alloc18handle_alloc_error,@function # -- Begin function _RNvNtCs78A21jy8lRn_5alloc5alloc18handle_alloc_error
_RNvNtCs78A21jy8lRn_5alloc5alloc18handle_alloc_error: # @_RNvNtCs78A21jy8lRn_5alloc5alloc18handle_alloc_error
	.cfi_startproc
# %bb.0:
	push	rax
	.cfi_def_cfa_offset 16
	call	_RNvCsL6e0J8m5bd_7___rustc26___rust_alloc_error_handler
.Lfunc_end24:
	.size	_RNvNtCs78A21jy8lRn_5alloc5alloc18handle_alloc_error, .Lfunc_end24-_RNvNtCs78A21jy8lRn_5alloc5alloc18handle_alloc_error
	.cfi_endproc
                                        # -- End function
	.section	.text.unlikely._RNvNtCs78A21jy8lRn_5alloc7raw_vec17capacity_overflow,"ax",@progbits
	.p2align	4                               # -- Begin function _RNvNtCs78A21jy8lRn_5alloc7raw_vec17capacity_overflow
	.type	_RNvNtCs78A21jy8lRn_5alloc7raw_vec17capacity_overflow,@function
_RNvNtCs78A21jy8lRn_5alloc7raw_vec17capacity_overflow: # @_RNvNtCs78A21jy8lRn_5alloc7raw_vec17capacity_overflow
	.cfi_startproc
# %bb.0:
	push	rax
	.cfi_def_cfa_offset 16
	lea	rdi, [rip + .Lanon.a0b112cc4ced6dc260baae356f34affc.25]
	lea	rdx, [rip + .Lanon.a0b112cc4ced6dc260baae356f34affc.26]
	mov	esi, 35
	call	_RNvNtCsfQL5qMWGko6_4core9panicking9panic_fmt
.Lfunc_end25:
	.size	_RNvNtCs78A21jy8lRn_5alloc7raw_vec17capacity_overflow, .Lfunc_end25-_RNvNtCs78A21jy8lRn_5alloc7raw_vec17capacity_overflow
	.cfi_endproc
                                        # -- End function
	.section	.text.unlikely._RNvNtCsfQL5qMWGko6_4core9panicking9panic_fmt,"ax",@progbits
	.p2align	4                               # -- Begin function _RNvNtCsfQL5qMWGko6_4core9panicking9panic_fmt
	.type	_RNvNtCsfQL5qMWGko6_4core9panicking9panic_fmt,@function
_RNvNtCsfQL5qMWGko6_4core9panicking9panic_fmt: # @_RNvNtCsfQL5qMWGko6_4core9panicking9panic_fmt
	.cfi_startproc
# %bb.0:
	sub	rsp, 40
	.cfi_def_cfa_offset 48
	mov	qword ptr [rsp], rdi
	mov	qword ptr [rsp + 8], rsi
	mov	rax, rsp
	mov	qword ptr [rsp + 16], rax
	mov	qword ptr [rsp + 24], rdx
	mov	word ptr [rsp + 32], 1
	lea	rdi, [rsp + 16]
	call	_RNvCsL6e0J8m5bd_7___rustc17rust_begin_unwind
.Lfunc_end26:
	.size	_RNvNtCsfQL5qMWGko6_4core9panicking9panic_fmt, .Lfunc_end26-_RNvNtCsfQL5qMWGko6_4core9panicking9panic_fmt
	.cfi_endproc
                                        # -- End function
	.section	.text.unlikely._RNvCsL6e0J8m5bd_7___rustc26___rust_alloc_error_handler,"ax",@progbits
	.p2align	4                               # -- Begin function _RNvCsL6e0J8m5bd_7___rustc26___rust_alloc_error_handler
	.type	_RNvCsL6e0J8m5bd_7___rustc26___rust_alloc_error_handler,@function
_RNvCsL6e0J8m5bd_7___rustc26___rust_alloc_error_handler: # @_RNvCsL6e0J8m5bd_7___rustc26___rust_alloc_error_handler
	.cfi_startproc
# %bb.0:
	push	rax
	.cfi_def_cfa_offset 16
	call	_RNvNtCs3bNtqN8jaZB_3std5alloc8rust_oom
.Lfunc_end27:
	.size	_RNvCsL6e0J8m5bd_7___rustc26___rust_alloc_error_handler, .Lfunc_end27-_RNvCsL6e0J8m5bd_7___rustc26___rust_alloc_error_handler
	.cfi_endproc
                                        # -- End function
	.section	.text.unlikely._RNvNtCs3bNtqN8jaZB_3std5alloc8rust_oom,"ax",@progbits
	.p2align	4                               # -- Begin function _RNvNtCs3bNtqN8jaZB_3std5alloc8rust_oom
	.type	_RNvNtCs3bNtqN8jaZB_3std5alloc8rust_oom,@function
_RNvNtCs3bNtqN8jaZB_3std5alloc8rust_oom: # @_RNvNtCs3bNtqN8jaZB_3std5alloc8rust_oom
	.cfi_startproc
# %bb.0:
	push	rax
	.cfi_def_cfa_offset 16
	call	_RINvNtNtCs3bNtqN8jaZB_3std3sys9backtrace26___rust_end_short_backtraceNCNvNtB6_5alloc8rust_oom0zEB6_
.Lfunc_end28:
	.size	_RNvNtCs3bNtqN8jaZB_3std5alloc8rust_oom, .Lfunc_end28-_RNvNtCs3bNtqN8jaZB_3std5alloc8rust_oom
	.cfi_endproc
                                        # -- End function
	.section	.text.unlikely._RINvNtNtCs3bNtqN8jaZB_3std3sys9backtrace26___rust_end_short_backtraceNCNvNtB6_5alloc8rust_oom0zEB6_,"ax",@progbits
	.p2align	4                               # -- Begin function _RINvNtNtCs3bNtqN8jaZB_3std3sys9backtrace26___rust_end_short_backtraceNCNvNtB6_5alloc8rust_oom0zEB6_
	.type	_RINvNtNtCs3bNtqN8jaZB_3std3sys9backtrace26___rust_end_short_backtraceNCNvNtB6_5alloc8rust_oom0zEB6_,@function
_RINvNtNtCs3bNtqN8jaZB_3std3sys9backtrace26___rust_end_short_backtraceNCNvNtB6_5alloc8rust_oom0zEB6_: # @_RINvNtNtCs3bNtqN8jaZB_3std3sys9backtrace26___rust_end_short_backtraceNCNvNtB6_5alloc8rust_oom0zEB6_
	.cfi_startproc
# %bb.0:
	push	rax
	.cfi_def_cfa_offset 16
	call	_RNCNvNtCs3bNtqN8jaZB_3std5alloc8rust_oom0B5_
.Lfunc_end29:
	.size	_RINvNtNtCs3bNtqN8jaZB_3std3sys9backtrace26___rust_end_short_backtraceNCNvNtB6_5alloc8rust_oom0zEB6_, .Lfunc_end29-_RINvNtNtCs3bNtqN8jaZB_3std3sys9backtrace26___rust_end_short_backtraceNCNvNtB6_5alloc8rust_oom0zEB6_
	.cfi_endproc
                                        # -- End function
	.section	.text.unlikely._RNCNvNtCs3bNtqN8jaZB_3std5alloc8rust_oom0B5_,"ax",@progbits
	.p2align	4                               # -- Begin function _RNCNvNtCs3bNtqN8jaZB_3std5alloc8rust_oom0B5_
	.type	_RNCNvNtCs3bNtqN8jaZB_3std5alloc8rust_oom0B5_,@function
_RNCNvNtCs3bNtqN8jaZB_3std5alloc8rust_oom0B5_: # @_RNCNvNtCs3bNtqN8jaZB_3std5alloc8rust_oom0B5_
	.cfi_startproc
# %bb.0:
	push	rax
	.cfi_def_cfa_offset 16
	call	_RNvNtCs3bNtqN8jaZB_3std5alloc24default_alloc_error_hook
	call	_RNvNtCs3bNtqN8jaZB_3std7process5abort
.Lfunc_end30:
	.size	_RNCNvNtCs3bNtqN8jaZB_3std5alloc8rust_oom0B5_, .Lfunc_end30-_RNCNvNtCs3bNtqN8jaZB_3std5alloc8rust_oom0B5_
	.cfi_endproc
                                        # -- End function
	.section	.text._RNvNtCs3bNtqN8jaZB_3std5alloc24default_alloc_error_hook,"ax",@progbits
	.type	_RNvNtCs3bNtqN8jaZB_3std5alloc24default_alloc_error_hook,@function # -- Begin function _RNvNtCs3bNtqN8jaZB_3std5alloc24default_alloc_error_hook
_RNvNtCs3bNtqN8jaZB_3std5alloc24default_alloc_error_hook: # @_RNvNtCs3bNtqN8jaZB_3std5alloc24default_alloc_error_hook
.Lfunc_begin6:
	.cfi_startproc
	.cfi_personality 155, DW.ref.rust_eh_personality
	.cfi_lsda 27, .Lexception6
# %bb.0:
	push	r14
	.cfi_def_cfa_offset 16
	push	rbx
	.cfi_def_cfa_offset 24
	sub	rsp, 40
	.cfi_def_cfa_offset 64
	.cfi_offset rbx, -24
	.cfi_offset r14, -16
	mov	al, 1
	xchg	byte ptr [rip + _RNvNvNtCs3bNtqN8jaZB_3std5alloc24default_alloc_error_hook18PREV_ALLOC_FAILURE], al
	test	al, al
	je	.LBB31_1
# %bb.8:
	lea	rax, [rsp + 16]
	mov	qword ptr [rax], rdi
	lea	rdx, [rsp + 24]
	mov	qword ptr [rdx], rax
	lea	rax, [rip + _RNvXsi_NtNtNtCsfQL5qMWGko6_4core3fmt3num3impjNtB9_7Display3fmt]
	mov	qword ptr [rdx + 8], rax
	lea	rsi, [rip + .Lanon.28cb502c8ec02091c8e32b488a8e08d8.393]
	lea	rdi, [rsp + 15]
	call	_RNvYNtNtNtNtCs3bNtqN8jaZB_3std3sys5stdio4unix6StderrNtNtBa_2io5Write9write_fmtBa_
	mov	rdi, rax
	call	_RINvNtCsfQL5qMWGko6_4core3ptr13drop_in_placeINtNtB4_6result6ResultuNtNtNtCs3bNtqN8jaZB_3std2io5error5ErrorEEB19_
	jmp	.LBB31_9
.LBB31_1:
	lea	r14, [rsp + 16]
	mov	qword ptr [r14], rdi
	lea	rdx, [rsp + 24]
	mov	qword ptr [rdx], r14
	lea	rax, [rip + _RNvXsi_NtNtNtCsfQL5qMWGko6_4core3fmt3num3impjNtB9_7Display3fmt]
	mov	qword ptr [rdx + 8], rax
	lea	rsi, [rip + .Lanon.28cb502c8ec02091c8e32b488a8e08d8.391]
	lea	rdi, [rsp + 15]
	call	_RNvYNtNtNtNtCs3bNtqN8jaZB_3std3sys5stdio4unix6StderrNtNtBa_2io5Write9write_fmtBa_
	mov	rdi, rax
	call	_RINvNtCsfQL5qMWGko6_4core3ptr13drop_in_placeINtNtB4_6result6ResultuNtNtNtCs3bNtqN8jaZB_3std2io5error5ErrorEEB19_
	call	_RNvNtNtCs3bNtqN8jaZB_3std3sys9backtrace4lock
	mov	ebx, eax
	and	bl, 1
.Ltmp68:
	call	_RNvNtCs3bNtqN8jaZB_3std5panic19get_backtrace_style
.Ltmp69:
# %bb.2:
	movzx	eax, al
	lea	rcx, [rip + .LJTI31_0]
	movsxd	rax, dword ptr [rcx + 4*rax]
	add	rax, rcx
	jmp	rax
.LBB31_4:
	mov	byte ptr [rsp + 16], 0
	lea	rdx, [rsp + 24]
	mov	qword ptr [rdx], r14
	lea	rax, [rip + _RNvXNvMNtNtCs3bNtqN8jaZB_3std3sys9backtraceNtB5_13BacktraceLock5printNtB2_16DisplayBacktraceNtNtCsfQL5qMWGko6_4core3fmt7Display3fmt]
	mov	qword ptr [rdx + 8], rax
.Ltmp74:
	lea	rsi, [rip + .Lanon.28cb502c8ec02091c8e32b488a8e08d8.164]
	lea	rdi, [rsp + 15]
	call	_RNvYNtNtNtNtCs3bNtqN8jaZB_3std3sys5stdio4unix6StderrNtNtBa_2io5Write9write_fmtBa_
.Ltmp75:
	jmp	.LBB31_5
.LBB31_7:
	mov	byte ptr [rsp + 16], 1
	lea	rdx, [rsp + 24]
	mov	qword ptr [rdx], r14
	lea	rax, [rip + _RNvXNvMNtNtCs3bNtqN8jaZB_3std3sys9backtraceNtB5_13BacktraceLock5printNtB2_16DisplayBacktraceNtNtCsfQL5qMWGko6_4core3fmt7Display3fmt]
	mov	qword ptr [rdx + 8], rax
.Ltmp72:
	lea	rsi, [rip + .Lanon.28cb502c8ec02091c8e32b488a8e08d8.164]
	lea	rdi, [rsp + 15]
	call	_RNvYNtNtNtNtCs3bNtqN8jaZB_3std3sys5stdio4unix6StderrNtNtBa_2io5Write9write_fmtBa_
.Ltmp73:
	jmp	.LBB31_5
.LBB31_3:
.Ltmp70:
	lea	rsi, [rip + .Lanon.28cb502c8ec02091c8e32b488a8e08d8.125]
	lea	rdi, [rsp + 15]
	mov	edx, 157
	call	_RNvYNtNtNtNtCs3bNtqN8jaZB_3std3sys5stdio4unix6StderrNtNtBa_2io5Write9write_fmtBa_
.Ltmp71:
.LBB31_5:
.Ltmp76:
	mov	rdi, rax
	call	_RINvNtCsfQL5qMWGko6_4core3ptr13drop_in_placeINtNtB4_6result6ResultuNtNtNtCs3bNtqN8jaZB_3std2io5error5ErrorEEB19_
.Ltmp77:
.LBB31_6:
	movzx	edi, bl
	call	_RINvNtCsfQL5qMWGko6_4core3ptr13drop_in_placeNtNtNtCs3bNtqN8jaZB_3std3sys9backtrace13BacktraceLockEBM_
.LBB31_9:
	add	rsp, 40
	.cfi_def_cfa_offset 24
	pop	rbx
	.cfi_def_cfa_offset 16
	pop	r14
	.cfi_def_cfa_offset 8
	ret
.LBB31_10:
	.cfi_def_cfa_offset 64
.Ltmp78:
	mov	r14, rax
	movzx	edi, bl
	call	_RINvNtCsfQL5qMWGko6_4core3ptr13drop_in_placeNtNtNtCs3bNtqN8jaZB_3std3sys9backtrace13BacktraceLockEBM_
	mov	rdi, r14
	call	_Unwind_Resume@PLT
.Lfunc_end31:
	.size	_RNvNtCs3bNtqN8jaZB_3std5alloc24default_alloc_error_hook, .Lfunc_end31-_RNvNtCs3bNtqN8jaZB_3std5alloc24default_alloc_error_hook
	.cfi_endproc
	.section	.rodata._RNvNtCs3bNtqN8jaZB_3std5alloc24default_alloc_error_hook,"a",@progbits
	.p2align	2, 0x0
.LJTI31_0:
	.long	.LBB31_4-.LJTI31_0
	.long	.LBB31_7-.LJTI31_0
	.long	.LBB31_3-.LJTI31_0
	.long	.LBB31_6-.LJTI31_0
	.section	.gcc_except_table._RNvNtCs3bNtqN8jaZB_3std5alloc24default_alloc_error_hook,"a",@progbits
	.p2align	2, 0x0
GCC_except_table31:
.Lexception6:
	.byte	255                             # @LPStart Encoding = omit
	.byte	255                             # @TType Encoding = omit
	.byte	1                               # Call site Encoding = uleb128
	.uleb128 .Lcst_end6-.Lcst_begin6
.Lcst_begin6:
	.uleb128 .Lfunc_begin6-.Lfunc_begin6    # >> Call Site 1 <<
	.uleb128 .Ltmp68-.Lfunc_begin6          #   Call between .Lfunc_begin6 and .Ltmp68
	.byte	0                               #     has no landing pad
	.byte	0                               #   On action: cleanup
	.uleb128 .Ltmp68-.Lfunc_begin6          # >> Call Site 2 <<
	.uleb128 .Ltmp77-.Ltmp68                #   Call between .Ltmp68 and .Ltmp77
	.uleb128 .Ltmp78-.Lfunc_begin6          #     jumps to .Ltmp78
	.byte	0                               #   On action: cleanup
	.uleb128 .Ltmp77-.Lfunc_begin6          # >> Call Site 3 <<
	.uleb128 .Lfunc_end31-.Ltmp77           #   Call between .Ltmp77 and .Lfunc_end31
	.byte	0                               #     has no landing pad
	.byte	0                               #   On action: cleanup
.Lcst_end6:
	.p2align	2, 0x0
                                        # -- End function
	.section	.text.unlikely._RNvNtCs3bNtqN8jaZB_3std7process5abort,"ax",@progbits
	.p2align	4                               # -- Begin function _RNvNtCs3bNtqN8jaZB_3std7process5abort
	.type	_RNvNtCs3bNtqN8jaZB_3std7process5abort,@function
_RNvNtCs3bNtqN8jaZB_3std7process5abort: # @_RNvNtCs3bNtqN8jaZB_3std7process5abort
	.cfi_startproc
# %bb.0:
	push	rax
	.cfi_def_cfa_offset 16
	call	_RNvNtNtNtCs3bNtqN8jaZB_3std3sys3pal4unix14abort_internal
.Lfunc_end32:
	.size	_RNvNtCs3bNtqN8jaZB_3std7process5abort, .Lfunc_end32-_RNvNtCs3bNtqN8jaZB_3std7process5abort
	.cfi_endproc
                                        # -- End function
	.section	.text.unlikely._RNvNtNtNtCs3bNtqN8jaZB_3std3sys3pal4unix14abort_internal,"ax",@progbits
	.p2align	4                               # -- Begin function _RNvNtNtNtCs3bNtqN8jaZB_3std3sys3pal4unix14abort_internal
	.type	_RNvNtNtNtCs3bNtqN8jaZB_3std3sys3pal4unix14abort_internal,@function
_RNvNtNtNtCs3bNtqN8jaZB_3std3sys3pal4unix14abort_internal: # @_RNvNtNtNtCs3bNtqN8jaZB_3std3sys3pal4unix14abort_internal
	.cfi_startproc
# %bb.0:
	push	rax
	.cfi_def_cfa_offset 16
	call	qword ptr [rip + abort@GOTPCREL]
.Lfunc_end33:
	.size	_RNvNtNtNtCs3bNtqN8jaZB_3std3sys3pal4unix14abort_internal, .Lfunc_end33-_RNvNtNtNtCs3bNtqN8jaZB_3std3sys3pal4unix14abort_internal
	.cfi_endproc
                                        # -- End function
	.section	.text._RNvXsi_NtNtNtCsfQL5qMWGko6_4core3fmt3num3impjNtB9_7Display3fmt,"ax",@progbits
	.p2align	4                               # -- Begin function _RNvXsi_NtNtNtCsfQL5qMWGko6_4core3fmt3num3impjNtB9_7Display3fmt
	.type	_RNvXsi_NtNtNtCsfQL5qMWGko6_4core3fmt3num3impjNtB9_7Display3fmt,@function
_RNvXsi_NtNtNtCsfQL5qMWGko6_4core3fmt3num3impjNtB9_7Display3fmt: # @_RNvXsi_NtNtNtCsfQL5qMWGko6_4core3fmt3num3impjNtB9_7Display3fmt
	.cfi_startproc
# %bb.0:
	sub	rsp, 24
	.cfi_def_cfa_offset 32
	mov	rcx, qword ptr [rdi]
	cmp	rcx, 999
	jbe	.LBB34_1
# %bb.7:
	movabs	rdx, 3777893186295716171
	mov	rax, rcx
	mul	rdx
	mov	rdi, rdx
	shr	rdi, 11
	imul	eax, edi, 10000
	mov	edx, ecx
	sub	edx, eax
	imul	eax, edx, 5243
	shr	eax, 19
	imul	r8d, eax, 100
	sub	edx, r8d
	lea	r9, [rip + .Lanon.d5d3fb2753c9188cafcf94e7b22ba015.156]
	movzx	edx, dx
	movzx	eax, word ptr [r9 + 2*rax]
	movd	xmm0, eax
	pinsrw	xmm0, word ptr [r9 + 2*rdx], 1
	movd	dword ptr [rsp + 20], xmm0
	cmp	rcx, 9999999
	jbe	.LBB34_8
# %bb.10:
	movabs	rdx, -6067343680855748867
	mov	rax, rcx
	mul	rdx
	mov	r8, rdx
	shr	r8, 26
	movabs	rdx, 3689348814741911
	mov	rax, rdi
	mul	rdx
	shr	edx
	imul	eax, edx, 10000
	sub	edi, eax
	imul	eax, edi, 5243
	shr	eax, 19
	imul	edx, eax, 100
	sub	edi, edx
	movzx	edx, di
	movzx	eax, word ptr [r9 + 2*rax]
	movd	xmm0, eax
	pinsrw	xmm0, word ptr [r9 + 2*rdx], 1
	movd	dword ptr [rsp + 16], xmm0
	mov	rax, rcx
	shr	rax, 11
	cmp	rax, 48828125
	jb	.LBB34_11
# %bb.12:
	movabs	rdx, 2535301200456458803
	mov	rax, rcx
	mul	rdx
	mov	rdi, rdx
	movabs	rdx, 1844674407370956
	mov	rax, r8
	mul	rdx
	imul	eax, edx, 10000
	sub	r8d, eax
	imul	eax, r8d, 5243
	shr	eax, 19
	imul	edx, eax, 100
	sub	r8d, edx
	movzx	edx, r8w
	movzx	eax, word ptr [r9 + 2*rax]
	movd	xmm0, eax
	pinsrw	xmm0, word ptr [r9 + 2*rdx], 1
	shr	rdi, 37
	movd	dword ptr [rsp + 12], xmm0
	movabs	rax, 1000000000000000
	cmp	rcx, rax
	jb	.LBB34_13
# %bb.14:
	movabs	rdx, 4153837486827862103
	mov	rax, rcx
	mul	rdx
	imul	rax, rdi, 27487791
	shr	rax, 38
	imul	eax, eax, 10000
	sub	edi, eax
	imul	eax, edi, 5243
	shr	eax, 19
	imul	r8d, eax, 100
	sub	edi, r8d
	movzx	edi, di
	movzx	eax, word ptr [r9 + 2*rax]
	movd	xmm0, eax
	pinsrw	xmm0, word ptr [r9 + 2*rdi], 1
	shr	rdx, 51
	movd	dword ptr [rsp + 8], xmm0
	movabs	rax, -8446744073709551616
	cmp	rcx, rax
	jb	.LBB34_15
# %bb.16:
	imul	eax, edx, 1311
	shr	eax, 17
	imul	edi, eax, 100
	sub	edx, edi
	movzx	edx, dx
	movzx	eax, word ptr [r9 + 2*rax]
	movd	xmm0, eax
	pinsrw	xmm0, word ptr [r9 + 2*rdx], 1
	movd	dword ptr [rsp + 4], xmm0
	xor	edi, edi
	xor	eax, eax
	jmp	.LBB34_3
.LBB34_1:
	lea	r9, [rsp + 24]
	mov	eax, 20
	mov	rdi, rcx
	cmp	rdi, 9
	ja	.LBB34_9
	jmp	.LBB34_3
.LBB34_8:
	lea	r9, [rsp + 20]
	mov	eax, 16
	cmp	rdi, 9
	ja	.LBB34_9
	jmp	.LBB34_3
.LBB34_11:
	lea	r9, [rsp + 16]
	mov	eax, 12
	mov	rdi, r8
	cmp	rdi, 9
	ja	.LBB34_9
	jmp	.LBB34_3
.LBB34_13:
	lea	r9, [rsp + 12]
	mov	eax, 8
	cmp	rdi, 9
	jbe	.LBB34_3
.LBB34_9:
	mov	edx, edi
	shr	edx, 2
	movzx	edx, dx
	imul	edx, edx, 5243
	shr	edx, 17
	imul	r8d, edx, 100
	sub	edi, r8d
	movzx	edi, di
	lea	r8, [rip + .Lanon.d5d3fb2753c9188cafcf94e7b22ba015.156]
	movzx	r10d, byte ptr [r8 + 2*rdi]
	mov	byte ptr [rsp + rax + 2], r10b
	add	rax, -2
	movzx	edi, byte ptr [r8 + 2*rdi + 1]
	mov	byte ptr [r9 - 1], dil
	mov	rdi, rdx
.LBB34_3:
	test	rcx, rcx
	je	.LBB34_5
# %bb.4:
	test	rdi, rdi
	je	.LBB34_6
.LBB34_5:
	and	edi, 15
	lea	rcx, [rip + .Lanon.d5d3fb2753c9188cafcf94e7b22ba015.156]
	movzx	ecx, byte ptr [rcx + 2*rdi + 1]
	mov	byte ptr [rsp + rax + 3], cl
	dec	rax
.LBB34_6:
	mov	r9d, 20
	sub	r9, rax
	lea	r8, [rsp + rax]
	add	r8, 4
	mov	edx, 1
	mov	rdi, rsi
	mov	esi, 1
	xor	ecx, ecx
	call	_RNvMsa_NtCsfQL5qMWGko6_4core3fmtNtB5_9Formatter12pad_integral
	add	rsp, 24
	.cfi_def_cfa_offset 8
	ret
.LBB34_15:
	.cfi_def_cfa_offset 32
	lea	r9, [rsp + 8]
	mov	eax, 4
	mov	rdi, rdx
	cmp	rdi, 9
	ja	.LBB34_9
	jmp	.LBB34_3
.Lfunc_end34:
	.size	_RNvXsi_NtNtNtCsfQL5qMWGko6_4core3fmt3num3impjNtB9_7Display3fmt, .Lfunc_end34-_RNvXsi_NtNtNtCsfQL5qMWGko6_4core3fmt3num3impjNtB9_7Display3fmt
	.cfi_endproc
                                        # -- End function
	.section	.text._RNvYNtNtNtNtCs3bNtqN8jaZB_3std3sys5stdio4unix6StderrNtNtBa_2io5Write9write_fmtBa_,"ax",@progbits
	.p2align	4                               # -- Begin function _RNvYNtNtNtNtCs3bNtqN8jaZB_3std3sys5stdio4unix6StderrNtNtBa_2io5Write9write_fmtBa_
	.type	_RNvYNtNtNtNtCs3bNtqN8jaZB_3std3sys5stdio4unix6StderrNtNtBa_2io5Write9write_fmtBa_,@function
_RNvYNtNtNtNtCs3bNtqN8jaZB_3std3sys5stdio4unix6StderrNtNtBa_2io5Write9write_fmtBa_: # @_RNvYNtNtNtNtCs3bNtqN8jaZB_3std3sys5stdio4unix6StderrNtNtBa_2io5Write9write_fmtBa_
.Lfunc_begin7:
	.cfi_startproc
	.cfi_personality 155, DW.ref.rust_eh_personality
	.cfi_lsda 27, .Lexception7
# %bb.0:
	push	r15
	.cfi_def_cfa_offset 16
	push	r14
	.cfi_def_cfa_offset 24
	push	r13
	.cfi_def_cfa_offset 32
	push	r12
	.cfi_def_cfa_offset 40
	push	rbx
	.cfi_def_cfa_offset 48
	sub	rsp, 16
	.cfi_def_cfa_offset 64
	.cfi_offset rbx, -48
	.cfi_offset r12, -40
	.cfi_offset r13, -32
	.cfi_offset r14, -24
	.cfi_offset r15, -16
	mov	rbx, rdx
	mov	r14, rsi
	test	bl, 1
	jne	.LBB35_1
# %bb.15:
	mov	qword ptr [rsp], rdi
	mov	qword ptr [rsp + 8], 0
.Ltmp79:
	lea	rsi, [rip + .Lanon.28cb502c8ec02091c8e32b488a8e08d8.55]
	mov	rdi, rsp
	mov	rdx, r14
	mov	rcx, rbx
	call	_RNvNtCsfQL5qMWGko6_4core3fmt5write
.Ltmp80:
# %bb.16:
	mov	ecx, eax
	mov	rax, qword ptr [rsp + 8]
	test	cl, cl
	je	.LBB35_19
# %bb.17:
	test	rax, rax
	jne	.LBB35_12
# %bb.18:
.Ltmp84:
	lea	rdi, [rip + .Lanon.28cb502c8ec02091c8e32b488a8e08d8.50]
	lea	rdx, [rip + .Lanon.28cb502c8ec02091c8e32b488a8e08d8.51]
	mov	esi, 173
	call	_RNvNtCsfQL5qMWGko6_4core9panicking9panic_fmt
.Ltmp85:
# %bb.29:
.LBB35_1:
	cmp	rbx, 2
	jb	.LBB35_11
# %bb.2:
	shr	rbx
	mov	r12, qword ptr [rip + write@GOTPCREL]
	lea	r15, [rip + .Lanon.28cb502c8ec02091c8e32b488a8e08d8.414]
	mov	r13, qword ptr [rip + __errno_location@GOTPCREL]
	jmp	.LBB35_3
	.p2align	4
.LBB35_6:                               #   in Loop: Header=BB35_3 Depth=1
	call	r13
	movsxd	rax, dword ptr [rax]
	cmp	rax, 4
	jne	.LBB35_7
# %bb.10:                               #   in Loop: Header=BB35_3 Depth=1
	test	rbx, rbx
	je	.LBB35_11
.LBB35_3:                               # =>This Inner Loop Header: Depth=1
	mov	edi, 2
	mov	rsi, r14
	mov	rdx, rbx
	call	r12
	cmp	rax, -1
	je	.LBB35_6
# %bb.4:                                #   in Loop: Header=BB35_3 Depth=1
	test	rax, rax
	je	.LBB35_5
# %bb.8:                                #   in Loop: Header=BB35_3 Depth=1
	mov	rcx, rbx
	sub	rcx, rax
	jb	.LBB35_31
# %bb.9:                                #   in Loop: Header=BB35_3 Depth=1
	add	r14, rax
	mov	rbx, rcx
	test	rbx, rbx
	jne	.LBB35_3
	jmp	.LBB35_11
.LBB35_19:
	mov	ecx, eax
	and	ecx, 3
	cmp	ecx, 1
	je	.LBB35_20
.LBB35_11:
	xor	eax, eax
.LBB35_12:
	add	rsp, 16
	.cfi_def_cfa_offset 48
	pop	rbx
	.cfi_def_cfa_offset 40
	pop	r12
	.cfi_def_cfa_offset 32
	pop	r13
	.cfi_def_cfa_offset 24
	pop	r14
	.cfi_def_cfa_offset 16
	pop	r15
	.cfi_def_cfa_offset 8
	ret
.LBB35_5:
	.cfi_def_cfa_offset 64
	mov	rax, r15
	jmp	.LBB35_12
.LBB35_7:
	shl	rax, 32
	or	rax, 2
	jmp	.LBB35_12
.LBB35_20:
	lea	rbx, [rax - 1]
	mov	r15, qword ptr [rax - 1]
	mov	r12, qword ptr [rax + 7]
	mov	rax, qword ptr [r12]
	test	rax, rax
	je	.LBB35_22
# %bb.21:
.Ltmp81:
	mov	rdi, r15
	call	rax
.Ltmp82:
.LBB35_22:
	cmp	qword ptr [r12 + 8], 0
	je	.LBB35_24
# %bb.23:
	mov	rdi, r15
	call	qword ptr [rip + free@GOTPCREL]
.LBB35_24:
	mov	rdi, rbx
	call	qword ptr [rip + free@GOTPCREL]
	jmp	.LBB35_11
.LBB35_31:
	lea	rcx, [rip + .Lanon.28cb502c8ec02091c8e32b488a8e08d8.944]
	mov	rdi, rax
	mov	rsi, rbx
	mov	rdx, rbx
	call	_RNvNtNtCsfQL5qMWGko6_4core5slice5index16slice_index_fail
.LBB35_25:
.Ltmp83:
	mov	r14, rax
	cmp	qword ptr [r12 + 8], 0
	je	.LBB35_27
# %bb.26:
	mov	rdi, r15
	call	qword ptr [rip + free@GOTPCREL]
.LBB35_27:
	mov	rdi, rbx
	call	qword ptr [rip + free@GOTPCREL]
	mov	rdi, r14
	call	_Unwind_Resume@PLT
.LBB35_13:
.Ltmp86:
	mov	r14, rax
	mov	rdi, qword ptr [rsp + 8]
	test	rdi, rdi
	je	.LBB35_28
# %bb.14:
.Ltmp87:
	call	_RINvNtCsfQL5qMWGko6_4core3ptr13drop_in_placeNtNtNtCs3bNtqN8jaZB_3std2io5error5ErrorEBM_
.Ltmp88:
.LBB35_28:
	mov	rdi, r14
	call	_Unwind_Resume@PLT
.LBB35_30:
.Ltmp89:
	call	_RNvNtCsfQL5qMWGko6_4core9panicking16panic_in_cleanup
.Lfunc_end35:
	.size	_RNvYNtNtNtNtCs3bNtqN8jaZB_3std3sys5stdio4unix6StderrNtNtBa_2io5Write9write_fmtBa_, .Lfunc_end35-_RNvYNtNtNtNtCs3bNtqN8jaZB_3std3sys5stdio4unix6StderrNtNtBa_2io5Write9write_fmtBa_
	.cfi_endproc
	.section	.gcc_except_table._RNvYNtNtNtNtCs3bNtqN8jaZB_3std3sys5stdio4unix6StderrNtNtBa_2io5Write9write_fmtBa_,"a",@progbits
	.p2align	2, 0x0
GCC_except_table35:
.Lexception7:
	.byte	255                             # @LPStart Encoding = omit
	.byte	155                             # @TType Encoding = indirect pcrel sdata4
	.uleb128 .Lttbase3-.Lttbaseref3
.Lttbaseref3:
	.byte	1                               # Call site Encoding = uleb128
	.uleb128 .Lcst_end7-.Lcst_begin7
.Lcst_begin7:
	.uleb128 .Ltmp79-.Lfunc_begin7          # >> Call Site 1 <<
	.uleb128 .Ltmp85-.Ltmp79                #   Call between .Ltmp79 and .Ltmp85
	.uleb128 .Ltmp86-.Lfunc_begin7          #     jumps to .Ltmp86
	.byte	0                               #   On action: cleanup
	.uleb128 .Ltmp85-.Lfunc_begin7          # >> Call Site 2 <<
	.uleb128 .Ltmp81-.Ltmp85                #   Call between .Ltmp85 and .Ltmp81
	.byte	0                               #     has no landing pad
	.byte	0                               #   On action: cleanup
	.uleb128 .Ltmp81-.Lfunc_begin7          # >> Call Site 3 <<
	.uleb128 .Ltmp82-.Ltmp81                #   Call between .Ltmp81 and .Ltmp82
	.uleb128 .Ltmp83-.Lfunc_begin7          #     jumps to .Ltmp83
	.byte	0                               #   On action: cleanup
	.uleb128 .Ltmp82-.Lfunc_begin7          # >> Call Site 4 <<
	.uleb128 .Ltmp87-.Ltmp82                #   Call between .Ltmp82 and .Ltmp87
	.byte	0                               #     has no landing pad
	.byte	0                               #   On action: cleanup
	.uleb128 .Ltmp87-.Lfunc_begin7          # >> Call Site 5 <<
	.uleb128 .Ltmp88-.Ltmp87                #   Call between .Ltmp87 and .Ltmp88
	.uleb128 .Ltmp89-.Lfunc_begin7          #     jumps to .Ltmp89
	.byte	1                               #   On action: 1
	.uleb128 .Ltmp88-.Lfunc_begin7          # >> Call Site 6 <<
	.uleb128 .Lfunc_end35-.Ltmp88           #   Call between .Ltmp88 and .Lfunc_end35
	.byte	0                               #     has no landing pad
	.byte	0                               #   On action: cleanup
.Lcst_end7:
	.byte	127                             # >> Action Record 1 <<
                                        #   Filter TypeInfo -1
	.byte	0                               #   No further actions
	.p2align	2, 0x0
.Lttbase3:
                                        # >> Filter TypeInfos <<
	.byte	0
	.p2align	2, 0x0
                                        # -- End function
	.section	.text._RINvNtCsfQL5qMWGko6_4core3ptr13drop_in_placeINtNtB4_6result6ResultuNtNtNtCs3bNtqN8jaZB_3std2io5error5ErrorEEB19_,"ax",@progbits
	.p2align	4                               # -- Begin function _RINvNtCsfQL5qMWGko6_4core3ptr13drop_in_placeINtNtB4_6result6ResultuNtNtNtCs3bNtqN8jaZB_3std2io5error5ErrorEEB19_
	.type	_RINvNtCsfQL5qMWGko6_4core3ptr13drop_in_placeINtNtB4_6result6ResultuNtNtNtCs3bNtqN8jaZB_3std2io5error5ErrorEEB19_,@function
_RINvNtCsfQL5qMWGko6_4core3ptr13drop_in_placeINtNtB4_6result6ResultuNtNtNtCs3bNtqN8jaZB_3std2io5error5ErrorEEB19_: # @_RINvNtCsfQL5qMWGko6_4core3ptr13drop_in_placeINtNtB4_6result6ResultuNtNtNtCs3bNtqN8jaZB_3std2io5error5ErrorEEB19_
.Lfunc_begin8:
	.cfi_startproc
	.cfi_personality 155, DW.ref.rust_eh_personality
	.cfi_lsda 27, .Lexception8
# %bb.0:
	push	r15
	.cfi_def_cfa_offset 16
	push	r14
	.cfi_def_cfa_offset 24
	push	r12
	.cfi_def_cfa_offset 32
	push	rbx
	.cfi_def_cfa_offset 40
	push	rax
	.cfi_def_cfa_offset 48
	.cfi_offset rbx, -40
	.cfi_offset r12, -32
	.cfi_offset r14, -24
	.cfi_offset r15, -16
	mov	eax, edi
	and	eax, 3
	cmp	eax, 1
	je	.LBB36_1
# %bb.9:
	add	rsp, 8
	.cfi_def_cfa_offset 40
	pop	rbx
	.cfi_def_cfa_offset 32
	pop	r12
	.cfi_def_cfa_offset 24
	pop	r14
	.cfi_def_cfa_offset 16
	pop	r15
	.cfi_def_cfa_offset 8
	ret
.LBB36_1:
	.cfi_def_cfa_offset 48
	lea	rbx, [rdi - 1]
	mov	r14, qword ptr [rdi - 1]
	mov	r12, qword ptr [rdi + 7]
	mov	rax, qword ptr [r12]
	test	rax, rax
	je	.LBB36_3
# %bb.2:
.Ltmp90:
	mov	rdi, r14
	call	rax
.Ltmp91:
.LBB36_3:
	cmp	qword ptr [r12 + 8], 0
	je	.LBB36_5
# %bb.4:
	mov	rdi, r14
	call	qword ptr [rip + free@GOTPCREL]
.LBB36_5:
	mov	rdi, rbx
	add	rsp, 8
	.cfi_def_cfa_offset 40
	pop	rbx
	.cfi_def_cfa_offset 32
	pop	r12
	.cfi_def_cfa_offset 24
	pop	r14
	.cfi_def_cfa_offset 16
	pop	r15
	.cfi_def_cfa_offset 8
	jmp	qword ptr [rip + free@GOTPCREL] # TAILCALL
.LBB36_6:
	.cfi_def_cfa_offset 48
.Ltmp92:
	mov	r15, rax
	cmp	qword ptr [r12 + 8], 0
	je	.LBB36_8
# %bb.7:
	mov	rdi, r14
	call	qword ptr [rip + free@GOTPCREL]
.LBB36_8:
	mov	rdi, rbx
	call	qword ptr [rip + free@GOTPCREL]
	mov	rdi, r15
	call	_Unwind_Resume@PLT
.Lfunc_end36:
	.size	_RINvNtCsfQL5qMWGko6_4core3ptr13drop_in_placeINtNtB4_6result6ResultuNtNtNtCs3bNtqN8jaZB_3std2io5error5ErrorEEB19_, .Lfunc_end36-_RINvNtCsfQL5qMWGko6_4core3ptr13drop_in_placeINtNtB4_6result6ResultuNtNtNtCs3bNtqN8jaZB_3std2io5error5ErrorEEB19_
	.cfi_endproc
	.section	.gcc_except_table._RINvNtCsfQL5qMWGko6_4core3ptr13drop_in_placeINtNtB4_6result6ResultuNtNtNtCs3bNtqN8jaZB_3std2io5error5ErrorEEB19_,"a",@progbits
	.p2align	2, 0x0
GCC_except_table36:
.Lexception8:
	.byte	255                             # @LPStart Encoding = omit
	.byte	255                             # @TType Encoding = omit
	.byte	1                               # Call site Encoding = uleb128
	.uleb128 .Lcst_end8-.Lcst_begin8
.Lcst_begin8:
	.uleb128 .Ltmp90-.Lfunc_begin8          # >> Call Site 1 <<
	.uleb128 .Ltmp91-.Ltmp90                #   Call between .Ltmp90 and .Ltmp91
	.uleb128 .Ltmp92-.Lfunc_begin8          #     jumps to .Ltmp92
	.byte	0                               #   On action: cleanup
	.uleb128 .Ltmp91-.Lfunc_begin8          # >> Call Site 2 <<
	.uleb128 .Lfunc_end36-.Ltmp91           #   Call between .Ltmp91 and .Lfunc_end36
	.byte	0                               #     has no landing pad
	.byte	0                               #   On action: cleanup
.Lcst_end8:
	.p2align	2, 0x0
                                        # -- End function
	.section	.text._RNvNtNtCs3bNtqN8jaZB_3std3sys9backtrace4lock,"ax",@progbits
	.p2align	4                               # -- Begin function _RNvNtNtCs3bNtqN8jaZB_3std3sys9backtrace4lock
	.type	_RNvNtNtCs3bNtqN8jaZB_3std3sys9backtrace4lock,@function
_RNvNtNtCs3bNtqN8jaZB_3std3sys9backtrace4lock: # @_RNvNtNtCs3bNtqN8jaZB_3std3sys9backtrace4lock
	.cfi_startproc
# %bb.0:
	push	rax
	.cfi_def_cfa_offset 16
	mov	ecx, 1
	xor	eax, eax
	lock		cmpxchg	dword ptr [rip + _RNvNvNtNtCs3bNtqN8jaZB_3std3sys9backtrace4lock4LOCK], ecx
	jne	.LBB37_1
# %bb.2:
	mov	rax, qword ptr [rip + _RNvNtNtCs3bNtqN8jaZB_3std9panicking11panic_count18GLOBAL_PANIC_COUNT]
	shl	rax
	test	rax, rax
	jne	.LBB37_4
.LBB37_3:
	xor	eax, eax
	movzx	ecx, byte ptr [rip + _RNvNvNtNtCs3bNtqN8jaZB_3std3sys9backtrace4lock4LOCK+4]
                                        # kill: def $al killed $al killed $eax
	pop	rcx
	.cfi_def_cfa_offset 8
	ret
.LBB37_1:
	.cfi_def_cfa_offset 16
	lea	rdi, [rip + _RNvNvNtNtCs3bNtqN8jaZB_3std3sys9backtrace4lock4LOCK]
	call	_RNvMNtNtNtNtCs3bNtqN8jaZB_3std3sys4sync5mutex5futexNtB2_5Mutex14lock_contended
	mov	rax, qword ptr [rip + _RNvNtNtCs3bNtqN8jaZB_3std9panicking11panic_count18GLOBAL_PANIC_COUNT]
	shl	rax
	test	rax, rax
	je	.LBB37_3
.LBB37_4:
	call	_RNvNtNtCs3bNtqN8jaZB_3std9panicking11panic_count17is_zero_slow_path
                                        # kill: def $al killed $al def $eax
	xor	al, 1
	movzx	ecx, byte ptr [rip + _RNvNvNtNtCs3bNtqN8jaZB_3std3sys9backtrace4lock4LOCK+4]
                                        # kill: def $al killed $al killed $eax
	pop	rcx
	.cfi_def_cfa_offset 8
	ret
.Lfunc_end37:
	.size	_RNvNtNtCs3bNtqN8jaZB_3std3sys9backtrace4lock, .Lfunc_end37-_RNvNtNtCs3bNtqN8jaZB_3std3sys9backtrace4lock
	.cfi_endproc
                                        # -- End function
	.section	.text._RNvNtCs3bNtqN8jaZB_3std5panic19get_backtrace_style,"ax",@progbits
	.p2align	4                               # -- Begin function _RNvNtCs3bNtqN8jaZB_3std5panic19get_backtrace_style
	.type	_RNvNtCs3bNtqN8jaZB_3std5panic19get_backtrace_style,@function
_RNvNtCs3bNtqN8jaZB_3std5panic19get_backtrace_style: # @_RNvNtCs3bNtqN8jaZB_3std5panic19get_backtrace_style
.Lfunc_begin9:
	.cfi_startproc
	.cfi_personality 155, DW.ref.rust_eh_personality
	.cfi_lsda 27, .Lexception9
# %bb.0:
	push	rbp
	.cfi_def_cfa_offset 16
	push	r15
	.cfi_def_cfa_offset 24
	push	r14
	.cfi_def_cfa_offset 32
	push	r13
	.cfi_def_cfa_offset 40
	push	r12
	.cfi_def_cfa_offset 48
	push	rbx
	.cfi_def_cfa_offset 56
	sub	rsp, 392
	.cfi_def_cfa_offset 448
	.cfi_offset rbx, -56
	.cfi_offset r12, -48
	.cfi_offset r13, -40
	.cfi_offset r14, -32
	.cfi_offset r15, -24
	.cfi_offset rbp, -16
	movzx	ebp, byte ptr [rip + _RNvNtCs3bNtqN8jaZB_3std5panic14SHOULD_CAPTURE]
	dec	bpl
	cmp	bpl, 3
	jb	.LBB38_34
# %bb.1:
	movabs	rax, 4990904633913983809
	mov	qword ptr [rsp + 14], rax
	movabs	rax, 4846227651231438162
	mov	qword ptr [rsp + 8], rax
	mov	byte ptr [rsp + 22], 0
	mov	eax, dword ptr [rip + _RNvNtNtNtCs3bNtqN8jaZB_3std3sys3env4unix8ENV_LOCK]
	cmp	eax, 1073741822
	jae	.LBB38_2
# %bb.3:
	lea	ecx, [rax + 1]
                                        # kill: def $eax killed $eax killed $rax
	lock		cmpxchg	dword ptr [rip + _RNvNtNtNtCs3bNtqN8jaZB_3std3sys3env4unix8ENV_LOCK], ecx
	jne	.LBB38_2
.LBB38_4:
	movabs	r12, -9223372036854775808
	movzx	eax, byte ptr [rip + _RNvNtNtNtCs3bNtqN8jaZB_3std3sys3env4unix8ENV_LOCK+8]
	lea	rdi, [rsp + 8]
	call	qword ptr [rip + getenv@GOTPCREL]
	test	rax, rax
	je	.LBB38_5
# %bb.11:
	mov	r15, rax
	mov	rdi, rax
	call	qword ptr [rip + strlen@GOTPCREL]
	mov	r14, rax
	test	rax, rax
	je	.LBB38_12
# %bb.13:
	mov	rdi, r14
	call	qword ptr [rip + malloc@GOTPCREL]
	test	rax, rax
	je	.LBB38_16
# %bb.14:
	mov	rbx, rax
	jmp	.LBB38_15
.LBB38_5:
                                        # implicit-def: $rbx
	mov	r14, r12
	jmp	.LBB38_6
.LBB38_12:
	mov	ebx, 1
.LBB38_15:
	mov	rdi, rbx
	mov	rsi, r15
	mov	rdx, r14
	call	qword ptr [rip + memcpy@GOTPCREL]
.LBB38_6:
	mov	esi, -1
	lock		xadd	dword ptr [rip + _RNvNtNtNtCs3bNtqN8jaZB_3std3sys3env4unix8ENV_LOCK], esi
	dec	esi
	mov	eax, esi
	and	eax, -1073741825
	neg	eax
	jo	.LBB38_7
# %bb.8:
	lea	rax, [r12 + 1]
	cmp	r14, rax
	jne	.LBB38_28
.LBB38_9:
	mov	eax, ebx
	and	eax, 3
	cmp	eax, 1
	jne	.LBB38_10
# %bb.21:
	lea	r14, [rbx - 1]
	mov	r15, qword ptr [rbx - 1]
	mov	r13, qword ptr [rbx + 7]
	mov	rax, qword ptr [r13]
	test	rax, rax
	je	.LBB38_23
# %bb.22:
.Ltmp99:
	mov	rdi, r15
	call	rax
.Ltmp100:
.LBB38_23:
	mov	r12b, 3
	mov	bpl, 2
	cmp	qword ptr [r13 + 8], 0
	je	.LBB38_40
# %bb.24:
	mov	rdi, r15
	call	qword ptr [rip + free@GOTPCREL]
	jmp	.LBB38_40
.LBB38_2:
	lea	rdi, [rip + _RNvNtNtNtCs3bNtqN8jaZB_3std3sys3env4unix8ENV_LOCK]
	call	_RNvMNtNtNtNtCs3bNtqN8jaZB_3std3sys4sync6rwlock5futexNtB2_6RwLock14read_contended
	jmp	.LBB38_4
.LBB38_7:
	lea	rdi, [rip + _RNvNtNtNtCs3bNtqN8jaZB_3std3sys3env4unix8ENV_LOCK]
	call	_RNvMNtNtNtNtCs3bNtqN8jaZB_3std3sys4sync6rwlock5futexNtB2_6RwLock22wake_writer_or_readers
	lea	rax, [r12 + 1]
	cmp	r14, rax
	je	.LBB38_9
.LBB38_28:
	cmp	r14, r12
	jne	.LBB38_29
.LBB38_10:
	mov	r12b, 3
	mov	bpl, 2
	jmp	.LBB38_41
.LBB38_29:
	cmp	r14, 4
	je	.LBB38_35
# %bb.30:
	cmp	r14, 1
	jne	.LBB38_37
# %bb.31:
	cmp	byte ptr [rbx], 48
	jne	.LBB38_37
# %bb.32:
	mov	r12b, 3
	mov	bpl, 2
	test	r14, r14
	jne	.LBB38_39
	jmp	.LBB38_41
.LBB38_35:
	cmp	dword ptr [rbx], 1819047270
	je	.LBB38_36
.LBB38_37:
	mov	r12b, 1
	xor	ebp, ebp
	test	r14, r14
	je	.LBB38_41
.LBB38_39:
	mov	r14, rbx
.LBB38_40:
	mov	rdi, r14
	call	qword ptr [rip + free@GOTPCREL]
.LBB38_41:
	xor	eax, eax
	lock		cmpxchg	byte ptr [rip + _RNvNtCs3bNtqN8jaZB_3std5panic14SHOULD_CAPTURE], r12b
	je	.LBB38_34
# %bb.42:
	mov	bpl, 3
	cmp	al, 4
	jae	.LBB38_34
# %bb.33:
	shl	al, 3
	mov	ebp, 33619971
	mov	ecx, eax
	shr	ebp, cl
.LBB38_34:
	mov	eax, ebp
	add	rsp, 392
	.cfi_def_cfa_offset 56
	pop	rbx
	.cfi_def_cfa_offset 48
	pop	r12
	.cfi_def_cfa_offset 40
	pop	r13
	.cfi_def_cfa_offset 32
	pop	r14
	.cfi_def_cfa_offset 24
	pop	r15
	.cfi_def_cfa_offset 16
	pop	rbp
	.cfi_def_cfa_offset 8
	ret
.LBB38_36:
	.cfi_def_cfa_offset 448
	mov	r12b, 2
	mov	bpl, 1
	test	r14, r14
	jne	.LBB38_39
	jmp	.LBB38_41
.LBB38_16:
.Ltmp93:
	mov	rdi, r14
	call	_RNvNtCs78A21jy8lRn_5alloc5alloc18handle_alloc_error
.Ltmp94:
# %bb.17:
.LBB38_25:
.Ltmp101:
	mov	rbx, rax
	cmp	qword ptr [r13 + 8], 0
	je	.LBB38_27
# %bb.26:
	mov	rdi, r15
	call	qword ptr [rip + free@GOTPCREL]
.LBB38_27:
	mov	rdi, r14
	call	qword ptr [rip + free@GOTPCREL]
	mov	rdi, rbx
	call	_Unwind_Resume@PLT
.LBB38_18:
.Ltmp95:
	mov	rbx, rax
	mov	esi, -1
	lock		xadd	dword ptr [rip + _RNvNtNtNtCs3bNtqN8jaZB_3std3sys3env4unix8ENV_LOCK], esi
	dec	esi
	mov	eax, esi
	and	eax, -1073741825
	neg	eax
	jo	.LBB38_19
.LBB38_20:
	mov	rdi, rbx
	call	_Unwind_Resume@PLT
.LBB38_19:
.Ltmp96:
	lea	rdi, [rip + _RNvNtNtNtCs3bNtqN8jaZB_3std3sys3env4unix8ENV_LOCK]
	call	_RNvMNtNtNtNtCs3bNtqN8jaZB_3std3sys4sync6rwlock5futexNtB2_6RwLock22wake_writer_or_readers
.Ltmp97:
	jmp	.LBB38_20
.LBB38_43:
.Ltmp98:
	call	_RNvNtCsfQL5qMWGko6_4core9panicking16panic_in_cleanup
.Lfunc_end38:
	.size	_RNvNtCs3bNtqN8jaZB_3std5panic19get_backtrace_style, .Lfunc_end38-_RNvNtCs3bNtqN8jaZB_3std5panic19get_backtrace_style
	.cfi_endproc
	.section	.gcc_except_table._RNvNtCs3bNtqN8jaZB_3std5panic19get_backtrace_style,"a",@progbits
	.p2align	2, 0x0
GCC_except_table38:
.Lexception9:
	.byte	255                             # @LPStart Encoding = omit
	.byte	155                             # @TType Encoding = indirect pcrel sdata4
	.uleb128 .Lttbase4-.Lttbaseref4
.Lttbaseref4:
	.byte	1                               # Call site Encoding = uleb128
	.uleb128 .Lcst_end9-.Lcst_begin9
.Lcst_begin9:
	.uleb128 .Lfunc_begin9-.Lfunc_begin9    # >> Call Site 1 <<
	.uleb128 .Ltmp99-.Lfunc_begin9          #   Call between .Lfunc_begin9 and .Ltmp99
	.byte	0                               #     has no landing pad
	.byte	0                               #   On action: cleanup
	.uleb128 .Ltmp99-.Lfunc_begin9          # >> Call Site 2 <<
	.uleb128 .Ltmp100-.Ltmp99               #   Call between .Ltmp99 and .Ltmp100
	.uleb128 .Ltmp101-.Lfunc_begin9         #     jumps to .Ltmp101
	.byte	0                               #   On action: cleanup
	.uleb128 .Ltmp100-.Lfunc_begin9         # >> Call Site 3 <<
	.uleb128 .Ltmp93-.Ltmp100               #   Call between .Ltmp100 and .Ltmp93
	.byte	0                               #     has no landing pad
	.byte	0                               #   On action: cleanup
	.uleb128 .Ltmp93-.Lfunc_begin9          # >> Call Site 4 <<
	.uleb128 .Ltmp94-.Ltmp93                #   Call between .Ltmp93 and .Ltmp94
	.uleb128 .Ltmp95-.Lfunc_begin9          #     jumps to .Ltmp95
	.byte	0                               #   On action: cleanup
	.uleb128 .Ltmp94-.Lfunc_begin9          # >> Call Site 5 <<
	.uleb128 .Ltmp96-.Ltmp94                #   Call between .Ltmp94 and .Ltmp96
	.byte	0                               #     has no landing pad
	.byte	0                               #   On action: cleanup
	.uleb128 .Ltmp96-.Lfunc_begin9          # >> Call Site 6 <<
	.uleb128 .Ltmp97-.Ltmp96                #   Call between .Ltmp96 and .Ltmp97
	.uleb128 .Ltmp98-.Lfunc_begin9          #     jumps to .Ltmp98
	.byte	1                               #   On action: 1
.Lcst_end9:
	.byte	127                             # >> Action Record 1 <<
                                        #   Filter TypeInfo -1
	.byte	0                               #   No further actions
	.p2align	2, 0x0
.Lttbase4:
                                        # >> Filter TypeInfos <<
	.byte	0
	.p2align	2, 0x0
                                        # -- End function
	.section	.text._RINvNtCsfQL5qMWGko6_4core3ptr13drop_in_placeNtNtNtCs3bNtqN8jaZB_3std3sys9backtrace13BacktraceLockEBM_,"ax",@progbits
	.p2align	4                               # -- Begin function _RINvNtCsfQL5qMWGko6_4core3ptr13drop_in_placeNtNtNtCs3bNtqN8jaZB_3std3sys9backtrace13BacktraceLockEBM_
	.type	_RINvNtCsfQL5qMWGko6_4core3ptr13drop_in_placeNtNtNtCs3bNtqN8jaZB_3std3sys9backtrace13BacktraceLockEBM_,@function
_RINvNtCsfQL5qMWGko6_4core3ptr13drop_in_placeNtNtNtCs3bNtqN8jaZB_3std3sys9backtrace13BacktraceLockEBM_: # @_RINvNtCsfQL5qMWGko6_4core3ptr13drop_in_placeNtNtNtCs3bNtqN8jaZB_3std3sys9backtrace13BacktraceLockEBM_
	.cfi_startproc
# %bb.0:
	push	rax
	.cfi_def_cfa_offset 16
	test	dil, 1
	jne	.LBB39_4
# %bb.1:
	mov	rax, qword ptr [rip + _RNvNtNtCs3bNtqN8jaZB_3std9panicking11panic_count18GLOBAL_PANIC_COUNT]
	shl	rax
	test	rax, rax
	jne	.LBB39_2
.LBB39_4:
	xor	eax, eax
	xchg	dword ptr [rip + _RNvNvNtNtCs3bNtqN8jaZB_3std3sys9backtrace4lock4LOCK], eax
	cmp	eax, 2
	je	.LBB39_6
# %bb.5:
	pop	rax
	.cfi_def_cfa_offset 8
	ret
.LBB39_6:
	.cfi_def_cfa_offset 16
	lea	rsi, [rip + _RNvNvNtNtCs3bNtqN8jaZB_3std3sys9backtrace4lock4LOCK]
	mov	edi, 202
	mov	edx, 129
	mov	ecx, 1
	xor	eax, eax
	pop	r8
	.cfi_def_cfa_offset 8
	jmp	qword ptr [rip + syscall@GOTPCREL] # TAILCALL
.LBB39_2:
	.cfi_def_cfa_offset 16
	call	_RNvNtNtCs3bNtqN8jaZB_3std9panicking11panic_count17is_zero_slow_path
	test	al, al
	jne	.LBB39_4
# %bb.3:
	mov	byte ptr [rip + _RNvNvNtNtCs3bNtqN8jaZB_3std3sys9backtrace4lock4LOCK+4], 1
	jmp	.LBB39_4
.Lfunc_end39:
	.size	_RINvNtCsfQL5qMWGko6_4core3ptr13drop_in_placeNtNtNtCs3bNtqN8jaZB_3std3sys9backtrace13BacktraceLockEBM_, .Lfunc_end39-_RINvNtCsfQL5qMWGko6_4core3ptr13drop_in_placeNtNtNtCs3bNtqN8jaZB_3std3sys9backtrace13BacktraceLockEBM_
	.cfi_endproc
                                        # -- End function
	.section	.text._RNvXNvMNtNtCs3bNtqN8jaZB_3std3sys9backtraceNtB5_13BacktraceLock5printNtB2_16DisplayBacktraceNtNtCsfQL5qMWGko6_4core3fmt7Display3fmt,"ax",@progbits
	.p2align	4                               # -- Begin function _RNvXNvMNtNtCs3bNtqN8jaZB_3std3sys9backtraceNtB5_13BacktraceLock5printNtB2_16DisplayBacktraceNtNtCsfQL5qMWGko6_4core3fmt7Display3fmt
	.type	_RNvXNvMNtNtCs3bNtqN8jaZB_3std3sys9backtraceNtB5_13BacktraceLock5printNtB2_16DisplayBacktraceNtNtCsfQL5qMWGko6_4core3fmt7Display3fmt,@function
_RNvXNvMNtNtCs3bNtqN8jaZB_3std3sys9backtraceNtB5_13BacktraceLock5printNtB2_16DisplayBacktraceNtNtCsfQL5qMWGko6_4core3fmt7Display3fmt: # @_RNvXNvMNtNtCs3bNtqN8jaZB_3std3sys9backtraceNtB5_13BacktraceLock5printNtB2_16DisplayBacktraceNtNtCsfQL5qMWGko6_4core3fmt7Display3fmt
.Lfunc_begin10:
	.cfi_startproc
	.cfi_personality 155, DW.ref.rust_eh_personality
	.cfi_lsda 27, .Lexception10
# %bb.0:
	push	rbp
	.cfi_def_cfa_offset 16
	push	r15
	.cfi_def_cfa_offset 24
	push	r14
	.cfi_def_cfa_offset 32
	push	r13
	.cfi_def_cfa_offset 40
	push	r12
	.cfi_def_cfa_offset 48
	push	rbx
	.cfi_def_cfa_offset 56
	sub	rsp, 184
	.cfi_def_cfa_offset 240
	.cfi_offset rbx, -56
	.cfi_offset r12, -48
	.cfi_offset r13, -40
	.cfi_offset r14, -32
	.cfi_offset r15, -24
	.cfi_offset rbp, -16
	mov	qword ptr [rsp + 104], rsi      # 8-byte Spill
	movzx	eax, byte ptr [rdi]
	mov	byte ptr [rsp + 11], al         # 1-byte Spill
	mov	byte ptr [rsp + 13], al
	mov	r15d, 512
	mov	edi, 512
	call	qword ptr [rip + malloc@GOTPCREL]
	test	rax, rax
	je	.LBB40_34
# %bb.1:
	mov	r12, rax
	mov	qword ptr [rsp + 48], 512
	mov	qword ptr [rsp + 56], rax
	mov	rbp, qword ptr [rip + getcwd@GOTPCREL]
	mov	rbx, qword ptr [rip + __errno_location@GOTPCREL]
	lea	r14, [rsp + 48]
	.p2align	4
.LBB40_2:                               # =>This Inner Loop Header: Depth=1
	mov	rdi, r12
	mov	rsi, r15
	call	rbp
	test	rax, rax
	jne	.LBB40_6
# %bb.3:                                #   in Loop: Header=BB40_2 Depth=1
	call	rbx
	movsxd	r13, dword ptr [rax]
	cmp	r13, 34
	jne	.LBB40_12
# %bb.4:                                #   in Loop: Header=BB40_2 Depth=1
	mov	qword ptr [rsp + 64], r15
.Ltmp113:
	mov	edx, 1
	mov	ecx, 1
	mov	r8d, 1
	mov	rdi, r14
	mov	rsi, r15
	call	_RINvNvMs2_NtCs78A21jy8lRn_5alloc7raw_vecINtB8_11RawVecInnerpE7reserve21do_reserve_and_handleNtNtBa_5alloc6GlobalECs3bNtqN8jaZB_3std
.Ltmp114:
# %bb.5:                                #   in Loop: Header=BB40_2 Depth=1
	mov	r15, qword ptr [rsp + 48]
	mov	r12, qword ptr [rsp + 56]
	jmp	.LBB40_2
.LBB40_6:
	mov	rdi, r12
	call	qword ptr [rip + strlen@GOTPCREL]
	mov	rbp, rax
	cmp	r15, rax
	jbe	.LBB40_20
# %bb.7:
	test	rbp, rbp
	movabs	rbx, -9223372036854775808
	je	.LBB40_21
# %bb.8:
	mov	rdi, r12
	mov	rsi, rbp
	call	qword ptr [rip + realloc@GOTPCREL]
	mov	r13, rax
	mov	r15, rbp
	test	rax, rax
	je	.LBB40_35
# %bb.9:
	cmp	r15, rbx
	movzx	r12d, byte ptr [rsp + 11]       # 1-byte Folded Reload
	jne	.LBB40_23
	jmp	.LBB40_10
.LBB40_12:
	shl	r13, 32
	or	r13, 2
	test	r15, r15
	je	.LBB40_14
# %bb.13:
	mov	rdi, r12
	call	qword ptr [rip + free@GOTPCREL]
.LBB40_14:
	movzx	r12d, byte ptr [rsp + 11]       # 1-byte Folded Reload
	movabs	rbx, -9223372036854775808
	mov	eax, r13d
	and	eax, 3
	cmp	eax, 1
	jne	.LBB40_11
.LBB40_15:
	lea	r15, [r13 - 1]
	mov	r12, qword ptr [r13 - 1]
	mov	r13, qword ptr [r13 + 7]
	mov	rax, qword ptr [r13]
	test	rax, rax
	je	.LBB40_17
# %bb.16:
.Ltmp105:
	mov	rdi, r12
	call	rax
.Ltmp106:
.LBB40_17:
	cmp	qword ptr [r13 + 8], 0
	je	.LBB40_19
# %bb.18:
	mov	rdi, r12
	call	qword ptr [rip + free@GOTPCREL]
.LBB40_19:
	mov	rdi, r15
	call	qword ptr [rip + free@GOTPCREL]
                                        # implicit-def: $r13
                                        # implicit-def: $rbp
	mov	r15, rbx
	jmp	.LBB40_22
.LBB40_20:
	mov	r13, r12
	movabs	rbx, -9223372036854775808
	cmp	r15, rbx
	movzx	r12d, byte ptr [rsp + 11]       # 1-byte Folded Reload
	jne	.LBB40_23
.LBB40_10:
	mov	eax, r13d
	and	eax, 3
	cmp	eax, 1
	je	.LBB40_15
.LBB40_11:
                                        # implicit-def: $r13
                                        # implicit-def: $rbp
	mov	r15, rbx
	jmp	.LBB40_23
.LBB40_21:
	mov	rdi, r12
	call	qword ptr [rip + free@GOTPCREL]
	mov	r13d, 1
	xor	ebp, ebp
	xor	r15d, r15d
.LBB40_22:
	movzx	r12d, byte ptr [rsp + 11]       # 1-byte Folded Reload
.LBB40_23:
	mov	byte ptr [rsp + 40], r12b
	mov	qword ptr [rsp + 16], r15
	mov	qword ptr [rsp + 24], r13
	mov	qword ptr [rsp + 32], rbp
	mov	rbx, qword ptr [rsp + 104]      # 8-byte Reload
	mov	rdi, qword ptr [rbx]
	mov	rax, qword ptr [rbx + 8]
.Ltmp108:
	lea	rsi, [rip + .Lanon.28cb502c8ec02091c8e32b488a8e08d8.420]
	mov	edx, 17
	call	qword ptr [rax + 24]
.Ltmp109:
# %bb.24:
	test	al, al
	jne	.LBB40_27
# %bb.25:
	mov	qword ptr [rsp + 144], rbx
	mov	qword ptr [rsp + 168], 0
	mov	byte ptr [rsp + 176], r12b
	lea	rax, [rsp + 16]
	mov	qword ptr [rsp + 152], rax
	lea	rax, [rip + .Lanon.28cb502c8ec02091c8e32b488a8e08d8.421]
	mov	qword ptr [rsp + 160], rax
	mov	qword ptr [rsp + 112], 0
	mov	byte ptr [rsp + 12], 0
	mov	qword ptr [rsp + 120], 0
	mov	byte ptr [rsp + 14], 1
	mov	byte ptr [rsp + 15], r12b
	lea	rax, [rsp + 13]
	mov	qword ptr [rsp + 48], rax
	lea	rax, [rsp + 112]
	mov	qword ptr [rsp + 56], rax
	lea	rax, [rsp + 12]
	mov	qword ptr [rsp + 64], rax
	lea	rax, [rsp + 144]
	mov	qword ptr [rsp + 72], rax
	lea	rax, [rsp + 15]
	mov	qword ptr [rsp + 80], rax
	lea	rax, [rsp + 120]
	mov	qword ptr [rsp + 88], rax
	lea	rax, [rsp + 14]
	mov	qword ptr [rsp + 96], rax
	mov	qword ptr [rsp + 128], r14
	lea	rax, [rip + .Lanon.28cb502c8ec02091c8e32b488a8e08d8.422]
	mov	qword ptr [rsp + 136], rax
	lea	rdi, [rip + _RNvNvNtNtNtCs3bNtqN8jaZB_3std12backtrace_rs9backtrace9libunwind5trace8trace_fn]
	lea	rsi, [rsp + 128]
	call	qword ptr [rip + _Unwind_Backtrace@GOTPCREL]
	cmp	byte ptr [rsp + 12], 0
	je	.LBB40_30
.LBB40_26:
	mov	r15, qword ptr [rsp + 16]
.LBB40_27:
	mov	bl, 1
	shl	r15
	mov	al, 1
	test	r15, r15
	je	.LBB40_29
.LBB40_28:
	mov	rdi, qword ptr [rsp + 24]
	call	qword ptr [rip + free@GOTPCREL]
	mov	eax, ebx
.LBB40_29:
                                        # kill: def $al killed $al killed $eax
	add	rsp, 184
	.cfi_def_cfa_offset 56
	pop	rbx
	.cfi_def_cfa_offset 48
	pop	r12
	.cfi_def_cfa_offset 40
	pop	r13
	.cfi_def_cfa_offset 32
	pop	r14
	.cfi_def_cfa_offset 24
	pop	r15
	.cfi_def_cfa_offset 16
	pop	rbp
	.cfi_def_cfa_offset 8
	ret
.LBB40_30:
	.cfi_def_cfa_offset 240
	test	r12b, r12b
	jne	.LBB40_33
# %bb.31:
	mov	rdi, qword ptr [rbx]
	mov	rax, qword ptr [rbx + 8]
.Ltmp110:
	lea	rsi, [rip + .Lanon.28cb502c8ec02091c8e32b488a8e08d8.423]
	mov	edx, 88
	call	qword ptr [rax + 24]
.Ltmp111:
# %bb.32:
	test	al, al
	jne	.LBB40_26
.LBB40_33:
	xor	ebx, ebx
	mov	rcx, qword ptr [rsp + 16]
	shl	rcx
	mov	eax, 0
	test	rcx, rcx
	je	.LBB40_29
	jmp	.LBB40_28
.LBB40_34:
	mov	edi, 512
	call	_RNvNtCs78A21jy8lRn_5alloc5alloc18handle_alloc_error
.LBB40_35:
.Ltmp102:
	mov	rdi, rbp
	call	_RNvNtCs78A21jy8lRn_5alloc5alloc18handle_alloc_error
.Ltmp103:
# %bb.36:
.LBB40_37:
.Ltmp107:
	mov	rbx, rax
	cmp	qword ptr [r13 + 8], 0
	je	.LBB40_39
# %bb.38:
	mov	rdi, r12
	call	qword ptr [rip + free@GOTPCREL]
.LBB40_39:
	mov	rdi, r15
	jmp	.LBB40_46
.LBB40_40:
.Ltmp104:
	mov	rbx, rax
	jmp	.LBB40_45
.LBB40_41:
.Ltmp112:
	mov	rbx, rax
	mov	rax, qword ptr [rsp + 16]
	shl	rax
	test	rax, rax
	je	.LBB40_47
# %bb.42:
	mov	rdi, qword ptr [rsp + 24]
	jmp	.LBB40_46
.LBB40_43:
.Ltmp115:
	mov	rbx, rax
	cmp	qword ptr [rsp + 48], 0
	je	.LBB40_47
# %bb.44:
	mov	r12, qword ptr [rsp + 56]
.LBB40_45:
	mov	rdi, r12
.LBB40_46:
	call	qword ptr [rip + free@GOTPCREL]
.LBB40_47:
	mov	rdi, rbx
	call	_Unwind_Resume@PLT
.Lfunc_end40:
	.size	_RNvXNvMNtNtCs3bNtqN8jaZB_3std3sys9backtraceNtB5_13BacktraceLock5printNtB2_16DisplayBacktraceNtNtCsfQL5qMWGko6_4core3fmt7Display3fmt, .Lfunc_end40-_RNvXNvMNtNtCs3bNtqN8jaZB_3std3sys9backtraceNtB5_13BacktraceLock5printNtB2_16DisplayBacktraceNtNtCsfQL5qMWGko6_4core3fmt7Display3fmt
	.cfi_endproc
	.section	.gcc_except_table._RNvXNvMNtNtCs3bNtqN8jaZB_3std3sys9backtraceNtB5_13BacktraceLock5printNtB2_16DisplayBacktraceNtNtCsfQL5qMWGko6_4core3fmt7Display3fmt,"a",@progbits
	.p2align	2, 0x0
GCC_except_table40:
.Lexception10:
	.byte	255                             # @LPStart Encoding = omit
	.byte	255                             # @TType Encoding = omit
	.byte	1                               # Call site Encoding = uleb128
	.uleb128 .Lcst_end10-.Lcst_begin10
.Lcst_begin10:
	.uleb128 .Lfunc_begin10-.Lfunc_begin10  # >> Call Site 1 <<
	.uleb128 .Ltmp113-.Lfunc_begin10        #   Call between .Lfunc_begin10 and .Ltmp113
	.byte	0                               #     has no landing pad
	.byte	0                               #   On action: cleanup
	.uleb128 .Ltmp113-.Lfunc_begin10        # >> Call Site 2 <<
	.uleb128 .Ltmp114-.Ltmp113              #   Call between .Ltmp113 and .Ltmp114
	.uleb128 .Ltmp115-.Lfunc_begin10        #     jumps to .Ltmp115
	.byte	0                               #   On action: cleanup
	.uleb128 .Ltmp105-.Lfunc_begin10        # >> Call Site 3 <<
	.uleb128 .Ltmp106-.Ltmp105              #   Call between .Ltmp105 and .Ltmp106
	.uleb128 .Ltmp107-.Lfunc_begin10        #     jumps to .Ltmp107
	.byte	0                               #   On action: cleanup
	.uleb128 .Ltmp108-.Lfunc_begin10        # >> Call Site 4 <<
	.uleb128 .Ltmp111-.Ltmp108              #   Call between .Ltmp108 and .Ltmp111
	.uleb128 .Ltmp112-.Lfunc_begin10        #     jumps to .Ltmp112
	.byte	0                               #   On action: cleanup
	.uleb128 .Ltmp111-.Lfunc_begin10        # >> Call Site 5 <<
	.uleb128 .Ltmp102-.Ltmp111              #   Call between .Ltmp111 and .Ltmp102
	.byte	0                               #     has no landing pad
	.byte	0                               #   On action: cleanup
	.uleb128 .Ltmp102-.Lfunc_begin10        # >> Call Site 6 <<
	.uleb128 .Ltmp103-.Ltmp102              #   Call between .Ltmp102 and .Ltmp103
	.uleb128 .Ltmp104-.Lfunc_begin10        #     jumps to .Ltmp104
	.byte	0                               #   On action: cleanup
	.uleb128 .Ltmp103-.Lfunc_begin10        # >> Call Site 7 <<
	.uleb128 .Lfunc_end40-.Ltmp103          #   Call between .Ltmp103 and .Lfunc_end40
	.byte	0                               #     has no landing pad
	.byte	0                               #   On action: cleanup
.Lcst_end10:
	.p2align	2, 0x0
                                        # -- End function
	.section	.text._RNvNvNtNtNtCs3bNtqN8jaZB_3std12backtrace_rs9backtrace9libunwind5trace8trace_fn,"ax",@progbits
	.p2align	4                               # -- Begin function _RNvNvNtNtNtCs3bNtqN8jaZB_3std12backtrace_rs9backtrace9libunwind5trace8trace_fn
	.type	_RNvNvNtNtNtCs3bNtqN8jaZB_3std12backtrace_rs9backtrace9libunwind5trace8trace_fn,@function
_RNvNvNtNtNtCs3bNtqN8jaZB_3std12backtrace_rs9backtrace9libunwind5trace8trace_fn: # @_RNvNvNtNtNtCs3bNtqN8jaZB_3std12backtrace_rs9backtrace9libunwind5trace8trace_fn
.Lfunc_begin11:
	.cfi_startproc
	.cfi_personality 155, DW.ref.rust_eh_personality
	.cfi_lsda 27, .Lexception11
# %bb.0:
	sub	rsp, 40
	.cfi_def_cfa_offset 48
	mov	qword ptr [rsp + 8], 0
	mov	qword ptr [rsp + 16], rdi
	mov	rdi, qword ptr [rsi]
	mov	rax, qword ptr [rsi + 8]
.Ltmp116:
	lea	rsi, [rsp + 8]
	call	qword ptr [rax + 32]
.Ltmp117:
# %bb.1:
	xor	al, 1
	movzx	eax, al
	lea	eax, [rax + 8*rax]
	add	rsp, 40
	.cfi_def_cfa_offset 8
	ret
.LBB41_2:
	.cfi_def_cfa_offset 48
.Ltmp118:
.Ltmp119:
	call	_RINvNtCsfQL5qMWGko6_4core3ptr13drop_in_placeNtNtNtNtCs3bNtqN8jaZB_3std12backtrace_rs9backtrace9libunwind4BombEBO_
.Ltmp120:
# %bb.3:
.LBB41_4:
.Ltmp121:
	call	_RNvNtCsfQL5qMWGko6_4core9panicking16panic_in_cleanup
.Lfunc_end41:
	.size	_RNvNvNtNtNtCs3bNtqN8jaZB_3std12backtrace_rs9backtrace9libunwind5trace8trace_fn, .Lfunc_end41-_RNvNvNtNtNtCs3bNtqN8jaZB_3std12backtrace_rs9backtrace9libunwind5trace8trace_fn
	.cfi_endproc
	.section	.gcc_except_table._RNvNvNtNtNtCs3bNtqN8jaZB_3std12backtrace_rs9backtrace9libunwind5trace8trace_fn,"a",@progbits
	.p2align	2, 0x0
GCC_except_table41:
.Lexception11:
	.byte	255                             # @LPStart Encoding = omit
	.byte	155                             # @TType Encoding = indirect pcrel sdata4
	.uleb128 .Lttbase5-.Lttbaseref5
.Lttbaseref5:
	.byte	1                               # Call site Encoding = uleb128
	.uleb128 .Lcst_end11-.Lcst_begin11
.Lcst_begin11:
	.uleb128 .Ltmp116-.Lfunc_begin11        # >> Call Site 1 <<
	.uleb128 .Ltmp117-.Ltmp116              #   Call between .Ltmp116 and .Ltmp117
	.uleb128 .Ltmp118-.Lfunc_begin11        #     jumps to .Ltmp118
	.byte	0                               #   On action: cleanup
	.uleb128 .Ltmp119-.Lfunc_begin11        # >> Call Site 2 <<
	.uleb128 .Ltmp120-.Ltmp119              #   Call between .Ltmp119 and .Ltmp120
	.uleb128 .Ltmp121-.Lfunc_begin11        #     jumps to .Ltmp121
	.byte	1                               #   On action: 1
.Lcst_end11:
	.byte	127                             # >> Action Record 1 <<
                                        #   Filter TypeInfo -1
	.byte	0                               #   No further actions
	.p2align	2, 0x0
.Lttbase5:
                                        # >> Filter TypeInfos <<
	.byte	0
	.p2align	2, 0x0
                                        # -- End function
	.section	.text.unlikely._RINvNtCsfQL5qMWGko6_4core3ptr13drop_in_placeNtNtNtNtCs3bNtqN8jaZB_3std12backtrace_rs9backtrace9libunwind4BombEBO_,"ax",@progbits
	.p2align	4                               # -- Begin function _RINvNtCsfQL5qMWGko6_4core3ptr13drop_in_placeNtNtNtNtCs3bNtqN8jaZB_3std12backtrace_rs9backtrace9libunwind4BombEBO_
	.type	_RINvNtCsfQL5qMWGko6_4core3ptr13drop_in_placeNtNtNtNtCs3bNtqN8jaZB_3std12backtrace_rs9backtrace9libunwind4BombEBO_,@function
_RINvNtCsfQL5qMWGko6_4core3ptr13drop_in_placeNtNtNtNtCs3bNtqN8jaZB_3std12backtrace_rs9backtrace9libunwind4BombEBO_: # @_RINvNtCsfQL5qMWGko6_4core3ptr13drop_in_placeNtNtNtNtCs3bNtqN8jaZB_3std12backtrace_rs9backtrace9libunwind4BombEBO_
	.cfi_startproc
# %bb.0:
	push	rax
	.cfi_def_cfa_offset 16
	lea	rdi, [rip + .Lanon.28cb502c8ec02091c8e32b488a8e08d8.661]
	lea	rdx, [rip + .Lanon.28cb502c8ec02091c8e32b488a8e08d8.663]
	mov	esi, 85
	call	_RNvNtCsfQL5qMWGko6_4core9panicking9panic_fmt
.Lfunc_end42:
	.size	_RINvNtCsfQL5qMWGko6_4core3ptr13drop_in_placeNtNtNtNtCs3bNtqN8jaZB_3std12backtrace_rs9backtrace9libunwind4BombEBO_, .Lfunc_end42-_RINvNtCsfQL5qMWGko6_4core3ptr13drop_in_placeNtNtNtNtCs3bNtqN8jaZB_3std12backtrace_rs9backtrace9libunwind4BombEBO_
	.cfi_endproc
                                        # -- End function
	.section	.text.unlikely._RNvNtCsfQL5qMWGko6_4core9panicking16panic_in_cleanup,"ax",@progbits
	.type	_RNvNtCsfQL5qMWGko6_4core9panicking16panic_in_cleanup,@function # -- Begin function _RNvNtCsfQL5qMWGko6_4core9panicking16panic_in_cleanup
_RNvNtCsfQL5qMWGko6_4core9panicking16panic_in_cleanup: # @_RNvNtCsfQL5qMWGko6_4core9panicking16panic_in_cleanup
	.cfi_startproc
# %bb.0:
	push	rax
	.cfi_def_cfa_offset 16
	call	_RNvNtCsfQL5qMWGko6_4core9panicking26panic_nounwind_nobacktrace
.Lfunc_end43:
	.size	_RNvNtCsfQL5qMWGko6_4core9panicking16panic_in_cleanup, .Lfunc_end43-_RNvNtCsfQL5qMWGko6_4core9panicking16panic_in_cleanup
	.cfi_endproc
                                        # -- End function
	.section	.text.unlikely._RNvNtCsfQL5qMWGko6_4core9panicking26panic_nounwind_nobacktrace,"ax",@progbits
	.p2align	4                               # -- Begin function _RNvNtCsfQL5qMWGko6_4core9panicking26panic_nounwind_nobacktrace
	.type	_RNvNtCsfQL5qMWGko6_4core9panicking26panic_nounwind_nobacktrace,@function
_RNvNtCsfQL5qMWGko6_4core9panicking26panic_nounwind_nobacktrace: # @_RNvNtCsfQL5qMWGko6_4core9panicking26panic_nounwind_nobacktrace
	.cfi_startproc
# %bb.0:
	push	rax
	.cfi_def_cfa_offset 16
	lea	rdi, [rip + .Lanon.d5d3fb2753c9188cafcf94e7b22ba015.144]
	lea	rcx, [rip + .Lanon.d5d3fb2753c9188cafcf94e7b22ba015.152]
	mov	esi, 73
	mov	edx, 1
	call	_RNvNtCsfQL5qMWGko6_4core9panicking18panic_nounwind_fmt
.Lfunc_end44:
	.size	_RNvNtCsfQL5qMWGko6_4core9panicking26panic_nounwind_nobacktrace, .Lfunc_end44-_RNvNtCsfQL5qMWGko6_4core9panicking26panic_nounwind_nobacktrace
	.cfi_endproc
                                        # -- End function
	.section	.text._RNSNvYNCNvNtNtCs3bNtqN8jaZB_3std3sys9backtrace10__print_fmts_0INtNtNtCsfQL5qMWGko6_4core3ops8function6FnOnceTRNtNtNtBc_12backtrace_rs9backtrace5FrameEE9call_once6vtableBc_,"ax",@progbits
	.p2align	4                               # -- Begin function _RNSNvYNCNvNtNtCs3bNtqN8jaZB_3std3sys9backtrace10__print_fmts_0INtNtNtCsfQL5qMWGko6_4core3ops8function6FnOnceTRNtNtNtBc_12backtrace_rs9backtrace5FrameEE9call_once6vtableBc_
	.type	_RNSNvYNCNvNtNtCs3bNtqN8jaZB_3std3sys9backtrace10__print_fmts_0INtNtNtCsfQL5qMWGko6_4core3ops8function6FnOnceTRNtNtNtBc_12backtrace_rs9backtrace5FrameEE9call_once6vtableBc_,@function
_RNSNvYNCNvNtNtCs3bNtqN8jaZB_3std3sys9backtrace10__print_fmts_0INtNtNtCsfQL5qMWGko6_4core3ops8function6FnOnceTRNtNtNtBc_12backtrace_rs9backtrace5FrameEE9call_once6vtableBc_: # @_RNSNvYNCNvNtNtCs3bNtqN8jaZB_3std3sys9backtrace10__print_fmts_0INtNtNtCsfQL5qMWGko6_4core3ops8function6FnOnceTRNtNtNtBc_12backtrace_rs9backtrace5FrameEE9call_once6vtableBc_
	.cfi_startproc
# %bb.0:
	jmp	_RNCNvNtNtCs3bNtqN8jaZB_3std3sys9backtrace10__print_fmts_0B7_ # TAILCALL
.Lfunc_end45:
	.size	_RNSNvYNCNvNtNtCs3bNtqN8jaZB_3std3sys9backtrace10__print_fmts_0INtNtNtCsfQL5qMWGko6_4core3ops8function6FnOnceTRNtNtNtBc_12backtrace_rs9backtrace5FrameEE9call_once6vtableBc_, .Lfunc_end45-_RNSNvYNCNvNtNtCs3bNtqN8jaZB_3std3sys9backtrace10__print_fmts_0INtNtNtCsfQL5qMWGko6_4core3ops8function6FnOnceTRNtNtNtBc_12backtrace_rs9backtrace5FrameEE9call_once6vtableBc_
	.cfi_endproc
                                        # -- End function
	.section	.text._RNCNvNtNtCs3bNtqN8jaZB_3std3sys9backtrace10__print_fmts_0B7_,"ax",@progbits
	.p2align	4                               # -- Begin function _RNCNvNtNtCs3bNtqN8jaZB_3std3sys9backtrace10__print_fmts_0B7_
	.type	_RNCNvNtNtCs3bNtqN8jaZB_3std3sys9backtrace10__print_fmts_0B7_,@function
_RNCNvNtNtCs3bNtqN8jaZB_3std3sys9backtrace10__print_fmts_0B7_: # @_RNCNvNtNtCs3bNtqN8jaZB_3std3sys9backtrace10__print_fmts_0B7_
.Lfunc_begin12:
	.cfi_startproc
	.cfi_personality 155, DW.ref.rust_eh_personality
	.cfi_lsda 27, .Lexception12
# %bb.0:
	push	rbp
	.cfi_def_cfa_offset 16
	push	r15
	.cfi_def_cfa_offset 24
	push	r14
	.cfi_def_cfa_offset 32
	push	r13
	.cfi_def_cfa_offset 40
	push	r12
	.cfi_def_cfa_offset 48
	push	rbx
	.cfi_def_cfa_offset 56
	sub	rsp, 152
	.cfi_def_cfa_offset 208
	.cfi_offset rbx, -56
	.cfi_offset r12, -48
	.cfi_offset r13, -40
	.cfi_offset r14, -32
	.cfi_offset r15, -24
	.cfi_offset rbp, -16
	mov	rbx, rdi
	mov	rax, qword ptr [rdi]
	cmp	byte ptr [rax], 0
	jne	.LBB46_3
# %bb.1:
	mov	rcx, qword ptr [rbx + 8]
	cmp	qword ptr [rcx], 100
	jbe	.LBB46_3
# %bb.2:
	xor	eax, eax
	jmp	.LBB46_8
.LBB46_3:
	mov	byte ptr [rsp + 31], 0
	mov	rcx, qword ptr [rbx + 48]
	mov	r15, qword ptr [rbx + 16]
	mov	r12, qword ptr [rbx + 24]
	lea	rdx, [rsp + 31]
	mov	qword ptr [rsp + 48], rdx
	mov	qword ptr [rsp + 56], rax
	mov	r13, qword ptr [rbx + 32]
	movups	xmm0, xmmword ptr [rbx + 32]
	movups	xmmword ptr [rsp + 64], xmm0
	mov	qword ptr [rsp + 80], rcx
	mov	qword ptr [rsp + 88], r12
	mov	qword ptr [rsp + 96], r15
	mov	qword ptr [rsp + 104], rsi
	movzx	ebp, byte ptr [rsi]
	mov	r14, qword ptr [rsi + 8]
	mov	rax, r14
	test	bpl, bpl
	jne	.LBB46_5
# %bb.4:
	mov	rdi, r14
	call	qword ptr [rip + _Unwind_GetIP@GOTPCREL]
.LBB46_5:
	lea	rdi, [rax - 1]
	test	rax, rax
	cmove	rdi, rax
	lea	rsi, [rsp + 48]
	call	_RINvMs0_NtNtNtCs3bNtqN8jaZB_3std12backtrace_rs9symbolize5gimliNtB6_5Cache11with_globalNCNvB6_7resolves_0EBc_
	cmp	byte ptr [rsp + 31], 0
	jne	.LBB46_7
# %bb.6:
	cmp	byte ptr [r13], 0
	je	.LBB46_7
# %bb.9:
	mov	qword ptr [rsp + 32], r12
	mov	qword ptr [rsp + 40], 0
	test	bpl, bpl
	jne	.LBB46_11
# %bb.10:
	mov	rdi, r14
	call	qword ptr [rip + _Unwind_GetIP@GOTPCREL]
	mov	r14, rax
.LBB46_11:
	mov	qword ptr [rsp + 48], 3
	mov	qword ptr [rsp + 128], 2
.Ltmp122:
	mov	dword ptr [rsp], 0
	lea	rdi, [rsp + 32]
	lea	rdx, [rsp + 48]
	lea	rcx, [rsp + 128]
	mov	rsi, r14
	xor	r8d, r8d
	call	_RNvMs_NtNtCs3bNtqN8jaZB_3std12backtrace_rs5printNtB4_17BacktraceFrameFmt21print_raw_with_column
.Ltmp123:
# %bb.12:
	mov	byte ptr [r15], al
	mov	rax, qword ptr [rsp + 32]
	inc	qword ptr [rax + 24]
.LBB46_7:
	mov	rax, qword ptr [rbx + 8]
	inc	qword ptr [rax]
	movzx	eax, byte ptr [r15]
	xor	al, 1
.LBB46_8:
                                        # kill: def $al killed $al killed $eax
	add	rsp, 152
	.cfi_def_cfa_offset 56
	pop	rbx
	.cfi_def_cfa_offset 48
	pop	r12
	.cfi_def_cfa_offset 40
	pop	r13
	.cfi_def_cfa_offset 32
	pop	r14
	.cfi_def_cfa_offset 24
	pop	r15
	.cfi_def_cfa_offset 16
	pop	rbp
	.cfi_def_cfa_offset 8
	ret
.LBB46_13:
	.cfi_def_cfa_offset 208
.Ltmp124:
	mov	rcx, qword ptr [rsp + 32]
	inc	qword ptr [rcx + 24]
	mov	rdi, rax
	call	_Unwind_Resume@PLT
.Lfunc_end46:
	.size	_RNCNvNtNtCs3bNtqN8jaZB_3std3sys9backtrace10__print_fmts_0B7_, .Lfunc_end46-_RNCNvNtNtCs3bNtqN8jaZB_3std3sys9backtrace10__print_fmts_0B7_
	.cfi_endproc
	.section	.gcc_except_table._RNCNvNtNtCs3bNtqN8jaZB_3std3sys9backtrace10__print_fmts_0B7_,"a",@progbits
	.p2align	2, 0x0
GCC_except_table46:
.Lexception12:
	.byte	255                             # @LPStart Encoding = omit
	.byte	255                             # @TType Encoding = omit
	.byte	1                               # Call site Encoding = uleb128
	.uleb128 .Lcst_end12-.Lcst_begin12
.Lcst_begin12:
	.uleb128 .Lfunc_begin12-.Lfunc_begin12  # >> Call Site 1 <<
	.uleb128 .Ltmp122-.Lfunc_begin12        #   Call between .Lfunc_begin12 and .Ltmp122
	.byte	0                               #     has no landing pad
	.byte	0                               #   On action: cleanup
	.uleb128 .Ltmp122-.Lfunc_begin12        # >> Call Site 2 <<
	.uleb128 .Ltmp123-.Ltmp122              #   Call between .Ltmp122 and .Ltmp123
	.uleb128 .Ltmp124-.Lfunc_begin12        #     jumps to .Ltmp124
	.byte	0                               #   On action: cleanup
	.uleb128 .Ltmp123-.Lfunc_begin12        # >> Call Site 3 <<
	.uleb128 .Lfunc_end46-.Ltmp123          #   Call between .Ltmp123 and .Lfunc_end46
	.byte	0                               #     has no landing pad
	.byte	0                               #   On action: cleanup
.Lcst_end12:
	.p2align	2, 0x0
                                        # -- End function
	.section	.text._RINvMs0_NtNtNtCs3bNtqN8jaZB_3std12backtrace_rs9symbolize5gimliNtB6_5Cache11with_globalNCNvB6_7resolves_0EBc_,"ax",@progbits
	.type	_RINvMs0_NtNtNtCs3bNtqN8jaZB_3std12backtrace_rs9symbolize5gimliNtB6_5Cache11with_globalNCNvB6_7resolves_0EBc_,@function # -- Begin function _RINvMs0_NtNtNtCs3bNtqN8jaZB_3std12backtrace_rs9symbolize5gimliNtB6_5Cache11with_globalNCNvB6_7resolves_0EBc_
_RINvMs0_NtNtNtCs3bNtqN8jaZB_3std12backtrace_rs9symbolize5gimliNtB6_5Cache11with_globalNCNvB6_7resolves_0EBc_: # @_RINvMs0_NtNtNtCs3bNtqN8jaZB_3std12backtrace_rs9symbolize5gimliNtB6_5Cache11with_globalNCNvB6_7resolves_0EBc_
.Lfunc_begin13:
	.cfi_startproc
	.cfi_personality 155, DW.ref.rust_eh_personality
	.cfi_lsda 27, .Lexception13
# %bb.0:
	push	rbp
	.cfi_def_cfa_offset 16
	push	r15
	.cfi_def_cfa_offset 24
	push	r14
	.cfi_def_cfa_offset 32
	push	r13
	.cfi_def_cfa_offset 40
	push	r12
	.cfi_def_cfa_offset 48
	push	rbx
	.cfi_def_cfa_offset 56
	sub	rsp, 4096
	.cfi_adjust_cfa_offset 4096
	mov	qword ptr [rsp], 0
	sub	rsp, 776
	.cfi_def_cfa_offset 4928
	.cfi_offset rbx, -56
	.cfi_offset r12, -48
	.cfi_offset r13, -40
	.cfi_offset r14, -32
	.cfi_offset r15, -24
	.cfi_offset rbp, -16
	mov	qword ptr [rsp + 376], rsi      # 8-byte Spill
	mov	rbx, rdi
	movabs	rbp, -9223372036854775808
	xor	eax, eax
	cmp	rax, qword ptr [rip + _RNvNvMs0_NtNtNtCs3bNtqN8jaZB_3std12backtrace_rs9symbolize5gimliNtB7_5Cache11with_global14MAPPINGS_CACHE]
	push	8
	.cfi_adjust_cfa_offset 8
	pop	rax
	.cfi_adjust_cfa_offset -8
	mov	qword ptr [rsp + 40], rax       # 8-byte Spill
	mov	qword ptr [rsp + 200], rdi      # 8-byte Spill
	jno	.LBB47_100
# %bb.1:
	and	qword ptr [rsp + 1032], 0
	mov	qword ptr [rsp + 1040], 8
	and	qword ptr [rsp + 1048], 0
	movabs	rax, 1881195675648
	mov	qword ptr [rsp + 720], rax
	and	dword ptr [rsp + 728], 0
	and	word ptr [rsp + 732], 0
	mov	byte ptr [rsp + 728], 1
	movabs	rax, 8318255633327877221
	lea	rsi, [rsp + 2512]
	mov	qword ptr [rsi + 7], rax
	movabs	rax, 7310238724270485551
	mov	qword ptr [rsi], rax
	mov	byte ptr [rsi + 15], 0
	lea	rbx, [rsp + 1312]
	push	16
	.cfi_adjust_cfa_offset 8
	pop	rdx
	.cfi_adjust_cfa_offset -8
	mov	rdi, rbx
	call	_RNvMs3_NtNtCsfQL5qMWGko6_4core3ffi5c_strNtB5_4CStr19from_bytes_with_nul
	cmp	dword ptr [rbx], 1
	jne	.LBB47_3
# %bb.2:
	lea	rax, [rip + .Lanon.28cb502c8ec02091c8e32b488a8e08d8.79]
	jmp	.LBB47_6
.LBB47_3:
	mov	rsi, qword ptr [rsp + 1320]
.Ltmp125:
	lea	rdi, [rsp + 1904]
	lea	rdx, [rsp + 720]
	call	_RNvMsi_NtNtNtCs3bNtqN8jaZB_3std3sys2fs4unixNtB5_4File6open_c
.Ltmp126:
# %bb.4:
	cmp	dword ptr [rsp + 1904], 1
	jne	.LBB47_12
# %bb.5:
	mov	rax, qword ptr [rsp + 1912]
.LBB47_6:
	mov	ecx, eax
	and	ecx, 3
	push	8
	.cfi_adjust_cfa_offset 8
	pop	rbx
	.cfi_adjust_cfa_offset -8
	cmp	ecx, 1
	jne	.LBB47_78
# %bb.7:
	lea	r14, [rax - 1]
	mov	r15, qword ptr [rax - 1]
	mov	r12, qword ptr [rax + 7]
	mov	rax, qword ptr [r12]
	test	rax, rax
	je	.LBB47_9
# %bb.8:
.Ltmp163:
	mov	rdi, r15
	call	rax
.Ltmp164:
.LBB47_9:
	cmp	qword ptr [r12 + 8], 0
	je	.LBB47_11
# %bb.10:
	mov	rdi, r15
	call	qword ptr [rip + free@GOTPCREL]
.LBB47_11:
	mov	rdi, r14
	call	qword ptr [rip + free@GOTPCREL]
	jmp	.LBB47_78
.LBB47_12:
	mov	r13d, dword ptr [rsp + 1908]
	and	qword ptr [rsp + 720], 0
	mov	qword ptr [rsp + 728], 1
	and	qword ptr [rsp + 736], 0
	lea	rdx, [rip + .Lanon.28cb502c8ec02091c8e32b488a8e08d8.376]
	lea	rbx, [rsp + 2512]
	mov	rdi, rbx
	mov	esi, r13d
	mov	ecx, 4096
	call	_RNvNtNtNtCs3bNtqN8jaZB_3std3sys2fs4unix9try_statx
	mov	rax, qword ptr [rbx]
	cmp	rax, 3
	mov	dword ptr [rsp + 112], r13d     # 4-byte Spill
	jne	.LBB47_15
# %bb.13:
	lea	rsi, [rsp + 2512]
	mov	ecx, 144
	xor	eax, eax
	mov	rdi, rsi
	rep stosb es:[rdi], al
	mov	edi, r13d
	call	qword ptr [rip + fstat64@GOTPCREL]
	cmp	eax, -1
	je	.LBB47_23
# %bb.14:
	mov	r15, qword ptr [rsp + 2560]
	jmp	.LBB47_18
.LBB47_15:
	cmp	eax, 2
	jne	.LBB47_17
# %bb.16:
	mov	rax, qword ptr [rsp + 2520]
	jmp	.LBB47_24
.LBB47_17:
	mov	r15, qword ptr [rsp + 2592]
.LBB47_18:
	push	1
	.cfi_adjust_cfa_offset 8
	pop	rdx
	.cfi_adjust_cfa_offset -8
	mov	edi, r13d
	xor	esi, esi
	call	qword ptr [rip + lseek64@GOTPCREL]
	cmp	rax, -1
	je	.LBB47_22
# %bb.19:
	mov	rbx, rax
	xor	r14d, r14d
	mov	r12, r15
	sub	r12, rax
	cmovb	r12, r14
	ja	.LBB47_491
.LBB47_20:
	lea	rax, [r12 + 1024]
	mov	ecx, eax
	and	ecx, 8191
	sub	r12, rcx
	add	r12, 9216
	cmp	r12, rax
	mov	edx, 8192
	cmovae	rdx, r12
	test	rcx, rcx
	cmove	rdx, rax
	mov	qword ptr [rsp + 16], rdx       # 8-byte Spill
	cmp	r15, rbx
	jbe	.LBB47_36
.LBB47_21:
	xor	r13d, r13d
	mov	rsi, r14
	xor	ebx, ebx
	jmp	.LBB47_38
.LBB47_22:
	call	qword ptr [rip + __errno_location@GOTPCREL]
	jmp	.LBB47_30
.LBB47_23:
	call	qword ptr [rip + __errno_location@GOTPCREL]
	mov	eax, dword ptr [rax]
	shl	rax, 32
	or	rax, 2
.LBB47_24:
	mov	ecx, eax
	and	ecx, 3
	cmp	ecx, 1
	jne	.LBB47_30
# %bb.25:
	lea	r14, [rax - 1]
	mov	r15, qword ptr [rax - 1]
	mov	r12, qword ptr [rax + 7]
	mov	rax, qword ptr [r12]
	test	rax, rax
	je	.LBB47_27
# %bb.26:
.Ltmp128:
	mov	rdi, r15
	call	rax
.Ltmp129:
.LBB47_27:
	cmp	qword ptr [r12 + 8], 0
	je	.LBB47_29
# %bb.28:
	mov	rdi, r15
	call	qword ptr [rip + free@GOTPCREL]
.LBB47_29:
	mov	rdi, r14
	call	qword ptr [rip + free@GOTPCREL]
.LBB47_30:
	mov	bl, 1
	mov	eax, 8192
	mov	qword ptr [rsp + 16], rax       # 8-byte Spill
	xor	r14d, r14d
.LBB47_31:
.Ltmp131:
	lea	rsi, [rsp + 720]
	mov	edi, r13d
	call	_RINvNvNtCs3bNtqN8jaZB_3std2io19default_read_to_end16small_probe_readRNtNtB6_2fs4FileEB6_
.Ltmp132:
# %bb.32:
	mov	r13, rdx
	test	al, 1
	je	.LBB47_34
# %bb.33:
	mov	r12b, 1
	jmp	.LBB47_60
.LBB47_34:
	test	r13, r13
	je	.LBB47_59
# %bb.35:
	mov	rsi, qword ptr [rsp + 720]
	mov	r13, qword ptr [rsp + 736]
	jmp	.LBB47_38
.LBB47_36:
	xor	ebx, ebx
	cmp	r14, 32
	jb	.LBB47_31
# %bb.37:
	mov	rsi, r14
	xor	r13d, r13d
.LBB47_38:
	mov	rbp, qword ptr [rip + read@GOTPCREL]
	mov	r12, qword ptr [rip + __errno_location@GOTPCREL]
	mov	dword ptr [rsp + 80], 0         # 4-byte Folded Spill
	mov	qword ptr [rsp + 8], 0          # 8-byte Folded Spill
	mov	qword ptr [rsp + 128], r14      # 8-byte Spill
	mov	qword ptr [rsp], rbx            # 8-byte Spill
.LBB47_39:                              # =>This Loop Header: Depth=1
                                        #     Child Loop BB47_47 Depth 2
	cmp	r13, rsi
	jne	.LBB47_45
# %bb.40:                               #   in Loop: Header=BB47_39 Depth=1
	cmp	rsi, r14
	jne	.LBB47_45
# %bb.41:                               #   in Loop: Header=BB47_39 Depth=1
.Ltmp134:
	mov	edi, dword ptr [rsp + 112]      # 4-byte Reload
	lea	rsi, [rsp + 720]
	call	_RINvNvNtCs3bNtqN8jaZB_3std2io19default_read_to_end16small_probe_readRNtNtB6_2fs4FileEB6_
.Ltmp135:
# %bb.42:                               #   in Loop: Header=BB47_39 Depth=1
	mov	r13, rdx
	test	al, 1
	jne	.LBB47_506
# %bb.43:                               #   in Loop: Header=BB47_39 Depth=1
	test	r13, r13
	mov	r13, qword ptr [rsp + 736]
	je	.LBB47_490
# %bb.44:                               #   in Loop: Header=BB47_39 Depth=1
	mov	rsi, qword ptr [rsp + 720]
.LBB47_45:                              #   in Loop: Header=BB47_39 Depth=1
	mov	rbx, qword ptr [rsp + 728]
	cmp	r13, rsi
	je	.LBB47_55
.LBB47_46:                              #   in Loop: Header=BB47_39 Depth=1
	add	rbx, r13
	mov	qword ptr [rsp + 144], rsi      # 8-byte Spill
	mov	r15, rsi
	sub	r15, r13
	mov	rax, qword ptr [rsp + 16]       # 8-byte Reload
	cmp	rax, r15
	cmovb	r15, rax
	movabs	r14, 9223372036854775807
	cmp	r15, r14
	cmovb	r14, r15
.LBB47_47:                              #   Parent Loop BB47_39 Depth=1
                                        # =>  This Inner Loop Header: Depth=2
	mov	edi, dword ptr [rsp + 112]      # 4-byte Reload
	mov	rsi, rbx
	mov	rdx, r14
	call	rbp
	cmp	rax, -1
	jne	.LBB47_49
# %bb.48:                               #   in Loop: Header=BB47_47 Depth=2
	call	r12
	movsxd	rax, dword ptr [rax]
	cmp	rax, 4
	je	.LBB47_47
	jmp	.LBB47_57
.LBB47_49:                              #   in Loop: Header=BB47_39 Depth=1
	add	r13, rax
	mov	qword ptr [rsp + 736], r13
	test	rax, rax
	je	.LBB47_490
# %bb.50:                               #   in Loop: Header=BB47_39 Depth=1
	mov	rdx, qword ptr [rsp + 8]        # 8-byte Reload
	cmp	rax, rdx
	cmova	rdx, rax
	mov	rcx, rdx
	sub	rcx, rax
	mov	qword ptr [rsp + 8], rcx        # 8-byte Spill
	mov	esi, dword ptr [rsp + 80]       # 4-byte Reload
	inc	esi
	cmp	rax, r15
	mov	ecx, 0
	cmovae	esi, ecx
	mov	dword ptr [rsp + 80], esi       # 4-byte Spill
	mov	rbx, qword ptr [rsp]            # 8-byte Reload
	test	bl, bl
	mov	r14, qword ptr [rsp + 128]      # 8-byte Reload
	mov	rsi, qword ptr [rsp + 144]      # 8-byte Reload
	je	.LBB47_39
# %bb.51:                               #   in Loop: Header=BB47_39 Depth=1
	cmp	dword ptr [rsp + 80], 2         # 4-byte Folded Reload
	mov	r8, qword ptr [rsp + 16]        # 8-byte Reload
	mov	rcx, r8
	push	-1
	.cfi_adjust_cfa_offset 8
	pop	rdi
	.cfi_adjust_cfa_offset -8
	cmovge	rcx, rdi
	cmp	rdx, r15
	cmove	rcx, r8
	mov	qword ptr [rsp + 16], rcx       # 8-byte Spill
	cmp	rax, r15
	jne	.LBB47_39
# %bb.52:                               #   in Loop: Header=BB47_39 Depth=1
	mov	qword ptr [rsp + 16], rcx       # 8-byte Spill
	cmp	r15, rcx
	jb	.LBB47_39
# %bb.53:                               #   in Loop: Header=BB47_39 Depth=1
	lea	rax, [rcx + rcx]
	mov	qword ptr [rsp + 16], rax       # 8-byte Spill
	test	rcx, rcx
	jns	.LBB47_39
# %bb.54:                               #   in Loop: Header=BB47_39 Depth=1
	push	-1
	.cfi_adjust_cfa_offset 8
	pop	rax
	.cfi_adjust_cfa_offset -8
	mov	qword ptr [rsp + 16], rax       # 8-byte Spill
	jmp	.LBB47_39
.LBB47_55:                              #   in Loop: Header=BB47_39 Depth=1
	lea	rax, [rsi + 32]
	lea	r14, [rsi + rsi]
	cmp	rax, r14
	cmova	r14, rax
	lea	rdi, [rsp + 2512]
	mov	rdx, rbx
	mov	rcx, r14
	push	1
	.cfi_adjust_cfa_offset 8
	pop	r8
	.cfi_adjust_cfa_offset -8
	mov	r9, r8
	call	_RNvMs2_NtCs78A21jy8lRn_5alloc7raw_vecNtB5_11RawVecInner11finish_growCs3bNtqN8jaZB_3std
	cmp	dword ptr [rsp + 2512], 1
	je	.LBB47_505
# %bb.56:                               #   in Loop: Header=BB47_39 Depth=1
	mov	rbx, qword ptr [rsp + 2520]
	mov	qword ptr [rsp + 728], rbx
	mov	qword ptr [rsp + 720], r14
	mov	rsi, r14
	jmp	.LBB47_46
.LBB47_57:
	shl	rax, 32
	or	rax, 2
	mov	qword ptr [rsp + 736], r13
	mov	r12b, 1
	mov	r13, rax
.LBB47_58:
	movabs	rbp, -9223372036854775808
	jmp	.LBB47_60
.LBB47_59:
	xor	r13d, r13d
	xor	r12d, r12d
.LBB47_60:
	mov	r14, qword ptr [rsp + 728]
	mov	rbx, qword ptr [rsp + 736]
	lea	r15, [rsp + 2512]
	mov	rdi, r15
	mov	rsi, r14
	mov	rdx, rbx
	call	_RNvNtNtCsfQL5qMWGko6_4core3str8converts9from_utf8
	cmp	qword ptr [r15], 0
	je	.LBB47_62
# %bb.61:
	lea	rax, [rip + .Lanon.28cb502c8ec02091c8e32b488a8e08d8.48]
	test	r12b, r12b
	cmove	r13, rax
	and	qword ptr [rsp + 736], 0
	jmp	.LBB47_63
.LBB47_62:
	mov	qword ptr [rsp + 736], rbx
	test	r12b, r12b
	je	.LBB47_165
.LBB47_63:
	mov	eax, r13d
	and	eax, 3
	cmp	eax, 1
	je	.LBB47_66
# %bb.64:
	xor	r12d, r12d
.LBB47_65:
	mov	ebx, dword ptr [rsp + 112]      # 4-byte Reload
	jmp	.LBB47_71
.LBB47_66:
	lea	r14, [r13 - 1]
	mov	r15, qword ptr [r13 - 1]
	mov	r12, qword ptr [r13 + 7]
	mov	rax, qword ptr [r12]
	test	rax, rax
	je	.LBB47_68
# %bb.67:
.Ltmp160:
	mov	rdi, r15
	call	rax
.Ltmp161:
.LBB47_68:
	cmp	qword ptr [r12 + 8], 0
	mov	ebx, dword ptr [rsp + 112]      # 4-byte Reload
	je	.LBB47_70
# %bb.69:
	mov	rdi, r15
	call	qword ptr [rip + free@GOTPCREL]
.LBB47_70:
	mov	rdi, r14
	call	qword ptr [rip + free@GOTPCREL]
	xor	r12d, r12d
.LBB47_71:
	cmp	qword ptr [rsp + 720], 0
	je	.LBB47_73
# %bb.72:
	mov	rdi, qword ptr [rsp + 728]
	call	qword ptr [rip + free@GOTPCREL]
.LBB47_73:
	mov	edi, ebx
	call	qword ptr [rip + close@GOTPCREL]
	mov	rbx, qword ptr [rsp + 1040]
	test	r12, r12
	je	.LBB47_78
# %bb.74:
	lea	r14, [rbx + 8]
	mov	r15, qword ptr [rip + free@GOTPCREL]
.LBB47_75:                              # =>This Inner Loop Header: Depth=1
	cmp	qword ptr [r14 - 8], 0
	je	.LBB47_77
# %bb.76:                               #   in Loop: Header=BB47_75 Depth=1
	mov	rdi, qword ptr [r14]
	call	r15
.LBB47_77:                              #   in Loop: Header=BB47_75 Depth=1
	add	r14, 88
	dec	r12
	jne	.LBB47_75
.LBB47_78:
	cmp	qword ptr [rsp + 1032], 0
	je	.LBB47_80
# %bb.79:
	mov	rdi, rbx
	call	qword ptr [rip + free@GOTPCREL]
.LBB47_80:
	mov	r14, rbp
                                        # implicit-def: $r12
                                        # implicit-def: $r15
.LBB47_81:
	lea	rbx, [rsp + 2512]
	and	qword ptr [rbx], 0
	mov	qword ptr [rbx + 8], 8
	and	qword ptr [rbx + 16], 0
	mov	qword ptr [rbx + 24], r14
	mov	qword ptr [rbx + 32], r15
	mov	qword ptr [rbx + 40], r12
	lea	rdi, [rip + _RNvNtNtNtNtCs3bNtqN8jaZB_3std12backtrace_rs9symbolize5gimli20libs_dl_iterate_phdr8callback]
	mov	rsi, rbx
	call	qword ptr [rip + dl_iterate_phdr@GOTPCREL]
	movups	xmm0, xmmword ptr [rbx]
	movaps	xmmword ptr [rsp + 1312], xmm0
	mov	rax, qword ptr [rbx + 16]
	mov	qword ptr [rsp + 1328], rax
	mov	r14, qword ptr [rbx + 24]
	cmp	r14, rbp
	je	.LBB47_89
# %bb.82:
	mov	rbx, qword ptr [rsp + 2544]
	mov	r15, qword ptr [rsp + 2552]
	test	r15, r15
	je	.LBB47_87
# %bb.83:
	lea	r12, [rbx + 8]
	mov	r13, qword ptr [rip + free@GOTPCREL]
.LBB47_84:                              # =>This Inner Loop Header: Depth=1
	cmp	qword ptr [r12 - 8], 0
	je	.LBB47_86
# %bb.85:                               #   in Loop: Header=BB47_84 Depth=1
	mov	rdi, qword ptr [r12]
	call	r13
.LBB47_86:                              #   in Loop: Header=BB47_84 Depth=1
	add	r12, 88
	dec	r15
	jne	.LBB47_84
.LBB47_87:
	test	r14, r14
	je	.LBB47_89
# %bb.88:
	mov	rdi, rbx
	call	qword ptr [rip + free@GOTPCREL]
.LBB47_89:
	movaps	xmm0, xmmword ptr [rsp + 1312]
	movaps	xmmword ptr [rsp + 2512], xmm0
	mov	rax, qword ptr [rsp + 1328]
	mov	qword ptr [rsp + 2528], rax
	mov	r14, qword ptr [rip + _RNvNvMs0_NtNtNtCs3bNtqN8jaZB_3std12backtrace_rs9symbolize5gimliNtB7_5Cache11with_global14MAPPINGS_CACHE]
	cmp	r14, rbp
	je	.LBB47_99
# %bb.90:
	mov	rbx, qword ptr [rip + _RNvNvMs0_NtNtNtCs3bNtqN8jaZB_3std12backtrace_rs9symbolize5gimliNtB7_5Cache11with_global14MAPPINGS_CACHE+8]
	mov	r15, qword ptr [rip + _RNvNvMs0_NtNtNtCs3bNtqN8jaZB_3std12backtrace_rs9symbolize5gimliNtB7_5Cache11with_global14MAPPINGS_CACHE+16]
	test	r15, r15
	je	.LBB47_97
# %bb.91:
	lea	r12, [rbx + 32]
	mov	r13, qword ptr [rip + free@GOTPCREL]
.LBB47_92:                              # =>This Inner Loop Header: Depth=1
	cmp	qword ptr [r12 - 32], 0
	je	.LBB47_94
# %bb.93:                               #   in Loop: Header=BB47_92 Depth=1
	mov	rdi, qword ptr [r12 - 24]
	call	r13
.LBB47_94:                              #   in Loop: Header=BB47_92 Depth=1
	cmp	qword ptr [r12 - 8], 0
	je	.LBB47_96
# %bb.95:                               #   in Loop: Header=BB47_92 Depth=1
	mov	rdi, qword ptr [r12]
	call	r13
.LBB47_96:                              #   in Loop: Header=BB47_92 Depth=1
	add	r12, 56
	dec	r15
	jne	.LBB47_92
.LBB47_97:
	test	r14, r14
	je	.LBB47_99
# %bb.98:
	mov	rdi, rbx
	call	qword ptr [rip + free@GOTPCREL]
.LBB47_99:
	lea	rdi, [rip + _RNvNvMs0_NtNtNtCs3bNtqN8jaZB_3std12backtrace_rs9symbolize5gimliNtB7_5Cache11with_global14MAPPINGS_CACHE]
	lea	rsi, [rsp + 2512]
	mov	ecx, 2360
	rep movsb es:[rdi], [rsi]
	and	qword ptr [rip + _RNvNvMs0_NtNtNtCs3bNtqN8jaZB_3std12backtrace_rs9symbolize5gimliNtB7_5Cache11with_global14MAPPINGS_CACHE+2360], 0
	mov	rbx, qword ptr [rsp + 200]      # 8-byte Reload
.LBB47_100:
	mov	rsi, qword ptr [rip + _RNvNvMs0_NtNtNtCs3bNtqN8jaZB_3std12backtrace_rs9symbolize5gimliNtB7_5Cache11with_global14MAPPINGS_CACHE+16]
	test	rsi, rsi
	je	.LBB47_488
# %bb.101:
	push	1
	.cfi_adjust_cfa_offset 8
	pop	r12
	.cfi_adjust_cfa_offset -8
	mov	rcx, qword ptr [rip + _RNvNvMs0_NtNtNtCs3bNtqN8jaZB_3std12backtrace_rs9symbolize5gimliNtB7_5Cache11with_global14MAPPINGS_CACHE+8]
	imul	rax, rsi, 56
	add	rax, rcx
	xor	r14d, r14d
	mov	rdx, rcx
.LBB47_102:                             # =>This Loop Header: Depth=1
                                        #     Child Loop BB47_103 Depth 2
	mov	r8, qword ptr [rdx + 32]
	mov	rdi, qword ptr [rdx + 40]
	mov	r13, qword ptr [rdx + 48]
	add	rdx, 56
	shl	rdi, 4
.LBB47_103:                             #   Parent Loop BB47_102 Depth=1
                                        # =>  This Inner Loop Header: Depth=2
	test	rdi, rdi
	je	.LBB47_106
# %bb.104:                              #   in Loop: Header=BB47_103 Depth=2
	mov	r9, r8
	add	r8, 16
	mov	r10, qword ptr [r9]
	add	r10, r13
	add	rdi, -16
	cmp	r10, rbx
	ja	.LBB47_103
# %bb.105:                              #   in Loop: Header=BB47_103 Depth=2
	add	r10, qword ptr [r9 + 8]
	cmp	r10, rbx
	jbe	.LBB47_103
	jmp	.LBB47_107
.LBB47_106:                             #   in Loop: Header=BB47_102 Depth=1
	inc	r14
	cmp	rdx, rax
	jne	.LBB47_102
	jmp	.LBB47_488
.LBB47_107:
	mov	rax, qword ptr [rip + _RNvNvMs0_NtNtNtCs3bNtqN8jaZB_3std12backtrace_rs9symbolize5gimliNtB7_5Cache11with_global14MAPPINGS_CACHE+2360]
	cmp	rax, 5
	jae	.LBB47_503
# %bb.108:
	test	rax, rax
	je	.LBB47_112
# %bb.109:
	imul	r8, rax, -584
	mov	r10d, 584
	xor	edx, edx
	lea	rdi, [rip + _RNvNvMs0_NtNtNtCs3bNtqN8jaZB_3std12backtrace_rs9symbolize5gimliNtB7_5Cache11with_global14MAPPINGS_CACHE]
	mov	r9d, 584
.LBB47_110:                             # =>This Inner Loop Header: Depth=1
	cmp	qword ptr [r9 + rdi - 560], r14
	je	.LBB47_137
# %bb.111:                              #   in Loop: Header=BB47_110 Depth=1
	inc	rdx
	lea	r11, [r8 + r9]
	add	r11, 584
	add	r9, r10
	cmp	r11, r10
	jne	.LBB47_110
.LBB47_112:
	cmp	r14, rsi
	jae	.LBB47_643
# %bb.113:
	imul	rax, r14, 56
	mov	r15, qword ptr [rcx + rax + 8]
	mov	rdx, qword ptr [rcx + rax + 16]
	lea	rbx, [rsp + 2512]
	mov	rdi, rbx
	mov	rsi, r15
	mov	qword ptr [rsp + 16], rdx       # 8-byte Spill
	call	_RNvNtNtNtCs3bNtqN8jaZB_3std12backtrace_rs9symbolize5gimli4mmap
	cmp	dword ptr [rbx], 1
	jne	.LBB47_488
# %bb.114:
	mov	qword ptr [rsp + 144], r15      # 8-byte Spill
	mov	qword ptr [rsp + 8], r14        # 8-byte Spill
	lea	rdi, [rsp + 2512]
	mov	rsi, qword ptr [rdi + 8]
	and	qword ptr [rsp + 320], 0
	mov	r15, qword ptr [rdi + 16]
	push	8
	.cfi_adjust_cfa_offset 8
	pop	rax
	.cfi_adjust_cfa_offset -8
	mov	qword ptr [rsp + 328], rax
	xorps	xmm0, xmm0
	movups	xmmword ptr [rsp + 336], xmm0
	mov	qword ptr [rsp + 352], rax
	and	qword ptr [rsp + 360], 0
.Ltmp166:
	mov	qword ptr [rsp + 40], rsi       # 8-byte Spill
	mov	rdx, r15
	call	_RNvMs_NtNtNtNtCs3bNtqN8jaZB_3std12backtrace_rs9symbolize5gimli3elfNtB4_6Object5parse
.Ltmp167:
# %bb.115:
	cmp	qword ptr [rsp + 2512], rbp
	je	.LBB47_135
# %bb.116:
	push	120
	.cfi_adjust_cfa_offset 8
	pop	rcx
	.cfi_adjust_cfa_offset -8
	lea	rax, [rsp + 720]
	lea	rsi, [rsp + 2512]
	mov	rdi, rax
	rep movsb es:[rdi], [rsi]
	mov	rdi, rax
	call	_RNvMs_NtNtNtNtCs3bNtqN8jaZB_3std12backtrace_rs9symbolize5gimli3elfNtB4_6Object8build_id
	test	rax, rax
	mov	qword ptr [rsp], r15            # 8-byte Spill
	je	.LBB47_121
# %bb.117:
.Ltmp168:
	lea	rdi, [rsp + 1288]
	mov	rsi, rax
	call	_RNvNtNtNtNtCs3bNtqN8jaZB_3std12backtrace_rs9symbolize5gimli3elf15locate_build_id
.Ltmp169:
# %bb.118:
	cmp	qword ptr [rsp + 1288], rbp
	je	.LBB47_121
# %bb.119:
.Ltmp170:
	lea	rdi, [rsp + 2512]
	lea	rcx, [rsp + 1288]
	mov	rsi, qword ptr [rsp + 144]      # 8-byte Reload
	mov	rdx, qword ptr [rsp + 16]       # 8-byte Reload
	call	_RNvMNtNtNtNtCs3bNtqN8jaZB_3std12backtrace_rs9symbolize5gimli3elfNtB4_7Mapping9new_debug
.Ltmp171:
# %bb.120:
	mov	rbx, qword ptr [rsp + 2512]
	cmp	rbx, rbp
	jne	.LBB47_443
.LBB47_121:
	mov	qword ptr [rsp + 304], r13      # 8-byte Spill
	mov	r15, qword ptr [rsp + 768]
	test	r15, r15
	je	.LBB47_132
# %bb.122:
	mov	rax, qword ptr [rsp + 776]
	mov	qword ptr [rsp + 80], rax       # 8-byte Spill
	test	rax, rax
	je	.LBB47_132
# %bb.123:
	mov	rbp, qword ptr [rsp + 760]
	shl	r15, 6
	mov	rbx, qword ptr [rsp + 792]
	mov	r12, qword ptr [rsp + 800]
	mov	rax, qword ptr [rsp + 784]
	mov	qword ptr [rsp + 112], rax      # 8-byte Spill
	mov	rax, qword ptr [rsp + 80]       # 8-byte Reload
	add	rax, r12
	mov	qword ptr [rsp + 128], rax      # 8-byte Spill
.LBB47_124:                             # =>This Inner Loop Header: Depth=1
	mov	r14d, dword ptr [rbp]
	add	r14, rbx
	setb	al
	mov	r13, r12
	sub	r13, r14
	setb	cl
	or	cl, al
	jne	.LBB47_131
# %bb.125:                              #   in Loop: Header=BB47_124 Depth=1
	cmp	r12, qword ptr [rsp + 112]      # 8-byte Folded Reload
	ja	.LBB47_131
# %bb.126:                              #   in Loop: Header=BB47_124 Depth=1
	add	r14, qword ptr [rsp + 80]       # 8-byte Folded Reload
	mov	rax, qword ptr [rip + _RNvNvNtNtNtCslQCDUggHFaK_6memchr4arch6x86_646memchr10memchr_raw2FN]
.Ltmp172:
	xor	edi, edi
	mov	rsi, r14
	mov	rdx, qword ptr [rsp + 128]      # 8-byte Reload
	call	rax
.Ltmp173:
# %bb.127:                              #   in Loop: Header=BB47_124 Depth=1
	test	al, 1
	je	.LBB47_131
# %bb.128:                              #   in Loop: Header=BB47_124 Depth=1
	sub	rdx, r14
	cmp	rdx, 14
	jne	.LBB47_131
# %bb.129:                              #   in Loop: Header=BB47_124 Depth=1
	cmp	r13, 14
	jb	.LBB47_131
# %bb.130:                              #   in Loop: Header=BB47_124 Depth=1
	mov	rdi, r14
	lea	rsi, [rip + .Lanon.28cb502c8ec02091c8e32b488a8e08d8.368]
	push	14
	.cfi_adjust_cfa_offset 8
	pop	rdx
	.cfi_adjust_cfa_offset -8
	call	qword ptr [rip + bcmp@GOTPCREL]
	test	eax, eax
	je	.LBB47_493
.LBB47_131:                             #   in Loop: Header=BB47_124 Depth=1
	add	rbp, 64
	add	r15, -64
	jne	.LBB47_124
.LBB47_132:
.Ltmp237:
	lea	rdi, [rsp + 1904]
	lea	rcx, [rsp + 320]
	mov	rsi, qword ptr [rsp + 144]      # 8-byte Reload
	mov	rdx, qword ptr [rsp + 16]       # 8-byte Reload
	mov	r15, qword ptr [rsp]            # 8-byte Reload
	call	_RNvMNtNtNtNtCs3bNtqN8jaZB_3std12backtrace_rs9symbolize5gimli3elfNtB4_7Mapping18load_dwarf_package
.Ltmp238:
	movabs	rbp, -9223372036854775808
	push	1
	.cfi_adjust_cfa_offset 8
	pop	r12
	.cfi_adjust_cfa_offset -8
	mov	r13, qword ptr [rsp + 304]      # 8-byte Reload
# %bb.133:
	lea	rcx, [rsp + 1312]
	mov	qword ptr [rcx], rbp
.Ltmp240:
	lea	rdi, [rsp + 2512]
	lea	rsi, [rsp + 320]
	lea	rdx, [rsp + 720]
	lea	r8, [rsp + 1904]
	call	_RNvMs_NtNtNtCs3bNtqN8jaZB_3std12backtrace_rs9symbolize5gimliNtB4_7Context3new
.Ltmp241:
# %bb.134:
	mov	rbx, qword ptr [rsp + 2512]
	cmp	rbx, rbp
	jne	.LBB47_140
.LBB47_135:
                                        # implicit-def: $r14
	mov	rbx, rbp
                                        # implicit-def: $xmm0
                                        # kill: killed $xmm0
                                        # implicit-def: $xmm0
                                        # kill: killed $xmm0
                                        # implicit-def: $xmm0
                                        # kill: killed $xmm0
                                        # implicit-def: $xmm0
                                        # kill: killed $xmm0
                                        # implicit-def: $xmm0
                                        # kill: killed $xmm0
                                        # implicit-def: $xmm0
                                        # kill: killed $xmm0
                                        # implicit-def: $xmm0
                                        # kill: killed $xmm0
                                        # implicit-def: $xmm0
                                        # kill: killed $xmm0
                                        # implicit-def: $xmm0
                                        # kill: killed $xmm0
                                        # implicit-def: $xmm0
                                        # kill: killed $xmm0
                                        # implicit-def: $xmm0
                                        # kill: killed $xmm0
                                        # implicit-def: $xmm0
                                        # kill: killed $xmm0
                                        # implicit-def: $xmm0
                                        # kill: killed $xmm0
                                        # implicit-def: $xmm0
                                        # kill: killed $xmm0
                                        # implicit-def: $xmm0
                                        # kill: killed $xmm0
                                        # implicit-def: $xmm0
                                        # kill: killed $xmm0
                                        # implicit-def: $xmm0
                                        # kill: killed $xmm0
                                        # implicit-def: $xmm0
                                        # kill: killed $xmm0
                                        # implicit-def: $xmm0
                                        # kill: killed $xmm0
                                        # implicit-def: $xmm0
                                        # kill: killed $xmm0
                                        # implicit-def: $xmm0
                                        # kill: killed $xmm0
                                        # implicit-def: $xmm0
                                        # kill: killed $xmm0
                                        # implicit-def: $xmm0
                                        # kill: killed $xmm0
                                        # implicit-def: $xmm0
                                        # kill: killed $xmm0
                                        # implicit-def: $xmm0
                                        # kill: killed $xmm0
                                        # implicit-def: $xmm0
                                        # kill: killed $xmm0
                                        # implicit-def: $xmm0
                                        # kill: killed $xmm0
                                        # implicit-def: $xmm0
                                        # kill: killed $xmm0
                                        # implicit-def: $xmm0
                                        # kill: killed $xmm0
                                        # implicit-def: $xmm0
                                        # kill: killed $xmm0
                                        # implicit-def: $xmm0
                                        # kill: killed $xmm0
                                        # implicit-def: $xmm0
                                        # kill: killed $xmm0
.LBB47_136:
	lea	rdi, [rsp + 320]
	call	_RINvNtCsfQL5qMWGko6_4core3ptr13drop_in_placeNtNtNtNtNtCs3bNtqN8jaZB_3std12backtrace_rs9symbolize5gimli5stash5StashEBQ_
	mov	rdi, qword ptr [rsp + 40]       # 8-byte Reload
	mov	rsi, r15
	call	qword ptr [rip + munmap@GOTPCREL]
	mov	r15, r14
	cmp	rbx, rbp
	movdqa	xmm1, xmmword ptr [rsp + 608]   # 16-byte Reload
	movaps	xmm2, xmmword ptr [rsp + 992]   # 16-byte Reload
	movaps	xmm3, xmmword ptr [rsp + 976]   # 16-byte Reload
	movaps	xmm4, xmmword ptr [rsp + 960]   # 16-byte Reload
	movaps	xmm5, xmmword ptr [rsp + 944]   # 16-byte Reload
	movaps	xmm6, xmmword ptr [rsp + 592]   # 16-byte Reload
	movaps	xmm7, xmmword ptr [rsp + 928]   # 16-byte Reload
	movaps	xmm8, xmmword ptr [rsp + 912]   # 16-byte Reload
	movaps	xmm9, xmmword ptr [rsp + 896]   # 16-byte Reload
	movaps	xmm10, xmmword ptr [rsp + 880]  # 16-byte Reload
	movaps	xmm11, xmmword ptr [rsp + 864]  # 16-byte Reload
	movaps	xmm12, xmmword ptr [rsp + 576]  # 16-byte Reload
	movaps	xmm13, xmmword ptr [rsp + 560]  # 16-byte Reload
	movaps	xmm14, xmmword ptr [rsp + 544]  # 16-byte Reload
	movaps	xmm15, xmmword ptr [rsp + 528]  # 16-byte Reload
	jne	.LBB47_141
	jmp	.LBB47_488
.LBB47_137:
	cmp	rdx, rax
	jae	.LBB47_488
# %bb.138:
	imul	rax, rdx, 584
	lea	rsi, [rax + rdi]
	add	rsi, 24
	lea	r8, [rip + _RNvNvMs0_NtNtNtCs3bNtqN8jaZB_3std12backtrace_rs9symbolize5gimliNtB7_5Cache11with_global14MAPPINGS_CACHE+24]
	lea	rax, [rsp + 1312]
	mov	ecx, 584
	mov	rdi, rax
	rep movsb es:[rdi], [rsi]
	lea	rdx, [rsp + 2512]
.LBB47_139:                             # =>This Inner Loop Header: Depth=1
	lea	r10, [r8 + 584]
	mov	ecx, 584
	mov	rsi, r8
	mov	rdi, rdx
	rep movsb es:[rdi], [rsi]
	mov	ecx, 584
	mov	rdi, r8
	mov	rsi, rax
	rep movsb es:[rdi], [rsi]
	mov	ecx, 584
	mov	rdi, rax
	mov	rsi, rdx
	rep movsb es:[rdi], [rsi]
	mov	r8, r10
	add	r9, -584
	jne	.LBB47_139
	jmp	.LBB47_149
.LBB47_140:
	movdqu	xmm1, xmmword ptr [rsp + 2520]
	movups	xmm2, xmmword ptr [rsp + 2536]
	movups	xmm3, xmmword ptr [rsp + 2552]
	movups	xmm4, xmmword ptr [rsp + 2568]
	movups	xmm5, xmmword ptr [rsp + 2584]
	movups	xmm6, xmmword ptr [rsp + 2600]
	movups	xmm7, xmmword ptr [rsp + 2616]
	movups	xmm8, xmmword ptr [rsp + 2632]
	movups	xmm9, xmmword ptr [rsp + 2648]
	movups	xmm10, xmmword ptr [rsp + 2664]
	movups	xmm11, xmmword ptr [rsp + 2680]
	movups	xmm12, xmmword ptr [rsp + 2696]
	movups	xmm13, xmmword ptr [rsp + 2712]
	movups	xmm14, xmmword ptr [rsp + 2728]
	movsd	xmm15, qword ptr [rsp + 3016]   # xmm15 = mem[0],zero
	movups	xmm0, xmmword ptr [rsp + 320]
	movaps	xmmword ptr [rsp + 464], xmm0
	movups	xmm0, xmmword ptr [rsp + 336]
	movaps	xmmword ptr [rsp + 480], xmm0
	movups	xmm0, xmmword ptr [rsp + 352]
	movaps	xmmword ptr [rsp + 496], xmm0
	movsd	xmm0, qword ptr [rsp + 40]      # 8-byte Reload
                                        # xmm0 = mem[0],zero
	movlhps	xmm15, xmm0                     # xmm15 = xmm15[0],xmm0[0]
	movaps	xmmword ptr [rsp + 208], xmm15  # 16-byte Spill
	movups	xmm15, xmmword ptr [rsp + 2744]
	movups	xmm0, xmmword ptr [rsp + 2760]
	movaps	xmmword ptr [rsp + 112], xmm0   # 16-byte Spill
	movups	xmm0, xmmword ptr [rsp + 2776]
	movaps	xmmword ptr [rsp + 624], xmm0   # 16-byte Spill
	movups	xmm0, xmmword ptr [rsp + 2792]
	movaps	xmmword ptr [rsp + 16], xmm0    # 16-byte Spill
	movups	xmm0, xmmword ptr [rsp + 2808]
	movaps	xmmword ptr [rsp + 80], xmm0    # 16-byte Spill
	movups	xmm0, xmmword ptr [rsp + 2824]
	movaps	xmmword ptr [rsp + 144], xmm0   # 16-byte Spill
	movups	xmm0, xmmword ptr [rsp + 2840]
	movaps	xmmword ptr [rsp + 128], xmm0   # 16-byte Spill
	movups	xmm0, xmmword ptr [rsp + 2856]
	movaps	xmmword ptr [rsp + 96], xmm0    # 16-byte Spill
	movups	xmm0, xmmword ptr [rsp + 2872]
	movaps	xmmword ptr [rsp + 176], xmm0   # 16-byte Spill
	movups	xmm0, xmmword ptr [rsp + 2888]
	movaps	xmmword ptr [rsp + 160], xmm0   # 16-byte Spill
	movups	xmm0, xmmword ptr [rsp + 2904]
	movaps	xmmword ptr [rsp + 272], xmm0   # 16-byte Spill
	movups	xmm0, xmmword ptr [rsp + 2920]
	movaps	xmmword ptr [rsp + 224], xmm0   # 16-byte Spill
	movups	xmm0, xmmword ptr [rsp + 2936]
	movaps	xmmword ptr [rsp + 240], xmm0   # 16-byte Spill
	movups	xmm0, xmmword ptr [rsp + 2952]
	movaps	xmmword ptr [rsp + 288], xmm0   # 16-byte Spill
	movups	xmm0, xmmword ptr [rsp + 2968]
	movaps	xmmword ptr [rsp + 672], xmm0   # 16-byte Spill
	movups	xmm0, xmmword ptr [rsp + 2984]
	movaps	xmmword ptr [rsp + 656], xmm0   # 16-byte Spill
	movdqu	xmm0, xmmword ptr [rsp + 3000]
	movdqa	xmmword ptr [rsp + 640], xmm0   # 16-byte Spill
.LBB47_141:
	movaps	xmm0, xmmword ptr [rsp + 496]
	movups	xmmword ptr [rsp + 2472], xmm0
	movaps	xmm0, xmmword ptr [rsp + 480]
	movups	xmmword ptr [rsp + 2456], xmm0
	movaps	xmm0, xmmword ptr [rsp + 464]
	movups	xmmword ptr [rsp + 2440], xmm0
	mov	rax, qword ptr [rsp + 8]        # 8-byte Reload
	mov	qword ptr [rsp + 1904], rax
	mov	qword ptr [rsp + 1912], rbx
	movdqu	xmmword ptr [rsp + 1920], xmm1
	movups	xmmword ptr [rsp + 1936], xmm2
	movups	xmmword ptr [rsp + 1952], xmm3
	movups	xmmword ptr [rsp + 1968], xmm4
	movups	xmmword ptr [rsp + 1984], xmm5
	movups	xmmword ptr [rsp + 2000], xmm6
	movups	xmmword ptr [rsp + 2016], xmm7
	movups	xmmword ptr [rsp + 2032], xmm8
	movups	xmmword ptr [rsp + 2048], xmm9
	movups	xmmword ptr [rsp + 2064], xmm10
	movups	xmmword ptr [rsp + 2080], xmm11
	movups	xmmword ptr [rsp + 2096], xmm12
	movups	xmmword ptr [rsp + 2112], xmm13
	movups	xmmword ptr [rsp + 2128], xmm14
	movups	xmmword ptr [rsp + 2144], xmm15
	movaps	xmm0, xmmword ptr [rsp + 112]   # 16-byte Reload
	movups	xmmword ptr [rsp + 2160], xmm0
	movaps	xmm0, xmmword ptr [rsp + 624]   # 16-byte Reload
	movups	xmmword ptr [rsp + 2176], xmm0
	movaps	xmm0, xmmword ptr [rsp + 16]    # 16-byte Reload
	movups	xmmword ptr [rsp + 2192], xmm0
	movaps	xmm0, xmmword ptr [rsp + 80]    # 16-byte Reload
	movups	xmmword ptr [rsp + 2208], xmm0
	movaps	xmm0, xmmword ptr [rsp + 144]   # 16-byte Reload
	movups	xmmword ptr [rsp + 2224], xmm0
	movaps	xmm0, xmmword ptr [rsp + 128]   # 16-byte Reload
	movups	xmmword ptr [rsp + 2240], xmm0
	movaps	xmm0, xmmword ptr [rsp + 96]    # 16-byte Reload
	movups	xmmword ptr [rsp + 2256], xmm0
	movaps	xmm0, xmmword ptr [rsp + 176]   # 16-byte Reload
	movups	xmmword ptr [rsp + 2272], xmm0
	movaps	xmm0, xmmword ptr [rsp + 160]   # 16-byte Reload
	movups	xmmword ptr [rsp + 2288], xmm0
	movaps	xmm0, xmmword ptr [rsp + 272]   # 16-byte Reload
	movups	xmmword ptr [rsp + 2304], xmm0
	movaps	xmm0, xmmword ptr [rsp + 224]   # 16-byte Reload
	movups	xmmword ptr [rsp + 2320], xmm0
	movaps	xmm0, xmmword ptr [rsp + 240]   # 16-byte Reload
	movups	xmmword ptr [rsp + 2336], xmm0
	movaps	xmm0, xmmword ptr [rsp + 288]   # 16-byte Reload
	movups	xmmword ptr [rsp + 2352], xmm0
	movaps	xmm0, xmmword ptr [rsp + 672]   # 16-byte Reload
	movups	xmmword ptr [rsp + 2368], xmm0
	movaps	xmm0, xmmword ptr [rsp + 656]   # 16-byte Reload
	movups	xmmword ptr [rsp + 2384], xmm0
	movaps	xmm0, xmmword ptr [rsp + 640]   # 16-byte Reload
	movups	xmmword ptr [rsp + 2400], xmm0
	movaps	xmm0, xmmword ptr [rsp + 208]   # 16-byte Reload
	movups	xmmword ptr [rsp + 2416], xmm0
	mov	qword ptr [rsp + 2432], r15
	mov	rax, qword ptr [rip + _RNvNvMs0_NtNtNtCs3bNtqN8jaZB_3std12backtrace_rs9symbolize5gimliNtB7_5Cache11with_global14MAPPINGS_CACHE+2360]
	cmp	rax, 4
	jne	.LBB47_144
# %bb.142:
	mov	qword ptr [rip + _RNvNvMs0_NtNtNtCs3bNtqN8jaZB_3std12backtrace_rs9symbolize5gimliNtB7_5Cache11with_global14MAPPINGS_CACHE+2360], 3
.Ltmp243:
	lea	rdi, [rip + _RNvNvMs0_NtNtNtCs3bNtqN8jaZB_3std12backtrace_rs9symbolize5gimliNtB7_5Cache11with_global14MAPPINGS_CACHE+1776]
	call	_RINvNtCsfQL5qMWGko6_4core3ptr13drop_in_placeTjNtNtNtNtCs3bNtqN8jaZB_3std12backtrace_rs9symbolize5gimli7MappingEEBQ_
.Ltmp244:
# %bb.143:
	mov	rax, qword ptr [rip + _RNvNvMs0_NtNtNtCs3bNtqN8jaZB_3std12backtrace_rs9symbolize5gimliNtB7_5Cache11with_global14MAPPINGS_CACHE+2360]
.LBB47_144:
	inc	rax
	lea	rdi, [rsp + 1312]
	lea	rsi, [rsp + 1904]
	mov	ecx, 584
	rep movsb es:[rdi], [rsi]
	cmp	rax, 5
	jae	.LBB47_512
# %bb.145:
	test	rax, rax
	je	.LBB47_148
# %bb.146:
	imul	r10, rax, 584
	xor	r11d, r11d
	lea	rbx, [rip + _RNvNvMs0_NtNtNtCs3bNtqN8jaZB_3std12backtrace_rs9symbolize5gimliNtB7_5Cache11with_global14MAPPINGS_CACHE]
	lea	rdx, [rsp + 2512]
	lea	r8, [rsp + 1312]
.LBB47_147:                             # =>This Inner Loop Header: Depth=1
	lea	r9, [r11 + rbx]
	add	r9, 24
	mov	ecx, 584
	mov	rdi, rdx
	mov	rsi, r9
	rep movsb es:[rdi], [rsi]
	mov	ecx, 584
	mov	rdi, r9
	mov	rsi, r8
	rep movsb es:[rdi], [rsi]
	mov	ecx, 584
	mov	rdi, r8
	mov	rsi, rdx
	rep movsb es:[rdi], [rsi]
	add	r11, 584
	cmp	r10, r11
	jne	.LBB47_147
.LBB47_148:
	mov	qword ptr [rip + _RNvNvMs0_NtNtNtCs3bNtqN8jaZB_3std12backtrace_rs9symbolize5gimliNtB7_5Cache11with_global14MAPPINGS_CACHE+2360], rax
	mov	rbx, qword ptr [rsp + 200]      # 8-byte Reload
.LBB47_149:
	sub	rbx, r13
	mov	rax, qword ptr [rip + _RNvNvMs0_NtNtNtCs3bNtqN8jaZB_3std12backtrace_rs9symbolize5gimliNtB7_5Cache11with_global14MAPPINGS_CACHE+496]
	mov	rdx, qword ptr [rip + _RNvNvMs0_NtNtNtCs3bNtqN8jaZB_3std12backtrace_rs9symbolize5gimliNtB7_5Cache11with_global14MAPPINGS_CACHE+504]
	mov	rdi, rdx
	mov	rcx, rdx
	test	rdx, rdx
	je	.LBB47_157
# %bb.150:
	cmp	rdx, 1
	jne	.LBB47_152
# %bb.151:
	xor	edi, edi
	jmp	.LBB47_154
.LBB47_152:
	xor	esi, esi
	mov	rcx, rdx
.LBB47_153:                             # =>This Inner Loop Header: Depth=1
	mov	r8, rcx
	shr	r8
	lea	rdi, [r8 + rsi]
	mov	r9, rdi
	shl	r9, 5
	cmp	qword ptr [rax + r9 + 8], rbx
	cmova	rdi, rsi
	sub	rcx, r8
	mov	rsi, rdi
	cmp	rcx, 1
	ja	.LBB47_153
.LBB47_154:
	mov	rcx, rdi
	shl	rcx, 5
	cmp	qword ptr [rax + rcx + 8], rbx
	jne	.LBB47_156
# %bb.155:
	mov	rcx, r12
	jmp	.LBB47_157
.LBB47_156:
	adc	rdi, 0
	xor	ecx, ecx
.LBB47_157:
	add	rdi, rcx
	cmp	rdi, rdx
	ja	.LBB47_513
# %bb.158:
	push	3
	.cfi_adjust_cfa_offset 8
	pop	rcx
	.cfi_adjust_cfa_offset -8
	mov	qword ptr [rsp + 200], rbx      # 8-byte Spill
	je	.LBB47_279
# %bb.159:
	lea	r12, [rbx + 1]
	shl	rdx, 5
	lea	r15, [rax + rdx]
	shl	rdi, 5
	add	rax, rdi
	sub	rdx, rdi
.LBB47_160:                             # =>This Inner Loop Header: Depth=1
	lea	rbp, [rax + 32]
	cmp	r12, qword ptr [rax + 24]
	jbe	.LBB47_164
# %bb.161:                              #   in Loop: Header=BB47_160 Depth=1
	cmp	rbx, qword ptr [rax + 8]
	jae	.LBB47_163
# %bb.162:                              #   in Loop: Header=BB47_160 Depth=1
	cmp	r12, qword ptr [rax]
	ja	.LBB47_274
.LBB47_163:                             #   in Loop: Header=BB47_160 Depth=1
	mov	rax, rbp
	add	rdx, -32
	jne	.LBB47_160
	jmp	.LBB47_279
.LBB47_164:
	lea	rdx, [rsp + 2512]
	mov	r14b, 1
	xor	eax, eax
	jmp	.LBB47_276
.LBB47_165:
	lea	rsi, [rsp + 2528]
	and	qword ptr [rsi - 16], 0
	mov	qword ptr [rsi - 8], rbx
	mov	qword ptr [rsi], r14
	mov	qword ptr [rsi + 8], rbx
	and	qword ptr [rsi + 16], 0
	mov	qword ptr [rsi + 24], rbx
	movabs	rax, 42949672970
	mov	qword ptr [rsi + 32], rax
	mov	byte ptr [rsi + 40], 1
	and	word ptr [rsi + 48], 0
	push	8
	.cfi_adjust_cfa_offset 8
	pop	rax
	.cfi_adjust_cfa_offset -8
	mov	qword ptr [rsp + 208], rax      # 8-byte Spill
	xor	r12d, r12d
	lea	rdi, [rsp + 1312]
.LBB47_166:                             # =>This Loop Header: Depth=1
                                        #     Child Loop BB47_222 Depth 2
                                        #     Child Loop BB47_219 Depth 2
                                        #     Child Loop BB47_237 Depth 2
                                        #     Child Loop BB47_234 Depth 2
                                        #     Child Loop BB47_255 Depth 2
                                        #     Child Loop BB47_252 Depth 2
	mov	r15, qword ptr [rsp + 2528]
.Ltmp137:
	call	_RNvXs_NtNtCsfQL5qMWGko6_4core3str7patternNtB4_12CharSearcherNtB4_8Searcher10next_match
.Ltmp138:
# %bb.167:                              #   in Loop: Header=BB47_166 Depth=1
	cmp	dword ptr [rsp + 1312], 1
	jne	.LBB47_169
# %bb.168:                              #   in Loop: Header=BB47_166 Depth=1
	mov	r13, qword ptr [rsp + 1328]
	mov	rax, qword ptr [rsp + 2512]
	mov	qword ptr [rsp + 2512], r13
	sub	r13, rax
	add	r15, rax
	jmp	.LBB47_172
.LBB47_169:                             #   in Loop: Header=BB47_166 Depth=1
	cmp	byte ptr [rsp + 2577], 0
	jne	.LBB47_271
# %bb.170:                              #   in Loop: Header=BB47_166 Depth=1
	mov	byte ptr [rsp + 2577], 1
	mov	r15, qword ptr [rsp + 2512]
	mov	r13, qword ptr [rsp + 2520]
	sub	r13, r15
	setne	al
	or	al, byte ptr [rsp + 2576]
	cmp	al, 1
	jne	.LBB47_271
# %bb.171:                              #   in Loop: Header=BB47_166 Depth=1
	add	r15, qword ptr [rsp + 2528]
.LBB47_172:                             #   in Loop: Header=BB47_166 Depth=1
	test	r13, r13
	je	.LBB47_176
# %bb.173:                              #   in Loop: Header=BB47_166 Depth=1
	cmp	byte ptr [r15 + r13 - 1], 10
	jne	.LBB47_179
# %bb.174:                              #   in Loop: Header=BB47_166 Depth=1
	mov	rax, r13
	dec	rax
	je	.LBB47_177
# %bb.175:                              #   in Loop: Header=BB47_166 Depth=1
	cmp	byte ptr [r15 + r13 - 2], 13
	lea	r13, [r13 - 2]
	mov	ecx, 0
	cmove	rcx, r15
	jmp	.LBB47_178
.LBB47_176:                             #   in Loop: Header=BB47_166 Depth=1
	xor	r13d, r13d
	jmp	.LBB47_179
.LBB47_177:                             #   in Loop: Header=BB47_166 Depth=1
	push	-1
	.cfi_adjust_cfa_offset 8
	pop	r13
	.cfi_adjust_cfa_offset -8
	xor	ecx, ecx
.LBB47_178:                             #   in Loop: Header=BB47_166 Depth=1
	test	rcx, rcx
	cmovne	r15, rcx
	cmove	r13, rax
.LBB47_179:                             #   in Loop: Header=BB47_166 Depth=1
	mov	rdi, r15
	mov	rsi, r13
	call	_RINvMNtCsfQL5qMWGko6_4core3stre18trim_start_matchesNvMNtNtB5_4char7methodsc13is_whitespaceECs3bNtqN8jaZB_3std
	mov	rbx, rax
	mov	qword ptr [rsp + 1312], rax
	mov	qword ptr [rsp + 1320], rdx
	and	qword ptr [rsp + 1328], 0
	mov	qword ptr [rsp + 80], rdx       # 8-byte Spill
	mov	qword ptr [rsp + 1336], rdx
	mov	byte ptr [rsp + 1352], 1
	movabs	rax, 137438953504
	mov	qword ptr [rsp + 1344], rax
.Ltmp139:
	lea	rdi, [rsp + 1904]
	lea	rsi, [rsp + 1312]
	call	_RNvXs_NtNtCsfQL5qMWGko6_4core3str7patternNtB4_12CharSearcherNtB4_8Searcher10next_match
.Ltmp140:
# %bb.180:                              #   in Loop: Header=BB47_166 Depth=1
	cmp	byte ptr [rsp + 1904], 0
	je	.LBB47_183
# %bb.181:                              #   in Loop: Header=BB47_166 Depth=1
	test	rbx, rbx
	je	.LBB47_183
# %bb.182:                              #   in Loop: Header=BB47_166 Depth=1
	mov	r13, qword ptr [rsp + 1912]
	mov	rax, qword ptr [rsp + 1920]
	mov	rcx, rbx
	add	rcx, rax
	mov	qword ptr [rsp + 128], rcx      # 8-byte Spill
	sub	qword ptr [rsp + 80], rax       # 8-byte Folded Spill
	mov	r15, rbx
	jmp	.LBB47_184
.LBB47_183:                             #   in Loop: Header=BB47_166 Depth=1
	push	1
	.cfi_adjust_cfa_offset 8
	pop	rax
	.cfi_adjust_cfa_offset -8
	mov	qword ptr [rsp + 128], rax      # 8-byte Spill
	mov	qword ptr [rsp + 80], 0         # 8-byte Folded Spill
.LBB47_184:                             #   in Loop: Header=BB47_166 Depth=1
	test	r13, r13
	je	.LBB47_65
# %bb.185:                              #   in Loop: Header=BB47_166 Depth=1
	mov	rdi, qword ptr [rsp + 128]      # 8-byte Reload
	mov	rsi, qword ptr [rsp + 80]       # 8-byte Reload
	call	_RINvMNtCsfQL5qMWGko6_4core3stre18trim_start_matchesNvMNtNtB5_4char7methodsc13is_whitespaceECs3bNtqN8jaZB_3std
	mov	rbx, rax
	mov	qword ptr [rsp + 1312], rax
	mov	qword ptr [rsp + 1320], rdx
	and	qword ptr [rsp + 1328], 0
	mov	r14, rdx
	mov	qword ptr [rsp + 1336], rdx
	mov	byte ptr [rsp + 1352], 1
	movabs	rax, 137438953504
	mov	qword ptr [rsp + 1344], rax
.Ltmp141:
	lea	rdi, [rsp + 1904]
	lea	rsi, [rsp + 1312]
	call	_RNvXs_NtNtCsfQL5qMWGko6_4core3str7patternNtB4_12CharSearcherNtB4_8Searcher10next_match
.Ltmp142:
# %bb.186:                              #   in Loop: Header=BB47_166 Depth=1
	cmp	byte ptr [rsp + 1904], 0
	je	.LBB47_189
# %bb.187:                              #   in Loop: Header=BB47_166 Depth=1
	test	rbx, rbx
	je	.LBB47_189
# %bb.188:                              #   in Loop: Header=BB47_166 Depth=1
	mov	rax, qword ptr [rsp + 1912]
	mov	qword ptr [rsp + 80], rax       # 8-byte Spill
	mov	rax, qword ptr [rsp + 1920]
	mov	rcx, rbx
	add	rcx, rax
	mov	qword ptr [rsp + 16], rcx       # 8-byte Spill
	mov	rsi, r14
	sub	rsi, rax
	mov	qword ptr [rsp + 128], rbx      # 8-byte Spill
	jmp	.LBB47_190
.LBB47_189:                             #   in Loop: Header=BB47_166 Depth=1
	push	1
	.cfi_adjust_cfa_offset 8
	pop	rax
	.cfi_adjust_cfa_offset -8
	mov	qword ptr [rsp + 16], rax       # 8-byte Spill
	xor	esi, esi
.LBB47_190:                             #   in Loop: Header=BB47_166 Depth=1
	cmp	qword ptr [rsp + 80], 0         # 8-byte Folded Reload
	je	.LBB47_65
# %bb.191:                              #   in Loop: Header=BB47_166 Depth=1
	mov	rdi, qword ptr [rsp + 16]       # 8-byte Reload
	mov	r14, rsi
	call	_RINvMNtCsfQL5qMWGko6_4core3stre18trim_start_matchesNvMNtNtB5_4char7methodsc13is_whitespaceECs3bNtqN8jaZB_3std
	mov	rbx, rax
	mov	qword ptr [rsp + 1312], rax
	mov	qword ptr [rsp + 1320], rdx
	and	qword ptr [rsp + 1328], 0
	mov	qword ptr [rsp + 8], rdx        # 8-byte Spill
	mov	qword ptr [rsp + 1336], rdx
	mov	byte ptr [rsp + 1352], 1
	movabs	rax, 137438953504
	mov	qword ptr [rsp + 1344], rax
.Ltmp143:
	lea	rdi, [rsp + 1904]
	lea	rsi, [rsp + 1312]
	call	_RNvXs_NtNtCsfQL5qMWGko6_4core3str7patternNtB4_12CharSearcherNtB4_8Searcher10next_match
.Ltmp144:
# %bb.192:                              #   in Loop: Header=BB47_166 Depth=1
	cmp	byte ptr [rsp + 1904], 0
	je	.LBB47_195
# %bb.193:                              #   in Loop: Header=BB47_166 Depth=1
	test	rbx, rbx
	je	.LBB47_195
# %bb.194:                              #   in Loop: Header=BB47_166 Depth=1
	mov	r14, qword ptr [rsp + 1912]
	mov	rax, qword ptr [rsp + 1920]
	mov	rcx, rbx
	add	rcx, rax
	mov	qword ptr [rsp], rcx            # 8-byte Spill
	sub	qword ptr [rsp + 8], rax        # 8-byte Folded Spill
	mov	qword ptr [rsp + 16], rbx       # 8-byte Spill
	jmp	.LBB47_196
.LBB47_195:                             #   in Loop: Header=BB47_166 Depth=1
	push	1
	.cfi_adjust_cfa_offset 8
	pop	rax
	.cfi_adjust_cfa_offset -8
	mov	qword ptr [rsp], rax            # 8-byte Spill
	mov	qword ptr [rsp + 8], 0          # 8-byte Folded Spill
.LBB47_196:                             #   in Loop: Header=BB47_166 Depth=1
	test	r14, r14
	je	.LBB47_65
# %bb.197:                              #   in Loop: Header=BB47_166 Depth=1
	mov	qword ptr [rsp + 160], r14      # 8-byte Spill
	mov	rdi, qword ptr [rsp]            # 8-byte Reload
	mov	rsi, qword ptr [rsp + 8]        # 8-byte Reload
	call	_RINvMNtCsfQL5qMWGko6_4core3stre18trim_start_matchesNvMNtNtB5_4char7methodsc13is_whitespaceECs3bNtqN8jaZB_3std
	mov	rbx, rax
	mov	qword ptr [rsp + 1312], rax
	mov	qword ptr [rsp + 1320], rdx
	and	qword ptr [rsp + 1328], 0
	mov	qword ptr [rsp + 144], rdx      # 8-byte Spill
	mov	qword ptr [rsp + 1336], rdx
	mov	byte ptr [rsp + 1352], 1
	movabs	rax, 137438953504
	mov	qword ptr [rsp + 1344], rax
.Ltmp145:
	lea	rdi, [rsp + 1904]
	lea	rsi, [rsp + 1312]
	call	_RNvXs_NtNtCsfQL5qMWGko6_4core3str7patternNtB4_12CharSearcherNtB4_8Searcher10next_match
.Ltmp146:
# %bb.198:                              #   in Loop: Header=BB47_166 Depth=1
	cmp	byte ptr [rsp + 1904], 0
	je	.LBB47_201
# %bb.199:                              #   in Loop: Header=BB47_166 Depth=1
	test	rbx, rbx
	je	.LBB47_201
# %bb.200:                              #   in Loop: Header=BB47_166 Depth=1
	mov	rax, qword ptr [rsp + 1912]
	mov	qword ptr [rsp + 8], rax        # 8-byte Spill
	mov	rax, qword ptr [rsp + 1920]
	mov	rcx, rbx
	add	rcx, rax
	mov	qword ptr [rsp + 96], rcx       # 8-byte Spill
	sub	qword ptr [rsp + 144], rax      # 8-byte Folded Spill
	mov	qword ptr [rsp], rbx            # 8-byte Spill
	jmp	.LBB47_202
.LBB47_201:                             #   in Loop: Header=BB47_166 Depth=1
	push	1
	.cfi_adjust_cfa_offset 8
	pop	rax
	.cfi_adjust_cfa_offset -8
	mov	qword ptr [rsp + 96], rax       # 8-byte Spill
	mov	qword ptr [rsp + 144], 0        # 8-byte Folded Spill
.LBB47_202:                             #   in Loop: Header=BB47_166 Depth=1
	cmp	qword ptr [rsp + 8], 0          # 8-byte Folded Reload
	je	.LBB47_65
# %bb.203:                              #   in Loop: Header=BB47_166 Depth=1
	mov	rdi, qword ptr [rsp + 96]       # 8-byte Reload
	mov	rsi, qword ptr [rsp + 144]      # 8-byte Reload
	call	_RINvMNtCsfQL5qMWGko6_4core3stre18trim_start_matchesNvMNtNtB5_4char7methodsc13is_whitespaceECs3bNtqN8jaZB_3std
	mov	r14, rax
	mov	rbx, rdx
	mov	qword ptr [rsp + 1312], rax
	mov	qword ptr [rsp + 1320], rdx
	and	qword ptr [rsp + 1328], 0
	mov	qword ptr [rsp + 1336], rdx
	mov	byte ptr [rsp + 1352], 1
	movabs	rax, 137438953504
	mov	qword ptr [rsp + 1344], rax
.Ltmp147:
	lea	rdi, [rsp + 1904]
	lea	rsi, [rsp + 1312]
	call	_RNvXs_NtNtCsfQL5qMWGko6_4core3str7patternNtB4_12CharSearcherNtB4_8Searcher10next_match
.Ltmp148:
# %bb.204:                              #   in Loop: Header=BB47_166 Depth=1
	cmp	byte ptr [rsp + 1904], 0
	je	.LBB47_207
# %bb.205:                              #   in Loop: Header=BB47_166 Depth=1
	test	r14, r14
	je	.LBB47_207
# %bb.206:                              #   in Loop: Header=BB47_166 Depth=1
	mov	rax, qword ptr [rsp + 1912]
	mov	qword ptr [rsp + 144], rax      # 8-byte Spill
	mov	rax, qword ptr [rsp + 1920]
	mov	rdi, r14
	add	rdi, rax
	sub	rbx, rax
	mov	qword ptr [rsp + 96], r14       # 8-byte Spill
	jmp	.LBB47_208
.LBB47_207:                             #   in Loop: Header=BB47_166 Depth=1
	push	1
	.cfi_adjust_cfa_offset 8
	pop	rdi
	.cfi_adjust_cfa_offset -8
	xor	ebx, ebx
.LBB47_208:                             #   in Loop: Header=BB47_166 Depth=1
	cmp	qword ptr [rsp + 144], 0        # 8-byte Folded Reload
	je	.LBB47_65
# %bb.209:                              #   in Loop: Header=BB47_166 Depth=1
	mov	rsi, rbx
	call	_RINvMNtCsfQL5qMWGko6_4core3stre18trim_start_matchesNvMNtNtB5_4char7methodsc13is_whitespaceECs3bNtqN8jaZB_3std
	mov	qword ptr [rsp + 272], rax      # 8-byte Spill
	mov	qword ptr [rsp + 1312], r15
	mov	qword ptr [rsp + 1320], r13
	and	qword ptr [rsp + 1328], 0
	mov	qword ptr [rsp + 176], rdx      # 8-byte Spill
	mov	qword ptr [rsp + 1336], r13
	mov	byte ptr [rsp + 1352], 1
	movabs	rax, 193273528365
	mov	qword ptr [rsp + 1344], rax
.Ltmp149:
	lea	rdi, [rsp + 1904]
	lea	rsi, [rsp + 1312]
	call	_RNvXs_NtNtCsfQL5qMWGko6_4core3str7patternNtB4_12CharSearcherNtB4_8Searcher10next_match
.Ltmp150:
# %bb.210:                              #   in Loop: Header=BB47_166 Depth=1
	cmp	dword ptr [rsp + 1904], 1
	jne	.LBB47_65
# %bb.211:                              #   in Loop: Header=BB47_166 Depth=1
	mov	rcx, qword ptr [rsp + 1912]
	mov	rax, qword ptr [rsp + 1920]
	cmp	rcx, 1
	je	.LBB47_214
# %bb.212:                              #   in Loop: Header=BB47_166 Depth=1
	test	rcx, rcx
	je	.LBB47_65
# %bb.213:                              #   in Loop: Header=BB47_166 Depth=1
	mov	sil, byte ptr [r15]
	jmp	.LBB47_216
.LBB47_214:                             #   in Loop: Header=BB47_166 Depth=1
	movzx	esi, byte ptr [r15]
	cmp	esi, 43
	je	.LBB47_65
# %bb.215:                              #   in Loop: Header=BB47_166 Depth=1
	cmp	esi, 45
	je	.LBB47_65
.LBB47_216:                             #   in Loop: Header=BB47_166 Depth=1
	xor	edx, edx
	cmp	sil, 43
	sete	dl
	mov	rsi, rdx
	neg	rsi
	mov	rdi, rcx
	sub	rdi, rdx
	add	rdx, r15
	cmp	rdi, 17
	jae	.LBB47_221
# %bb.217:                              #   in Loop: Header=BB47_166 Depth=1
	test	rdi, rdi
	je	.LBB47_225
# %bb.218:                              #   in Loop: Header=BB47_166 Depth=1
	add	rcx, rsi
	neg	rcx
	xor	esi, esi
	xor	ebx, ebx
.LBB47_219:                             #   Parent Loop BB47_166 Depth=1
                                        # =>  This Inner Loop Header: Depth=2
	movzx	r8d, byte ptr [rdx + rsi]
	lea	r9d, [r8 - 65]
	and	r9d, -33
	add	r9d, 10
	lea	edi, [r8 - 48]
	cmp	r8d, 58
	cmovae	edi, r9d
	cmp	edi, 15
	ja	.LBB47_65
# %bb.220:                              #   in Loop: Header=BB47_219 Depth=2
	shl	rbx, 4
	mov	edi, edi
	or	rbx, rdi
	inc	rsi
	mov	rdi, rcx
	add	rdi, rsi
	jne	.LBB47_219
	jmp	.LBB47_226
.LBB47_221:                             #   in Loop: Header=BB47_166 Depth=1
	add	rcx, rsi
	neg	rcx
	xor	esi, esi
	xor	ebx, ebx
.LBB47_222:                             #   Parent Loop BB47_166 Depth=1
                                        # =>  This Inner Loop Header: Depth=2
	mov	rdi, rcx
	add	rdi, rsi
	je	.LBB47_226
# %bb.223:                              #   in Loop: Header=BB47_222 Depth=2
	movzx	r8d, byte ptr [rdx + rsi]
	lea	r9d, [r8 - 65]
	and	r9d, -33
	add	r9d, 10
	lea	edi, [r8 - 48]
	cmp	r8d, 58
	cmovae	edi, r9d
	cmp	edi, 15
	ja	.LBB47_65
# %bb.224:                              #   in Loop: Header=BB47_222 Depth=2
	mov	r8, rbx
	shl	r8, 4
	mov	edi, edi
	or	rdi, r8
	inc	rsi
	movabs	r8, 1152921504606846975
	cmp	rbx, r8
	mov	rbx, rdi
	jbe	.LBB47_222
	jmp	.LBB47_65
.LBB47_225:                             #   in Loop: Header=BB47_166 Depth=1
	xor	ebx, ebx
.LBB47_226:                             #   in Loop: Header=BB47_166 Depth=1
	sub	r13, rax
	add	r15, rax
	cmp	r13, 1
	je	.LBB47_229
# %bb.227:                              #   in Loop: Header=BB47_166 Depth=1
	test	r13, r13
	je	.LBB47_65
# %bb.228:                              #   in Loop: Header=BB47_166 Depth=1
	mov	al, byte ptr [r15]
	jmp	.LBB47_231
.LBB47_229:                             #   in Loop: Header=BB47_166 Depth=1
	movzx	eax, byte ptr [r15]
	cmp	eax, 43
	je	.LBB47_65
# %bb.230:                              #   in Loop: Header=BB47_166 Depth=1
	cmp	eax, 45
	je	.LBB47_65
.LBB47_231:                             #   in Loop: Header=BB47_166 Depth=1
	xor	ecx, ecx
	cmp	al, 43
	sete	cl
	sub	r13, rcx
	add	r15, rcx
	cmp	r13, 17
	jae	.LBB47_236
# %bb.232:                              #   in Loop: Header=BB47_166 Depth=1
	test	r13, r13
	je	.LBB47_240
# %bb.233:                              #   in Loop: Header=BB47_166 Depth=1
	xor	eax, eax
	xor	r14d, r14d
.LBB47_234:                             #   Parent Loop BB47_166 Depth=1
                                        # =>  This Inner Loop Header: Depth=2
	movzx	edx, byte ptr [r15 + rax]
	lea	esi, [rdx - 65]
	and	esi, -33
	add	esi, 10
	lea	ecx, [rdx - 48]
	cmp	edx, 58
	cmovae	ecx, esi
	cmp	ecx, 15
	ja	.LBB47_65
# %bb.235:                              #   in Loop: Header=BB47_234 Depth=2
	shl	r14, 4
	mov	ecx, ecx
	or	r14, rcx
	inc	rax
	cmp	r13, rax
	jne	.LBB47_234
	jmp	.LBB47_241
.LBB47_236:                             #   in Loop: Header=BB47_166 Depth=1
	xor	eax, eax
	xor	r14d, r14d
.LBB47_237:                             #   Parent Loop BB47_166 Depth=1
                                        # =>  This Inner Loop Header: Depth=2
	cmp	r13, rax
	je	.LBB47_241
# %bb.238:                              #   in Loop: Header=BB47_237 Depth=2
	movzx	edx, byte ptr [r15 + rax]
	lea	esi, [rdx - 65]
	and	esi, -33
	add	esi, 10
	lea	ecx, [rdx - 48]
	cmp	edx, 58
	cmovae	ecx, esi
	cmp	ecx, 15
	ja	.LBB47_65
# %bb.239:                              #   in Loop: Header=BB47_237 Depth=2
	mov	rdx, r14
	shl	rdx, 4
	mov	ecx, ecx
	or	rcx, rdx
	inc	rax
	movabs	rdx, 1152921504606846975
	cmp	r14, rdx
	mov	r14, rcx
	jbe	.LBB47_237
	jmp	.LBB47_65
.LBB47_240:                             #   in Loop: Header=BB47_166 Depth=1
	xor	r14d, r14d
.LBB47_241:                             #   in Loop: Header=BB47_166 Depth=1
	mov	rax, qword ptr [rsp + 80]       # 8-byte Reload
	mov	rcx, qword ptr [rsp + 128]      # 8-byte Reload
	add	rax, rcx
	mov	qword ptr [rsp + 1312], rcx
	mov	qword ptr [rsp + 1320], rax
	lea	r15, [rsp + 1312]
	mov	rdi, r15
	call	_RINvNtNtCsfQL5qMWGko6_4core3str11validations15next_code_pointINtNtNtB6_5slice4iter4IterhEECs3bNtqN8jaZB_3std
	test	al, 1
	je	.LBB47_65
# %bb.242:                              #   in Loop: Header=BB47_166 Depth=1
	mov	r13d, edx
	mov	rdi, r15
	call	_RINvNtNtCsfQL5qMWGko6_4core3str11validations15next_code_pointINtNtNtB6_5slice4iter4IterhEECs3bNtqN8jaZB_3std
	mov	dword ptr [rsp + 80], edx       # 4-byte Spill
	test	al, 1
	je	.LBB47_65
# %bb.243:                              #   in Loop: Header=BB47_166 Depth=1
	mov	rdi, r15
	call	_RINvNtNtCsfQL5qMWGko6_4core3str11validations15next_code_pointINtNtNtB6_5slice4iter4IterhEECs3bNtqN8jaZB_3std
	mov	dword ptr [rsp + 128], edx      # 4-byte Spill
	test	al, 1
	je	.LBB47_65
# %bb.244:                              #   in Loop: Header=BB47_166 Depth=1
	mov	rdi, r15
	call	_RINvNtNtCsfQL5qMWGko6_4core3str11validations15next_code_pointINtNtNtB6_5slice4iter4IterhEECs3bNtqN8jaZB_3std
	mov	dword ptr [rsp + 224], edx      # 4-byte Spill
	test	al, 1
	je	.LBB47_65
# %bb.245:                              #   in Loop: Header=BB47_166 Depth=1
	mov	rdi, r15
	call	_RINvNtNtCsfQL5qMWGko6_4core3str11validations15next_code_pointINtNtNtB6_5slice4iter4IterhEECs3bNtqN8jaZB_3std
	test	al, 1
	jne	.LBB47_65
# %bb.246:                              #   in Loop: Header=BB47_166 Depth=1
	mov	dword ptr [rsp + 240], r13d     # 4-byte Spill
	mov	rax, qword ptr [rsp + 16]       # 8-byte Reload
	movzx	eax, byte ptr [rax]
	mov	rdi, qword ptr [rsp + 160]      # 8-byte Reload
	cmp	rdi, 1
	jne	.LBB47_249
# %bb.247:                              #   in Loop: Header=BB47_166 Depth=1
	cmp	eax, 43
	je	.LBB47_65
# %bb.248:                              #   in Loop: Header=BB47_166 Depth=1
	cmp	eax, 45
	je	.LBB47_65
.LBB47_249:                             #   in Loop: Header=BB47_166 Depth=1
	xor	edx, edx
	cmp	eax, 43
	sete	dl
	mov	rcx, rdi
	sub	rcx, rdx
	add	qword ptr [rsp + 16], rdx       # 8-byte Folded Spill
	mov	rax, rdx
	neg	rax
	cmp	rcx, 17
	jae	.LBB47_254
# %bb.250:                              #   in Loop: Header=BB47_166 Depth=1
	test	rcx, rcx
	je	.LBB47_258
# %bb.251:                              #   in Loop: Header=BB47_166 Depth=1
	add	rdi, rax
	neg	rdi
	xor	eax, eax
	xor	r13d, r13d
.LBB47_252:                             #   Parent Loop BB47_166 Depth=1
                                        # =>  This Inner Loop Header: Depth=2
	mov	rcx, qword ptr [rsp + 16]       # 8-byte Reload
	movzx	edx, byte ptr [rcx + rax]
	lea	esi, [rdx - 65]
	and	esi, -33
	add	esi, 10
	lea	ecx, [rdx - 48]
	cmp	edx, 58
	cmovae	ecx, esi
	cmp	ecx, 15
	ja	.LBB47_65
# %bb.253:                              #   in Loop: Header=BB47_252 Depth=2
	shl	r13, 4
	mov	ecx, ecx
	or	r13, rcx
	inc	rax
	mov	rcx, rdi
	add	rcx, rax
	jne	.LBB47_252
	jmp	.LBB47_259
.LBB47_254:                             #   in Loop: Header=BB47_166 Depth=1
	add	rdi, rax
	neg	rdi
	xor	eax, eax
	xor	r13d, r13d
.LBB47_255:                             #   Parent Loop BB47_166 Depth=1
                                        # =>  This Inner Loop Header: Depth=2
	movabs	rcx, 1152921504606846975
	cmp	r13, rcx
	ja	.LBB47_65
# %bb.256:                              #   in Loop: Header=BB47_255 Depth=2
	mov	rcx, qword ptr [rsp + 16]       # 8-byte Reload
	movzx	edx, byte ptr [rcx + rax]
	lea	esi, [rdx - 48]
	lea	ecx, [rdx - 65]
	and	ecx, -33
	add	ecx, 10
	cmp	edx, 58
	cmovb	ecx, esi
	cmp	ecx, 16
	jae	.LBB47_65
# %bb.257:                              #   in Loop: Header=BB47_255 Depth=2
	shl	r13, 4
	mov	ecx, ecx
	or	r13, rcx
	inc	rax
	mov	rcx, rdi
	add	rcx, rax
	je	.LBB47_259
	jmp	.LBB47_255
.LBB47_258:                             #   in Loop: Header=BB47_166 Depth=1
	xor	r13d, r13d
.LBB47_259:                             #   in Loop: Header=BB47_166 Depth=1
	mov	rax, qword ptr [rsp]            # 8-byte Reload
	mov	qword ptr [rsp + 1312], rax
	mov	rax, qword ptr [rsp + 8]        # 8-byte Reload
	mov	qword ptr [rsp + 1320], rax
	and	qword ptr [rsp + 1328], 0
	mov	qword ptr [rsp + 1336], rax
	mov	byte ptr [rsp + 1352], 1
	movabs	rax, 249108103226
	mov	qword ptr [rsp + 1344], rax
.Ltmp151:
	lea	rdi, [rsp + 1904]
	lea	rsi, [rsp + 1312]
	call	_RNvXs_NtNtCsfQL5qMWGko6_4core3str7patternNtB4_12CharSearcherNtB4_8Searcher10next_match
.Ltmp152:
# %bb.260:                              #   in Loop: Header=BB47_166 Depth=1
	cmp	byte ptr [rsp + 1904], 0
	je	.LBB47_65
# %bb.261:                              #   in Loop: Header=BB47_166 Depth=1
	mov	rdx, qword ptr [rsp + 1912]
	mov	r15, qword ptr [rsp + 1920]
	lea	rdi, [rsp + 1312]
	mov	rsi, qword ptr [rsp]            # 8-byte Reload
	call	_RNvMsv_NtCsfQL5qMWGko6_4core3numj16from_ascii_radix
	cmp	byte ptr [rsp + 1312], 0
	jne	.LBB47_65
# %bb.262:                              #   in Loop: Header=BB47_166 Depth=1
	mov	rax, qword ptr [rsp + 1320]
	mov	qword ptr [rsp + 16], rax       # 8-byte Spill
	mov	rsi, qword ptr [rsp]            # 8-byte Reload
	add	rsi, r15
	mov	rdx, qword ptr [rsp + 8]        # 8-byte Reload
	sub	rdx, r15
	lea	rdi, [rsp + 1312]
	call	_RNvMsv_NtCsfQL5qMWGko6_4core3numj16from_ascii_radix
	cmp	byte ptr [rsp + 1312], 0
	jne	.LBB47_65
# %bb.263:                              #   in Loop: Header=BB47_166 Depth=1
	mov	rax, qword ptr [rsp + 1320]
	mov	qword ptr [rsp + 8], rax        # 8-byte Spill
	lea	rdi, [rsp + 1312]
	mov	rsi, qword ptr [rsp + 96]       # 8-byte Reload
	mov	rdx, qword ptr [rsp + 144]      # 8-byte Reload
	call	_RNvMsv_NtCsfQL5qMWGko6_4core3numj16from_ascii_radix
	cmp	byte ptr [rsp + 1312], 0
	jne	.LBB47_65
# %bb.264:                              #   in Loop: Header=BB47_166 Depth=1
	mov	rax, qword ptr [rsp + 1320]
	mov	qword ptr [rsp + 144], rax      # 8-byte Spill
	push	1
	.cfi_adjust_cfa_offset 8
	pop	r15
	.cfi_adjust_cfa_offset -8
	cmp	qword ptr [rsp + 176], 0        # 8-byte Folded Reload
	je	.LBB47_267
# %bb.265:                              #   in Loop: Header=BB47_166 Depth=1
	mov	rdi, qword ptr [rsp + 176]      # 8-byte Reload
	call	qword ptr [rip + malloc@GOTPCREL]
	test	rax, rax
	je	.LBB47_661
# %bb.266:                              #   in Loop: Header=BB47_166 Depth=1
	mov	r15, rax
	mov	rdi, rax
	mov	rsi, qword ptr [rsp + 272]      # 8-byte Reload
	mov	rdx, qword ptr [rsp + 176]      # 8-byte Reload
	call	qword ptr [rip + memcpy@GOTPCREL]
	cmp	qword ptr [rsp + 176], rbp      # 8-byte Folded Reload
	je	.LBB47_65
.LBB47_267:                             #   in Loop: Header=BB47_166 Depth=1
	cmp	r12, qword ptr [rsp + 1032]
	jne	.LBB47_270
# %bb.268:                              #   in Loop: Header=BB47_166 Depth=1
.Ltmp157:
	lea	rdi, [rsp + 1032]
	call	_RNvMs0_NtCs78A21jy8lRn_5alloc7raw_vecINtB5_6RawVecINtNtNtCsktQxXQGZjIy_5gimli4read4line9FileEntryINtNtBR_12endian_slice11EndianSliceNtNtBT_9endianity12LittleEndianEjEE8grow_oneCs3bNtqN8jaZB_3std
.Ltmp158:
# %bb.269:                              #   in Loop: Header=BB47_166 Depth=1
	mov	rax, qword ptr [rsp + 1040]
	mov	qword ptr [rsp + 208], rax      # 8-byte Spill
.LBB47_270:                             #   in Loop: Header=BB47_166 Depth=1
	imul	rax, r12, 88
	mov	rcx, qword ptr [rsp + 208]      # 8-byte Reload
	mov	rdx, qword ptr [rsp + 176]      # 8-byte Reload
	mov	qword ptr [rcx + rax], rdx
	mov	qword ptr [rcx + rax + 8], r15
	mov	qword ptr [rcx + rax + 16], rdx
	mov	edx, dword ptr [rsp + 240]      # 4-byte Reload
	mov	dword ptr [rcx + rax + 24], edx
	mov	edx, dword ptr [rsp + 80]       # 4-byte Reload
	mov	dword ptr [rcx + rax + 28], edx
	mov	edx, dword ptr [rsp + 128]      # 4-byte Reload
	mov	dword ptr [rcx + rax + 32], edx
	mov	edx, dword ptr [rsp + 224]      # 4-byte Reload
	mov	dword ptr [rcx + rax + 36], edx
	mov	qword ptr [rcx + rax + 40], rbx
	mov	qword ptr [rcx + rax + 48], r14
	mov	qword ptr [rcx + rax + 56], r13
	mov	rdx, qword ptr [rsp + 16]       # 8-byte Reload
	mov	qword ptr [rcx + rax + 64], rdx
	mov	rdx, qword ptr [rsp + 8]        # 8-byte Reload
	mov	qword ptr [rcx + rax + 72], rdx
	mov	rdx, qword ptr [rsp + 144]      # 8-byte Reload
	mov	qword ptr [rcx + rax + 80], rdx
	inc	r12
	mov	qword ptr [rsp + 1048], r12
	cmp	byte ptr [rsp + 2577], 0
	lea	rsi, [rsp + 2528]
	lea	rdi, [rsp + 1312]
	je	.LBB47_166
.LBB47_271:
	mov	r14, qword ptr [rsp + 1032]
	mov	r15, qword ptr [rsp + 1040]
	cmp	qword ptr [rsp + 720], 0
	je	.LBB47_273
# %bb.272:
	mov	rdi, qword ptr [rsp + 728]
	call	qword ptr [rip + free@GOTPCREL]
.LBB47_273:
	mov	edi, dword ptr [rsp + 112]      # 4-byte Reload
	call	qword ptr [rip + close@GOTPCREL]
	cmp	r14, rbp
	je	.LBB47_80
	jmp	.LBB47_81
.LBB47_274:
	mov	rdi, qword ptr [rax + 16]
	mov	rsi, qword ptr [rip + _RNvNvMs0_NtNtNtCs3bNtqN8jaZB_3std12backtrace_rs9symbolize5gimliNtB7_5Cache11with_global14MAPPINGS_CACHE+520]
	cmp	rdi, rsi
	jae	.LBB47_646
# %bb.275:
	imul	rdx, rdi, 560
	add	rdx, qword ptr [rip + _RNvNvMs0_NtNtNtCs3bNtqN8jaZB_3std12backtrace_rs9symbolize5gimliNtB7_5Cache11with_global14MAPPINGS_CACHE+512]
	mov	qword ptr [rsp + 2512], rdx
	lea	rdx, [rsp + 1312]
	xor	r14d, r14d
.LBB47_276:
	mov	qword ptr [rdx], rax
	mov	rbx, qword ptr [rsp + 2512]
	test	rbx, rbx
	je	.LBB47_279
# %bb.277:
	lea	rcx, [rip + _RNvNvMs0_NtNtNtCs3bNtqN8jaZB_3std12backtrace_rs9symbolize5gimliNtB7_5Cache11with_global14MAPPINGS_CACHE+488]
	lea	rdi, [rsp + 2512]
	mov	rsi, rbx
	mov	r13, qword ptr [rsp + 200]      # 8-byte Reload
	mov	rdx, r13
	call	_RNvMNtCsfwdNdOnv07X_9addr2line4unitINtB2_7ResUnitINtNtNtCsktQxXQGZjIy_5gimli4read12endian_slice11EndianSliceNtNtBS_9endianity12LittleEndianEE25find_function_or_locationCs3bNtqN8jaZB_3std
	lea	rdx, [rsp + 1312]
	mov	qword ptr [rdx], r13
	mov	qword ptr [rdx + 8], rbx
	lea	rax, [rip + _RNvNvMs0_NtNtNtCs3bNtqN8jaZB_3std12backtrace_rs9symbolize5gimliNtB7_5Cache11with_global14MAPPINGS_CACHE+488]
	mov	qword ptr [rdx + 16], rax
	lea	rax, [rip + _RNvNvMs0_NtNtNtCs3bNtqN8jaZB_3std12backtrace_rs9symbolize5gimliNtB7_5Cache11with_global14MAPPINGS_CACHE+496]
	mov	qword ptr [rdx + 24], rax
	mov	qword ptr [rdx + 32], r13
	mov	qword ptr [rdx + 40], r12
	mov	qword ptr [rdx + 48], rbp
	mov	qword ptr [rdx + 56], r15
	mov	qword ptr [rdx + 64], r13
	mov	qword ptr [rdx + 72], r12
	mov	byte ptr [rdx + 80], r14b
	lea	rbx, [rsp + 1904]
	mov	rdi, rbx
	lea	rsi, [rsp + 2512]
	call	_RNvMs2_NtCsfwdNdOnv07X_9addr2line6lookupINtB5_13LoopingLookupINtNtCsfQL5qMWGko6_4core6result6ResultINtNtB7_5frame9FrameIterINtNtNtCsktQxXQGZjIy_5gimli4read12endian_slice11EndianSliceNtNtB24_9endianity12LittleEndianEENtB22_5ErrorEINtB5_12MappedLookupIBY_TINtNtB12_6option6OptionRINtNtB7_8function8FunctionB1X_EEIB45_NtB1C_8LocationEEB3s_EINtB5_12SimpleLookupIBY_TNtB7_9DebugFileINtNtB22_5dwarf7UnitRefB1X_EEB3s_EB1X_NCNvMNtB7_4unitINtB6K_7ResUnitB1X_E14dwarf_and_units4_0ENCNvB6J_25find_function_or_location0ENCNvMs_B7_INtB7_7ContextB1X_E11find_frames0E10new_lookupCs3bNtqN8jaZB_3std
	cmp	byte ptr [rbx + 184], 2
	jne	.LBB47_297
.LBB47_278:
	mov	ecx, dword ptr [rsp + 1904]
.LBB47_279:
	cmp	ecx, 5
	mov	rdi, qword ptr [rsp + 200]      # 8-byte Reload
	je	.LBB47_486
# %bb.280:
	mov	rax, qword ptr [rsp + 1960]
	mov	qword ptr [rsp + 160], rax      # 8-byte Spill
	mov	rax, qword ptr [rsp + 1976]
	mov	qword ptr [rsp], rax            # 8-byte Spill
	lea	eax, [rcx - 3]
	cmp	ecx, 3
	push	2
	.cfi_adjust_cfa_offset 8
	pop	rdx
	.cfi_adjust_cfa_offset -8
	cmovae	edx, eax
	test	edx, edx
	je	.LBB47_287
# %bb.281:
	mov	esi, dword ptr [rsp + 1908]
	mov	qword ptr [rsp + 144], rsi      # 8-byte Spill
	mov	r10d, dword ptr [rsp + 1912]
	mov	ebp, dword ptr [rsp + 1916]
	mov	rsi, qword ptr [rsp + 1920]
	mov	qword ptr [rsp + 80], rsi       # 8-byte Spill
	mov	rsi, qword ptr [rsp + 1928]
	mov	qword ptr [rsp + 16], rsi       # 8-byte Spill
	mov	rsi, qword ptr [rsp + 1936]
	mov	rdi, qword ptr [rsp + 1944]
	mov	qword ptr [rsp + 288], rdi      # 8-byte Spill
	mov	rdi, qword ptr [rsp + 1952]
	mov	r8, qword ptr [rsp + 1968]
	mov	qword ptr [rsp + 176], r8       # 8-byte Spill
	mov	r8, qword ptr [rsp + 1984]
	lea	r9, [rsi + 96]
	mov	qword ptr [rsp + 272], r9       # 8-byte Spill
	lea	r9, [rsi + 456]
	mov	qword ptr [rsp + 224], r9       # 8-byte Spill
	mov	qword ptr [rsp + 96], rsi       # 8-byte Spill
	add	rsi, 464
	mov	qword ptr [rsp + 240], rsi      # 8-byte Spill
	cmp	edx, 1
	mov	qword ptr [rsp + 208], rdi      # 8-byte Spill
	mov	qword ptr [rsp + 128], r8       # 8-byte Spill
	mov	qword ptr [rsp + 8], rbp        # 8-byte Spill
	jne	.LBB47_288
# %bb.282:
	cmp	qword ptr [rsp], 0              # 8-byte Folded Reload
	sete	cl
	shl	rbp, 32
	or	rbp, r10
	cmp	eax, 2
	setb	al
	or	al, cl
	push	2
	.cfi_adjust_cfa_offset 8
	pop	rax
	.cfi_adjust_cfa_offset -8
	mov	qword ptr [rsp + 40], rax       # 8-byte Spill
	push	3
	.cfi_adjust_cfa_offset 8
	pop	rax
	.cfi_adjust_cfa_offset -8
	mov	qword ptr [rsp + 112], rax      # 8-byte Spill
	jne	.LBB47_284
# %bb.283:
	mov	rdi, qword ptr [rsp + 160]      # 8-byte Reload
	call	qword ptr [rip + free@GOTPCREL]
.LBB47_284:
	mov	r13, qword ptr [rsp + 96]       # 8-byte Reload
	mov	r14, qword ptr [rsp + 16]       # 8-byte Reload
	mov	r15, qword ptr [rsp + 80]       # 8-byte Reload
.LBB47_285:
.Ltmp344:
	mov	rdi, qword ptr [rsp + 200]      # 8-byte Reload
	call	_RNvMs_NtNtNtNtCs3bNtqN8jaZB_3std12backtrace_rs9symbolize5gimli3elfNtB4_6Object13search_symtab
.Ltmp345:
# %bb.286:
	mov	rbx, rax
	mov	r12, rdx
	jmp	.LBB47_454
.LBB47_287:
	xor	ebx, ebx
	jmp	.LBB47_483
.LBB47_288:
	mov	qword ptr [rsp + 40], r10       # 8-byte Spill
	mov	eax, ecx
	mov	rbp, qword ptr [rsp + 144]      # 8-byte Reload
	shl	rbp, 32
	or	rbp, rax
	mov	r15, qword ptr [rsp + 8]        # 8-byte Reload
	shl	r15, 32
	add	r15, qword ptr [rsp + 40]       # 8-byte Folded Reload
	cmp	qword ptr [rsp + 176], r8       # 8-byte Folded Reload
	je	.LBB47_447
# %bb.289:
	mov	r12, qword ptr [r8 - 8]
	mov	eax, dword ptr [r12 + 40]
	mov	qword ptr [rsp + 112], 0        # 8-byte Folded Spill
	test	eax, eax
	setne	bl
	mov	ecx, dword ptr [r12 + 44]
	mov	qword ptr [rsp + 40], 0         # 8-byte Folded Spill
	mov	qword ptr [rsp + 8], rcx        # 8-byte Spill
	test	ecx, ecx
	setne	r14b
	cmp	dword ptr [r12], 1
	mov	qword ptr [rsp + 144], rax      # 8-byte Spill
	jne	.LBB47_440
# %bb.290:
	mov	rax, qword ptr [rsp + 272]      # 8-byte Reload
	cmp	dword ptr [rax], 47
	je	.LBB47_440
# %bb.291:
	mov	r13, qword ptr [r12 + 8]
	mov	rax, qword ptr [rsp + 224]      # 8-byte Reload
	cmp	byte ptr [rax], 0
	mov	rax, qword ptr [rsp + 240]      # 8-byte Reload
	je	.LBB47_569
.LBB47_292:
	cmp	qword ptr [rax], 0
	jne	.LBB47_295
# %bb.293:
	cmp	byte ptr [rax + 8], 82
	jne	.LBB47_501
# %bb.294:
	mov	rax, qword ptr [rax + 16]
.LBB47_295:
	cmp	r13, qword ptr [rax + 8]
	jae	.LBB47_440
# %bb.296:
	mov	rcx, qword ptr [rax]
	imul	rdx, r13, 24
	mov	rax, qword ptr [rcx + rdx + 8]
	mov	rcx, qword ptr [rcx + rdx + 16]
	jmp	.LBB47_441
.LBB47_297:
	mov	cl, byte ptr [rip + _RNvNvMs0_NtNtNtCs3bNtqN8jaZB_3std12backtrace_rs9symbolize5gimliNtB7_5Cache11with_global14MAPPINGS_CACHE+152]
	lea	rax, [rip + _RNvNvMs0_NtNtNtCs3bNtqN8jaZB_3std12backtrace_rs9symbolize5gimliNtB7_5Cache11with_global14MAPPINGS_CACHE+152]
	xor	edx, edx
	mov	byte ptr [rsp + 80], cl         # 1-byte Spill
	cmp	cl, 10
	cmovne	rdx, rax
	mov	eax, dword ptr [rip + _RNvNvMs0_NtNtNtCs3bNtqN8jaZB_3std12backtrace_rs9symbolize5gimliNtB7_5Cache11with_global14MAPPINGS_CACHE+232]
	mov	qword ptr [rsp + 272], rax      # 8-byte Spill
	lea	eax, [rax - 1]
	mov	qword ptr [rsp + 112], rax      # 8-byte Spill
	mov	rax, qword ptr [rip + _RNvNvMs0_NtNtNtCs3bNtqN8jaZB_3std12backtrace_rs9symbolize5gimliNtB7_5Cache11with_global14MAPPINGS_CACHE+168]
	mov	qword ptr [rsp + 40], rax       # 8-byte Spill
	mov	rax, qword ptr [rip + _RNvNvMs0_NtNtNtCs3bNtqN8jaZB_3std12backtrace_rs9symbolize5gimliNtB7_5Cache11with_global14MAPPINGS_CACHE+160]
	mov	qword ptr [rsp + 16], rax       # 8-byte Spill
	mov	rax, qword ptr [rip + _RNvNvMs0_NtNtNtCs3bNtqN8jaZB_3std12backtrace_rs9symbolize5gimliNtB7_5Cache11with_global14MAPPINGS_CACHE+184]
	mov	qword ptr [rsp + 992], rax      # 8-byte Spill
	mov	rax, qword ptr [rip + _RNvNvMs0_NtNtNtCs3bNtqN8jaZB_3std12backtrace_rs9symbolize5gimliNtB7_5Cache11with_global14MAPPINGS_CACHE+176]
	mov	qword ptr [rsp + 976], rax      # 8-byte Spill
	mov	eax, dword ptr [rip + _RNvNvMs0_NtNtNtCs3bNtqN8jaZB_3std12backtrace_rs9symbolize5gimliNtB7_5Cache11with_global14MAPPINGS_CACHE+228]
	mov	dword ptr [rsp + 960], eax      # 4-byte Spill
	mov	rax, qword ptr [rip + _RNvNvMs0_NtNtNtCs3bNtqN8jaZB_3std12backtrace_rs9symbolize5gimliNtB7_5Cache11with_global14MAPPINGS_CACHE+200]
	mov	qword ptr [rsp + 928], rax      # 8-byte Spill
	mov	eax, dword ptr [rip + _RNvNvMs0_NtNtNtCs3bNtqN8jaZB_3std12backtrace_rs9symbolize5gimliNtB7_5Cache11with_global14MAPPINGS_CACHE+224]
	mov	rcx, qword ptr [rip + _RNvNvMs0_NtNtNtCs3bNtqN8jaZB_3std12backtrace_rs9symbolize5gimliNtB7_5Cache11with_global14MAPPINGS_CACHE+192]
	mov	qword ptr [rsp + 896], rcx      # 8-byte Spill
	mov	rcx, qword ptr [rip + _RNvNvMs0_NtNtNtCs3bNtqN8jaZB_3std12backtrace_rs9symbolize5gimliNtB7_5Cache11with_global14MAPPINGS_CACHE+208]
	mov	qword ptr [rsp + 880], rcx      # 8-byte Spill
	mov	rcx, qword ptr [rip + _RNvNvMs0_NtNtNtCs3bNtqN8jaZB_3std12backtrace_rs9symbolize5gimliNtB7_5Cache11with_global14MAPPINGS_CACHE+216]
	mov	qword ptr [rsp + 912], rcx      # 8-byte Spill
	mov	qword ptr [rsp + 592], rax      # 8-byte Spill
	add	rdx, rax
	mov	qword ptr [rsp + 944], rdx      # 8-byte Spill
	mov	rax, qword ptr [rip + _RNvNvMs0_NtNtNtCs3bNtqN8jaZB_3std12backtrace_rs9symbolize5gimliNtB7_5Cache11with_global14MAPPINGS_CACHE+336]
	mov	qword ptr [rsp + 864], rax      # 8-byte Spill
	mov	rax, qword ptr [rip + _RNvNvMs0_NtNtNtCs3bNtqN8jaZB_3std12backtrace_rs9symbolize5gimliNtB7_5Cache11with_global14MAPPINGS_CACHE+328]
	mov	qword ptr [rsp + 576], rax      # 8-byte Spill
	mov	rax, qword ptr [rip + _RNvNvMs0_NtNtNtCs3bNtqN8jaZB_3std12backtrace_rs9symbolize5gimliNtB7_5Cache11with_global14MAPPINGS_CACHE+352]
	mov	qword ptr [rsp + 1248], rax     # 8-byte Spill
	mov	rax, qword ptr [rip + _RNvNvMs0_NtNtNtCs3bNtqN8jaZB_3std12backtrace_rs9symbolize5gimliNtB7_5Cache11with_global14MAPPINGS_CACHE+344]
	mov	qword ptr [rsp + 560], rax      # 8-byte Spill
	mov	rax, qword ptr [rip + _RNvNvMs0_NtNtNtCs3bNtqN8jaZB_3std12backtrace_rs9symbolize5gimliNtB7_5Cache11with_global14MAPPINGS_CACHE+368]
	mov	qword ptr [rsp + 1240], rax     # 8-byte Spill
	mov	rax, qword ptr [rip + _RNvNvMs0_NtNtNtCs3bNtqN8jaZB_3std12backtrace_rs9symbolize5gimliNtB7_5Cache11with_global14MAPPINGS_CACHE+360]
	mov	qword ptr [rsp + 544], rax      # 8-byte Spill
	mov	rax, qword ptr [rip + _RNvNvMs0_NtNtNtCs3bNtqN8jaZB_3std12backtrace_rs9symbolize5gimliNtB7_5Cache11with_global14MAPPINGS_CACHE+416]
	mov	qword ptr [rsp + 1232], rax     # 8-byte Spill
	mov	rax, qword ptr [rip + _RNvNvMs0_NtNtNtCs3bNtqN8jaZB_3std12backtrace_rs9symbolize5gimliNtB7_5Cache11with_global14MAPPINGS_CACHE+408]
	mov	qword ptr [rsp + 528], rax      # 8-byte Spill
	mov	rax, qword ptr [rip + _RNvNvMs0_NtNtNtCs3bNtqN8jaZB_3std12backtrace_rs9symbolize5gimliNtB7_5Cache11with_global14MAPPINGS_CACHE+432]
	mov	qword ptr [rsp + 1224], rax     # 8-byte Spill
	mov	rax, qword ptr [rip + _RNvNvMs0_NtNtNtCs3bNtqN8jaZB_3std12backtrace_rs9symbolize5gimliNtB7_5Cache11with_global14MAPPINGS_CACHE+424]
	mov	qword ptr [rsp + 304], rax      # 8-byte Spill
	mov	rax, qword ptr [rip + _RNvNvMs0_NtNtNtCs3bNtqN8jaZB_3std12backtrace_rs9symbolize5gimliNtB7_5Cache11with_global14MAPPINGS_CACHE+400]
	mov	qword ptr [rsp + 1216], rax     # 8-byte Spill
	mov	rax, qword ptr [rip + _RNvNvMs0_NtNtNtCs3bNtqN8jaZB_3std12backtrace_rs9symbolize5gimliNtB7_5Cache11with_global14MAPPINGS_CACHE+392]
	mov	qword ptr [rsp + 712], rax      # 8-byte Spill
	mov	rax, qword ptr [rip + _RNvNvMs0_NtNtNtCs3bNtqN8jaZB_3std12backtrace_rs9symbolize5gimliNtB7_5Cache11with_global14MAPPINGS_CACHE+448]
	mov	qword ptr [rsp + 1208], rax     # 8-byte Spill
	mov	rax, qword ptr [rip + _RNvNvMs0_NtNtNtCs3bNtqN8jaZB_3std12backtrace_rs9symbolize5gimliNtB7_5Cache11with_global14MAPPINGS_CACHE+440]
	mov	qword ptr [rsp + 704], rax      # 8-byte Spill
	mov	rax, qword ptr [rip + _RNvNvMs0_NtNtNtCs3bNtqN8jaZB_3std12backtrace_rs9symbolize5gimliNtB7_5Cache11with_global14MAPPINGS_CACHE+464]
	mov	qword ptr [rsp + 1200], rax     # 8-byte Spill
	mov	rax, qword ptr [rip + _RNvNvMs0_NtNtNtCs3bNtqN8jaZB_3std12backtrace_rs9symbolize5gimliNtB7_5Cache11with_global14MAPPINGS_CACHE+456]
	mov	qword ptr [rsp + 696], rax      # 8-byte Spill
	mov	rax, qword ptr [rip + _RNvNvMs0_NtNtNtCs3bNtqN8jaZB_3std12backtrace_rs9symbolize5gimliNtB7_5Cache11with_global14MAPPINGS_CACHE+376]
	mov	qword ptr [rsp + 1280], rax     # 8-byte Spill
	mov	rax, qword ptr [rip + _RNvNvMs0_NtNtNtCs3bNtqN8jaZB_3std12backtrace_rs9symbolize5gimliNtB7_5Cache11with_global14MAPPINGS_CACHE+384]
	mov	qword ptr [rsp + 1272], rax     # 8-byte Spill
	mov	rax, qword ptr [rip + _RNvNvMs0_NtNtNtCs3bNtqN8jaZB_3std12backtrace_rs9symbolize5gimliNtB7_5Cache11with_global14MAPPINGS_CACHE+472]
	mov	qword ptr [rsp + 1264], rax     # 8-byte Spill
	mov	rax, qword ptr [rip + _RNvNvMs0_NtNtNtCs3bNtqN8jaZB_3std12backtrace_rs9symbolize5gimliNtB7_5Cache11with_global14MAPPINGS_CACHE+480]
	mov	qword ptr [rsp + 1256], rax     # 8-byte Spill
.LBB47_298:                             # =>This Loop Header: Depth=1
                                        #     Child Loop BB47_301 Depth 2
                                        #     Child Loop BB47_314 Depth 2
	movups	xmm0, xmmword ptr [rsp + 1904]
	movdqu	xmm1, xmmword ptr [rsp + 1920]
	movups	xmm2, xmmword ptr [rsp + 1936]
	movaps	xmmword ptr [rsp + 352], xmm2
	movdqa	xmmword ptr [rsp + 336], xmm1
	movaps	xmmword ptr [rsp + 320], xmm0
	mov	ecx, 144
	lea	rdi, [rsp + 720]
	lea	rsi, [rsp + 1952]
	rep movsb es:[rdi], [rsi]
	cmp	byte ptr [rsp + 80], 10         # 1-byte Folded Reload
	je	.LBB47_328
# %bb.299:                              #   in Loop: Header=BB47_298 Depth=1
	cmp	dword ptr [rsp + 272], 0        # 4-byte Folded Reload
	je	.LBB47_328
# %bb.300:                              #   in Loop: Header=BB47_298 Depth=1
	mov	rbx, qword ptr [rsp + 320]
	mov	rcx, qword ptr [rsp + 328]
	mov	rdx, rcx
	shr	rdx, 32
	mov	rax, qword ptr [rsp + 112]      # 8-byte Reload
	and	edx, eax
	or	rdx, 1
	mov	esi, eax
	mov	rax, rcx
.LBB47_301:                             #   Parent Loop BB47_298 Depth=1
                                        # =>  This Inner Loop Header: Depth=2
	and	eax, dword ptr [rsp + 112]      # 4-byte Folded Reload
	lea	rdi, [8*rax]
	mov	r8, qword ptr [rsp + 40]        # 8-byte Reload
	sub	r8, rdi
	jb	.LBB47_328
# %bb.302:                              #   in Loop: Header=BB47_301 Depth=2
	cmp	r8, 8
	jb	.LBB47_328
# %bb.303:                              #   in Loop: Header=BB47_301 Depth=2
	mov	r11, qword ptr [rsp + 16]       # 8-byte Reload
	movzx	r8d, byte ptr [r11 + rdi + 7]
	movzx	r9d, word ptr [r11 + rdi + 4]
	movzx	r10d, byte ptr [r11 + rdi + 6]
	shl	r10d, 16
	or	r10d, r9d
	mov	edi, dword ptr [r11 + rdi]
	shl	r10, 40
	shl	rdi, 8
	or	rdi, r10
	shrd	rdi, r8, 8
	cmp	rdi, rcx
	je	.LBB47_306
# %bb.304:                              #   in Loop: Header=BB47_301 Depth=2
	sub	esi, 1
	setb	r8b
	test	rdi, rdi
	je	.LBB47_328
# %bb.305:                              #   in Loop: Header=BB47_301 Depth=2
	add	rax, rdx
	test	r8b, r8b
	je	.LBB47_301
	jmp	.LBB47_328
.LBB47_306:                             #   in Loop: Header=BB47_298 Depth=1
	shl	rax, 2
	mov	rcx, qword ptr [rsp + 992]      # 8-byte Reload
	sub	rcx, rax
	setae	dl
	cmp	rcx, 4
	setae	cl
	and	cl, dl
	cmp	cl, 1
	jne	.LBB47_328
# %bb.307:                              #   in Loop: Header=BB47_298 Depth=1
	mov	rcx, qword ptr [rsp + 976]      # 8-byte Reload
	mov	eax, dword ptr [rcx + rax]
	test	eax, eax
	je	.LBB47_328
# %bb.308:                              #   in Loop: Header=BB47_298 Depth=1
	dec	eax
	cmp	eax, dword ptr [rsp + 960]      # 4-byte Folded Reload
	jae	.LBB47_328
# %bb.309:                              #   in Loop: Header=BB47_298 Depth=1
	mov	eax, eax
	imul	rax, qword ptr [rsp + 592]      # 8-byte Folded Reload
	shl	rax, 2
	mov	rcx, qword ptr [rsp + 928]      # 8-byte Reload
	sub	rcx, rax
	jb	.LBB47_328
# %bb.310:                              #   in Loop: Header=BB47_298 Depth=1
	mov	rdx, qword ptr [rsp + 912]      # 8-byte Reload
	sub	rdx, rax
	jb	.LBB47_328
# %bb.311:                              #   in Loop: Header=BB47_298 Depth=1
	mov	rsi, qword ptr [rsp + 592]      # 8-byte Reload
	cmp	esi, 9
	jae	.LBB47_585
# %bb.312:                              #   in Loop: Header=BB47_298 Depth=1
	test	rsi, rsi
	je	.LBB47_393
# %bb.313:                              #   in Loop: Header=BB47_298 Depth=1
	mov	rsi, qword ptr [rsp + 896]      # 8-byte Reload
	add	rsi, rax
	add	rax, qword ptr [rsp + 880]      # 8-byte Folded Reload
	xor	edi, edi
	xor	r11d, r11d
	xor	r10d, r10d
	xor	r13d, r13d
	xor	r12d, r12d
	xor	r15d, r15d
	mov	dword ptr [rsp + 8], 0          # 4-byte Folded Spill
	mov	dword ptr [rsp + 144], 0        # 4-byte Folded Spill
	mov	dword ptr [rsp + 128], 0        # 4-byte Folded Spill
	mov	dword ptr [rsp], 0              # 4-byte Folded Spill
	mov	dword ptr [rsp + 96], 0         # 4-byte Folded Spill
	mov	dword ptr [rsp + 176], 0        # 4-byte Folded Spill
	mov	dword ptr [rsp + 160], 0        # 4-byte Folded Spill
	mov	dword ptr [rsp + 208], 0        # 4-byte Folded Spill
	mov	dword ptr [rsp + 240], 0        # 4-byte Folded Spill
	mov	dword ptr [rsp + 224], 0        # 4-byte Folded Spill
	mov	dword ptr [rsp + 288], 0        # 4-byte Folded Spill
.LBB47_314:                             #   Parent Loop BB47_298 Depth=1
                                        # =>  This Inner Loop Header: Depth=2
	cmp	rcx, 4
	jb	.LBB47_326
# %bb.315:                              #   in Loop: Header=BB47_314 Depth=2
	cmp	rdx, 4
	jb	.LBB47_326
# %bb.316:                              #   in Loop: Header=BB47_314 Depth=2
	lea	r8, [rip + _RNvNvMs0_NtNtNtCs3bNtqN8jaZB_3std12backtrace_rs9symbolize5gimliNtB7_5Cache11with_global14MAPPINGS_CACHE]
	movzx	ebp, byte ptr [rdi + r8 + 152]
	mov	r8d, dword ptr [rsi + 4*rdi]
	mov	r9d, dword ptr [rax + 4*rdi]
	mov	ebp, ebp
	lea	r14, [rip + .LJTI47_0]
	movsxd	rbp, dword ptr [r14 + 4*rbp]
	add	rbp, r14
	jmp	rbp
.LBB47_317:                             #   in Loop: Header=BB47_314 Depth=2
	mov	r12d, r9d
	mov	r13d, r8d
	jmp	.LBB47_324
.LBB47_318:                             #   in Loop: Header=BB47_314 Depth=2
	mov	dword ptr [rsp + 8], r9d        # 4-byte Spill
	mov	r15d, r8d
	jmp	.LBB47_324
.LBB47_319:                             #   in Loop: Header=BB47_314 Depth=2
	mov	dword ptr [rsp + 288], r9d      # 4-byte Spill
	mov	dword ptr [rsp + 224], r8d      # 4-byte Spill
	jmp	.LBB47_324
.LBB47_320:                             #   in Loop: Header=BB47_314 Depth=2
	mov	dword ptr [rsp + 240], r9d      # 4-byte Spill
	mov	dword ptr [rsp + 208], r8d      # 4-byte Spill
	jmp	.LBB47_324
.LBB47_321:                             #   in Loop: Header=BB47_314 Depth=2
	mov	dword ptr [rsp + 128], r9d      # 4-byte Spill
	mov	dword ptr [rsp + 144], r8d      # 4-byte Spill
	jmp	.LBB47_324
.LBB47_322:                             #   in Loop: Header=BB47_314 Depth=2
	mov	dword ptr [rsp + 96], r9d       # 4-byte Spill
	mov	dword ptr [rsp], r8d            # 4-byte Spill
	jmp	.LBB47_324
.LBB47_323:                             #   in Loop: Header=BB47_314 Depth=2
	mov	dword ptr [rsp + 160], r9d      # 4-byte Spill
	mov	dword ptr [rsp + 176], r8d      # 4-byte Spill
.LBB47_324:                             #   in Loop: Header=BB47_314 Depth=2
	mov	r9d, r10d
	mov	r8d, r11d
.LBB47_325:                             #   in Loop: Header=BB47_314 Depth=2
	lea	r10, [rip + _RNvNvMs0_NtNtNtCs3bNtqN8jaZB_3std12backtrace_rs9symbolize5gimliNtB7_5Cache11with_global14MAPPINGS_CACHE]
	lea	rbp, [rdi + r10]
	add	rbp, 153
	inc	rdi
	add	rcx, -4
	add	rdx, -4
	mov	r11d, r8d
	mov	r10d, r9d
	cmp	rbp, qword ptr [rsp + 944]      # 8-byte Folded Reload
	jne	.LBB47_314
	jmp	.LBB47_327
.LBB47_326:                             #   in Loop: Header=BB47_298 Depth=1
	mov	r9d, r10d
	mov	r8d, r11d
.LBB47_327:                             #   in Loop: Header=BB47_298 Depth=1
	mov	eax, r8d
	mov	rcx, qword ptr [rsp + 864]      # 8-byte Reload
	sub	rcx, rax
	jae	.LBB47_398
.LBB47_328:                             #   in Loop: Header=BB47_298 Depth=1
	and	qword ptr [rsp + 384], 0
	mov	qword ptr [rsp + 392], 1
	and	qword ptr [rsp + 400], 0
	mov	r15, qword ptr [rsp + 336]
	test	r15, r15
	je	.LBB47_332
# %bb.329:                              #   in Loop: Header=BB47_298 Depth=1
	mov	r14, qword ptr [rsp + 344]
	test	r14, r14
	push	1
	.cfi_adjust_cfa_offset 8
	pop	rcx
	.cfi_adjust_cfa_offset -8
	je	.LBB47_333
# %bb.330:                              #   in Loop: Header=BB47_298 Depth=1
.Ltmp258:
	lea	rdi, [rsp + 384]
	xor	esi, esi
	mov	rdx, r14
	mov	r8, rcx
	call	_RINvNvMs2_NtCs78A21jy8lRn_5alloc7raw_vecINtB8_11RawVecInnerpE7reserve21do_reserve_and_handleNtNtBa_5alloc6GlobalECs3bNtqN8jaZB_3std
.Ltmp259:
# %bb.331:                              #   in Loop: Header=BB47_298 Depth=1
	mov	r12, qword ptr [rsp + 392]
	mov	rbx, qword ptr [rsp + 400]
	jmp	.LBB47_334
.LBB47_332:                             #   in Loop: Header=BB47_298 Depth=1
	push	1
	.cfi_adjust_cfa_offset 8
	pop	r12
	.cfi_adjust_cfa_offset -8
	xor	ebx, ebx
	jmp	.LBB47_335
.LBB47_333:                             #   in Loop: Header=BB47_298 Depth=1
	mov	r12, rcx
	xor	ebx, ebx
.LBB47_334:                             #   in Loop: Header=BB47_298 Depth=1
	lea	rdi, [r12 + rbx]
	mov	rsi, r15
	mov	rdx, r14
	call	qword ptr [rip + memcpy@GOTPCREL]
	add	rbx, r14
	mov	qword ptr [rsp + 400], rbx
.LBB47_335:                             #   in Loop: Header=BB47_298 Depth=1
	mov	r15, qword ptr [rsp + 352]
	test	r15, r15
	je	.LBB47_358
# %bb.336:                              #   in Loop: Header=BB47_298 Depth=1
	xor	eax, eax
	test	rbx, rbx
	je	.LBB47_339
# %bb.337:                              #   in Loop: Header=BB47_298 Depth=1
	lea	rcx, [r12 + rbx]
	dec	rcx
	test	rcx, rcx
	je	.LBB47_339
# %bb.338:                              #   in Loop: Header=BB47_298 Depth=1
	cmp	byte ptr [rcx], 47
	setne	al
.LBB47_339:                             #   in Loop: Header=BB47_298 Depth=1
	mov	r13, qword ptr [rsp + 360]
	test	r13, r13
	je	.LBB47_342
# %bb.340:                              #   in Loop: Header=BB47_298 Depth=1
	cmp	byte ptr [r15], 47
	jne	.LBB47_342
# %bb.341:                              #   in Loop: Header=BB47_298 Depth=1
	xor	ebx, ebx
	jmp	.LBB47_345
.LBB47_342:                             #   in Loop: Header=BB47_298 Depth=1
	mov	rcx, qword ptr [rsp + 384]
	test	al, al
	je	.LBB47_346
# %bb.343:                              #   in Loop: Header=BB47_298 Depth=1
	cmp	rcx, rbx
	je	.LBB47_425
.LBB47_344:                             #   in Loop: Header=BB47_298 Depth=1
	mov	byte ptr [r12 + rbx], 47
	inc	rbx
.LBB47_345:                             #   in Loop: Header=BB47_298 Depth=1
	mov	qword ptr [rsp + 400], rbx
	mov	rcx, qword ptr [rsp + 384]
.LBB47_346:                             #   in Loop: Header=BB47_298 Depth=1
	sub	rcx, rbx
	cmp	r13, rcx
	ja	.LBB47_418
# %bb.347:                              #   in Loop: Header=BB47_298 Depth=1
	mov	rbp, qword ptr [rsp + 392]
.LBB47_348:                             #   in Loop: Header=BB47_298 Depth=1
	add	r12, rbx
	mov	rdi, r12
	mov	rsi, r15
	mov	rdx, r13
	call	qword ptr [rip + memcpy@GOTPCREL]
	add	rbx, r13
	mov	qword ptr [rsp + 400], rbx
.Ltmp264:
	lea	rdi, [rsp + 1032]
	mov	rsi, rbp
	mov	rdx, rbx
	call	_RNvNtNtNtCs3bNtqN8jaZB_3std12backtrace_rs9symbolize5gimli4mmap
.Ltmp265:
	lea	r12, [rsp + 1312]
# %bb.349:                              #   in Loop: Header=BB47_298 Depth=1
	cmp	dword ptr [rsp + 1032], 1
	jne	.LBB47_355
# %bb.350:                              #   in Loop: Header=BB47_298 Depth=1
	mov	r15, qword ptr [rsp + 1040]
	mov	r14, qword ptr [rsp + 1048]
	mov	rbx, qword ptr [rip + _RNvNvMs0_NtNtNtCs3bNtqN8jaZB_3std12backtrace_rs9symbolize5gimliNtB7_5Cache11with_global14MAPPINGS_CACHE+600]
	cmp	rbx, qword ptr [rip + _RNvNvMs0_NtNtNtCs3bNtqN8jaZB_3std12backtrace_rs9symbolize5gimliNtB7_5Cache11with_global14MAPPINGS_CACHE+584]
	jne	.LBB47_352
# %bb.351:                              #   in Loop: Header=BB47_298 Depth=1
.Ltmp266:
	lea	rdi, [rip + _RNvNvMs0_NtNtNtCs3bNtqN8jaZB_3std12backtrace_rs9symbolize5gimliNtB7_5Cache11with_global14MAPPINGS_CACHE+584]
	call	_RNvMs0_NtCs78A21jy8lRn_5alloc7raw_vecINtB5_6RawVecNtNtNtNtNtCs3bNtqN8jaZB_3std12backtrace_rs9symbolize5gimli4mmap4MmapE8grow_oneBW_
.Ltmp267:
.LBB47_352:                             #   in Loop: Header=BB47_298 Depth=1
	mov	rax, qword ptr [rip + _RNvNvMs0_NtNtNtCs3bNtqN8jaZB_3std12backtrace_rs9symbolize5gimliNtB7_5Cache11with_global14MAPPINGS_CACHE+592]
	mov	rcx, rbx
	shl	rcx, 4
	mov	qword ptr [rax + rcx], r15
	mov	qword ptr [rax + rcx + 8], r14
	inc	rbx
	mov	qword ptr [rip + _RNvNvMs0_NtNtNtCs3bNtqN8jaZB_3std12backtrace_rs9symbolize5gimliNtB7_5Cache11with_global14MAPPINGS_CACHE+600], rbx
	je	.LBB47_514
# %bb.353:                              #   in Loop: Header=BB47_298 Depth=1
	mov	rax, qword ptr [rip + _RNvNvMs0_NtNtNtCs3bNtqN8jaZB_3std12backtrace_rs9symbolize5gimliNtB7_5Cache11with_global14MAPPINGS_CACHE+592]
	shl	rbx, 4
	mov	rsi, qword ptr [rax + rbx - 16]
	mov	rdx, qword ptr [rax + rbx - 8]
.Ltmp269:
	mov	rdi, r12
	call	_RNvMs_NtNtNtNtCs3bNtqN8jaZB_3std12backtrace_rs9symbolize5gimli3elfNtB4_6Object5parse
.Ltmp270:
# %bb.354:                              #   in Loop: Header=BB47_298 Depth=1
	mov	rcx, qword ptr [rsp + 1312]
	movabs	rax, -9223372036854775808
	cmp	rcx, rax
	jne	.LBB47_359
.LBB47_355:                             #   in Loop: Header=BB47_298 Depth=1
	cmp	qword ptr [rsp + 384], 0
	je	.LBB47_357
# %bb.356:                              #   in Loop: Header=BB47_298 Depth=1
	mov	rdi, rbp
	call	qword ptr [rip + free@GOTPCREL]
.LBB47_357:                             #   in Loop: Header=BB47_298 Depth=1
	mov	rax, qword ptr [rsp + 320]
	lock		dec	qword ptr [rax]
	mov	r12d, 0
	je	.LBB47_379
	jmp	.LBB47_380
.LBB47_358:                             #   in Loop: Header=BB47_298 Depth=1
	xor	r12d, r12d
	jmp	.LBB47_375
.LBB47_359:                             #   in Loop: Header=BB47_298 Depth=1
	mov	qword ptr [rsp + 624], rcx      # 8-byte Spill
	mov	rax, qword ptr [rsp + 1320]
	mov	qword ptr [rsp + 608], rax      # 8-byte Spill
.Ltmp272:
	mov	rdi, r12
	lea	rsi, [rip + _RNvNvMs0_NtNtNtCs3bNtqN8jaZB_3std12backtrace_rs9symbolize5gimliNtB7_5Cache11with_global14MAPPINGS_CACHE+560]
	lea	rdx, [rip + .Lanon.28cb502c8ec02091c8e32b488a8e08d8.109]
	push	17
	.cfi_adjust_cfa_offset 8
	pop	rcx
	.cfi_adjust_cfa_offset -8
	call	_RNvMs_NtNtNtNtCs3bNtqN8jaZB_3std12backtrace_rs9symbolize5gimli3elfNtB4_6Object7section
	mov	qword ptr [rsp + 8], rdx        # 8-byte Spill
.Ltmp273:
# %bb.360:                              #   in Loop: Header=BB47_298 Depth=1
	test	rax, rax
	mov	rcx, rax
	push	1
	.cfi_adjust_cfa_offset 8
	pop	rdx
	.cfi_adjust_cfa_offset -8
	cmove	rcx, rdx
	mov	qword ptr [rsp + 224], rcx      # 8-byte Spill
	mov	rcx, qword ptr [rsp + 8]        # 8-byte Reload
	cmove	rcx, rax
	mov	qword ptr [rsp + 8], rcx        # 8-byte Spill
.Ltmp274:
	lea	rdi, [rsp + 1312]
	lea	rsi, [rip + _RNvNvMs0_NtNtNtCs3bNtqN8jaZB_3std12backtrace_rs9symbolize5gimliNtB7_5Cache11with_global14MAPPINGS_CACHE+560]
	lea	rdx, [rip + .Lanon.28cb502c8ec02091c8e32b488a8e08d8.111]
	push	15
	.cfi_adjust_cfa_offset 8
	pop	rcx
	.cfi_adjust_cfa_offset -8
	call	_RNvMs_NtNtNtNtCs3bNtqN8jaZB_3std12backtrace_rs9symbolize5gimli3elfNtB4_6Object7section
	mov	qword ptr [rsp + 144], rdx      # 8-byte Spill
.Ltmp275:
# %bb.361:                              #   in Loop: Header=BB47_298 Depth=1
	test	rax, rax
	mov	rcx, rax
	push	1
	.cfi_adjust_cfa_offset 8
	pop	rdx
	.cfi_adjust_cfa_offset -8
	cmove	rcx, rdx
	mov	qword ptr [rsp + 240], rcx      # 8-byte Spill
	mov	rcx, qword ptr [rsp + 144]      # 8-byte Reload
	cmove	rcx, rax
	mov	qword ptr [rsp + 144], rcx      # 8-byte Spill
.Ltmp276:
	lea	rdi, [rsp + 1312]
	lea	rsi, [rip + _RNvNvMs0_NtNtNtCs3bNtqN8jaZB_3std12backtrace_rs9symbolize5gimliNtB7_5Cache11with_global14MAPPINGS_CACHE+560]
	lea	rdx, [rip + .Lanon.28cb502c8ec02091c8e32b488a8e08d8.112]
	push	15
	.cfi_adjust_cfa_offset 8
	pop	rcx
	.cfi_adjust_cfa_offset -8
	call	_RNvMs_NtNtNtNtCs3bNtqN8jaZB_3std12backtrace_rs9symbolize5gimli3elfNtB4_6Object7section
	mov	qword ptr [rsp + 128], rdx      # 8-byte Spill
.Ltmp277:
# %bb.362:                              #   in Loop: Header=BB47_298 Depth=1
	test	rax, rax
	mov	rdx, rax
	push	1
	.cfi_adjust_cfa_offset 8
	pop	rcx
	.cfi_adjust_cfa_offset -8
	cmove	rdx, rcx
	mov	qword ptr [rsp + 288], rdx      # 8-byte Spill
	mov	rcx, qword ptr [rsp + 128]      # 8-byte Reload
	cmove	rcx, rax
	mov	qword ptr [rsp + 128], rcx      # 8-byte Spill
.Ltmp278:
	lea	rdi, [rsp + 1312]
	lea	rsi, [rip + _RNvNvMs0_NtNtNtCs3bNtqN8jaZB_3std12backtrace_rs9symbolize5gimliNtB7_5Cache11with_global14MAPPINGS_CACHE+560]
	lea	rdx, [rip + .Lanon.28cb502c8ec02091c8e32b488a8e08d8.115]
	push	18
	.cfi_adjust_cfa_offset 8
	pop	rcx
	.cfi_adjust_cfa_offset -8
	call	_RNvMs_NtNtNtNtCs3bNtqN8jaZB_3std12backtrace_rs9symbolize5gimli3elfNtB4_6Object7section
	mov	qword ptr [rsp], rdx            # 8-byte Spill
.Ltmp279:
# %bb.363:                              #   in Loop: Header=BB47_298 Depth=1
	test	rax, rax
	mov	rdx, rax
	push	1
	.cfi_adjust_cfa_offset 8
	pop	rcx
	.cfi_adjust_cfa_offset -8
	cmove	rdx, rcx
	mov	qword ptr [rsp + 672], rdx      # 8-byte Spill
	mov	rcx, qword ptr [rsp]            # 8-byte Reload
	cmove	rcx, rax
	mov	qword ptr [rsp], rcx            # 8-byte Spill
.Ltmp280:
	lea	rdi, [rsp + 1312]
	lea	rsi, [rip + _RNvNvMs0_NtNtNtCs3bNtqN8jaZB_3std12backtrace_rs9symbolize5gimliNtB7_5Cache11with_global14MAPPINGS_CACHE+560]
	lea	rdx, [rip + .Lanon.28cb502c8ec02091c8e32b488a8e08d8.116]
	push	16
	.cfi_adjust_cfa_offset 8
	pop	rcx
	.cfi_adjust_cfa_offset -8
	call	_RNvMs_NtNtNtNtCs3bNtqN8jaZB_3std12backtrace_rs9symbolize5gimli3elfNtB4_6Object7section
	mov	qword ptr [rsp + 96], rdx       # 8-byte Spill
.Ltmp281:
# %bb.364:                              #   in Loop: Header=BB47_298 Depth=1
	test	rax, rax
	mov	rdx, rax
	push	1
	.cfi_adjust_cfa_offset 8
	pop	rcx
	.cfi_adjust_cfa_offset -8
	cmove	rdx, rcx
	mov	qword ptr [rsp + 656], rdx      # 8-byte Spill
	mov	rcx, qword ptr [rsp + 96]       # 8-byte Reload
	cmove	rcx, rax
	mov	qword ptr [rsp + 96], rcx       # 8-byte Spill
.Ltmp282:
	lea	rdi, [rsp + 1312]
	lea	rsi, [rip + _RNvNvMs0_NtNtNtCs3bNtqN8jaZB_3std12backtrace_rs9symbolize5gimliNtB7_5Cache11with_global14MAPPINGS_CACHE+560]
	lea	rdx, [rip + .Lanon.28cb502c8ec02091c8e32b488a8e08d8.118]
	push	14
	.cfi_adjust_cfa_offset 8
	pop	rcx
	.cfi_adjust_cfa_offset -8
	call	_RNvMs_NtNtNtNtCs3bNtqN8jaZB_3std12backtrace_rs9symbolize5gimli3elfNtB4_6Object7section
	mov	qword ptr [rsp + 176], rdx      # 8-byte Spill
.Ltmp283:
# %bb.365:                              #   in Loop: Header=BB47_298 Depth=1
	test	rax, rax
	mov	rdx, rax
	push	1
	.cfi_adjust_cfa_offset 8
	pop	rcx
	.cfi_adjust_cfa_offset -8
	cmove	rdx, rcx
	mov	qword ptr [rsp + 640], rdx      # 8-byte Spill
	mov	rcx, qword ptr [rsp + 176]      # 8-byte Reload
	cmove	rcx, rax
	mov	qword ptr [rsp + 176], rcx      # 8-byte Spill
.Ltmp284:
	lea	rdi, [rsp + 1312]
	lea	rsi, [rip + _RNvNvMs0_NtNtNtCs3bNtqN8jaZB_3std12backtrace_rs9symbolize5gimliNtB7_5Cache11with_global14MAPPINGS_CACHE+560]
	lea	rdx, [rip + .Lanon.28cb502c8ec02091c8e32b488a8e08d8.119]
	push	22
	.cfi_adjust_cfa_offset 8
	pop	rcx
	.cfi_adjust_cfa_offset -8
	call	_RNvMs_NtNtNtNtCs3bNtqN8jaZB_3std12backtrace_rs9symbolize5gimli3elfNtB4_6Object7section
	mov	qword ptr [rsp + 160], rdx      # 8-byte Spill
.Ltmp285:
# %bb.366:                              #   in Loop: Header=BB47_298 Depth=1
	test	rax, rax
	mov	r14, rax
	push	1
	.cfi_adjust_cfa_offset 8
	pop	rcx
	.cfi_adjust_cfa_offset -8
	cmove	r14, rcx
	mov	rcx, qword ptr [rsp + 160]      # 8-byte Reload
	cmove	rcx, rax
	mov	qword ptr [rsp + 160], rcx      # 8-byte Spill
.Ltmp286:
	lea	rdi, [rsp + 1312]
	lea	rsi, [rip + _RNvNvMs0_NtNtNtCs3bNtqN8jaZB_3std12backtrace_rs9symbolize5gimliNtB7_5Cache11with_global14MAPPINGS_CACHE+560]
	lea	rdx, [rip + .Lanon.28cb502c8ec02091c8e32b488a8e08d8.121]
	push	16
	.cfi_adjust_cfa_offset 8
	pop	rcx
	.cfi_adjust_cfa_offset -8
	call	_RNvMs_NtNtNtNtCs3bNtqN8jaZB_3std12backtrace_rs9symbolize5gimli3elfNtB4_6Object7section
.Ltmp287:
# %bb.367:                              #   in Loop: Header=BB47_298 Depth=1
	mov	rbx, rdx
	test	rax, rax
	mov	r12, rax
	push	1
	.cfi_adjust_cfa_offset 8
	pop	rcx
	.cfi_adjust_cfa_offset -8
	cmove	r12, rcx
	cmove	rbx, rax
.Ltmp288:
	lea	rdi, [rsp + 1312]
	lea	rsi, [rip + _RNvNvMs0_NtNtNtCs3bNtqN8jaZB_3std12backtrace_rs9symbolize5gimliNtB7_5Cache11with_global14MAPPINGS_CACHE+560]
	lea	rdx, [rip + .Lanon.28cb502c8ec02091c8e32b488a8e08d8.113]
	push	14
	.cfi_adjust_cfa_offset 8
	pop	rcx
	.cfi_adjust_cfa_offset -8
	call	_RNvMs_NtNtNtNtCs3bNtqN8jaZB_3std12backtrace_rs9symbolize5gimli3elfNtB4_6Object7section
.Ltmp289:
# %bb.368:                              #   in Loop: Header=BB47_298 Depth=1
	mov	rbp, rdx
	test	rax, rax
	mov	r13, rax
	push	1
	.cfi_adjust_cfa_offset 8
	pop	rcx
	.cfi_adjust_cfa_offset -8
	cmove	r13, rcx
	cmove	rbp, rax
.Ltmp290:
	lea	rdi, [rsp + 1312]
	lea	rsi, [rip + _RNvNvMs0_NtNtNtCs3bNtqN8jaZB_3std12backtrace_rs9symbolize5gimliNtB7_5Cache11with_global14MAPPINGS_CACHE+560]
	lea	rdx, [rip + .Lanon.28cb502c8ec02091c8e32b488a8e08d8.114]
	push	19
	.cfi_adjust_cfa_offset 8
	pop	rcx
	.cfi_adjust_cfa_offset -8
	call	_RNvMs_NtNtNtNtCs3bNtqN8jaZB_3std12backtrace_rs9symbolize5gimli3elfNtB4_6Object7section
	mov	qword ptr [rsp + 208], rdx      # 8-byte Spill
.Ltmp291:
# %bb.369:                              #   in Loop: Header=BB47_298 Depth=1
.Ltmp292:
	mov	r15, rax
	lea	rdi, [rsp + 1312]
	lea	rsi, [rip + _RNvNvMs0_NtNtNtCs3bNtqN8jaZB_3std12backtrace_rs9symbolize5gimliNtB7_5Cache11with_global14MAPPINGS_CACHE+560]
	lea	rdx, [rip + .Lanon.28cb502c8ec02091c8e32b488a8e08d8.117]
	push	19
	.cfi_adjust_cfa_offset 8
	pop	rcx
	.cfi_adjust_cfa_offset -8
	call	_RNvMs_NtNtNtNtCs3bNtqN8jaZB_3std12backtrace_rs9symbolize5gimli3elfNtB4_6Object7section
.Ltmp293:
# %bb.370:                              #   in Loop: Header=BB47_298 Depth=1
	test	r15, r15
	mov	rcx, qword ptr [rsp + 208]      # 8-byte Reload
	cmove	rcx, r15
	mov	qword ptr [rsp + 208], rcx      # 8-byte Spill
	push	1
	.cfi_adjust_cfa_offset 8
	pop	rsi
	.cfi_adjust_cfa_offset -8
	cmove	r15, rsi
	test	rax, rax
	mov	rcx, rax
	cmove	rcx, rsi
	cmove	rdx, rax
	mov	rax, qword ptr [rsp + 320]
	mov	r8, qword ptr [rax + 32]
	mov	r9, qword ptr [rax + 40]
	mov	rsi, qword ptr [rax + 224]
	mov	rdi, qword ptr [rax + 232]
	mov	rax, qword ptr [rax + 256]
	test	rax, rax
	je	.LBB47_372
# %bb.371:                              #   in Loop: Header=BB47_298 Depth=1
	lock		inc	qword ptr [rax]
	jle	.LBB47_644
.LBB47_372:                             #   in Loop: Header=BB47_298 Depth=1
	mov	r10, qword ptr [rsp + 224]      # 8-byte Reload
	mov	qword ptr [rsp + 2528], r10
	mov	r10, qword ptr [rsp + 8]        # 8-byte Reload
	mov	qword ptr [rsp + 2536], r10
	mov	qword ptr [rsp + 2544], r8
	mov	qword ptr [rsp + 2552], r9
	push	1
	.cfi_adjust_cfa_offset 8
	pop	r8
	.cfi_adjust_cfa_offset -8
	mov	qword ptr [rsp + 2560], r8
	and	qword ptr [rsp + 2568], 0
	mov	r9, qword ptr [rsp + 240]       # 8-byte Reload
	mov	qword ptr [rsp + 2576], r9
	mov	r9, qword ptr [rsp + 144]       # 8-byte Reload
	mov	qword ptr [rsp + 2584], r9
	mov	r9, qword ptr [rsp + 288]       # 8-byte Reload
	mov	qword ptr [rsp + 2592], r9
	mov	r9, qword ptr [rsp + 128]       # 8-byte Reload
	mov	qword ptr [rsp + 2600], r9
	mov	qword ptr [rsp + 2608], r8
	and	qword ptr [rsp + 2616], 0
	mov	r9, qword ptr [rsp + 672]       # 8-byte Reload
	mov	qword ptr [rsp + 2624], r9
	mov	r9, qword ptr [rsp]             # 8-byte Reload
	mov	qword ptr [rsp + 2632], r9
	mov	r9, qword ptr [rsp + 656]       # 8-byte Reload
	mov	qword ptr [rsp + 2640], r9
	mov	r9, qword ptr [rsp + 96]        # 8-byte Reload
	mov	qword ptr [rsp + 2648], r9
	mov	r9, qword ptr [rsp + 640]       # 8-byte Reload
	mov	qword ptr [rsp + 2656], r9
	mov	r9, qword ptr [rsp + 176]       # 8-byte Reload
	mov	qword ptr [rsp + 2664], r9
	mov	qword ptr [rsp + 2672], r14
	mov	r9, qword ptr [rsp + 160]       # 8-byte Reload
	mov	qword ptr [rsp + 2680], r9
	mov	qword ptr [rsp + 2688], r12
	mov	qword ptr [rsp + 2696], rbx
	mov	qword ptr [rsp + 2704], r13
	mov	qword ptr [rsp + 2712], rbp
	mov	qword ptr [rsp + 2720], r15
	mov	r9, qword ptr [rsp + 208]       # 8-byte Reload
	mov	qword ptr [rsp + 2728], r9
	mov	qword ptr [rsp + 2736], rsi
	mov	qword ptr [rsp + 2744], rdi
	mov	qword ptr [rsp + 2752], rcx
	mov	qword ptr [rsp + 2760], rdx
	mov	qword ptr [rsp + 2768], rax
	and	qword ptr [rsp + 2776], 0
	and	qword ptr [rsp + 2792], 0
	mov	byte ptr [rsp + 2800], 1
	mov	qword ptr [rsp + 2512], r8
	mov	qword ptr [rsp + 2520], r8
	mov	edi, 296
	call	qword ptr [rip + malloc@GOTPCREL]
	test	rax, rax
	je	.LBB47_516
# %bb.373:                              #   in Loop: Header=BB47_298 Depth=1
	mov	r12, rax
	mov	ecx, 296
	mov	rdi, rax
	lea	rsi, [rsp + 2512]
	rep movsb es:[rdi], [rsi]
	cmp	qword ptr [rsp + 624], 0        # 8-byte Folded Reload
	je	.LBB47_375
# %bb.374:                              #   in Loop: Header=BB47_298 Depth=1
	mov	rdi, qword ptr [rsp + 608]      # 8-byte Reload
	call	qword ptr [rip + free@GOTPCREL]
.LBB47_375:                             #   in Loop: Header=BB47_298 Depth=1
	cmp	qword ptr [rsp + 384], 0
	je	.LBB47_377
# %bb.376:                              #   in Loop: Header=BB47_298 Depth=1
	mov	rdi, qword ptr [rsp + 392]
	call	qword ptr [rip + free@GOTPCREL]
.LBB47_377:                             #   in Loop: Header=BB47_298 Depth=1
	mov	rbx, qword ptr [rsp + 320]
.LBB47_378:                             #   in Loop: Header=BB47_298 Depth=1
	lock		dec	qword ptr [rbx]
	jne	.LBB47_380
.LBB47_379:                             #   in Loop: Header=BB47_298 Depth=1
	#MEMBARRIER
.Ltmp307:
	lea	rdi, [rsp + 320]
	call	_RNvMsn_NtCs78A21jy8lRn_5alloc4syncINtB5_3ArcINtNtNtCsktQxXQGZjIy_5gimli4read5dwarf5DwarfINtNtBL_12endian_slice11EndianSliceNtNtBN_9endianity12LittleEndianEEE9drop_slowCs3bNtqN8jaZB_3std
.Ltmp308:
.LBB47_380:                             #   in Loop: Header=BB47_298 Depth=1
	movups	xmm0, xmmword ptr [rsp + 720]
	movdqu	xmm1, xmmword ptr [rsp + 736]
	movdqa	xmmword ptr [rsp + 64], xmm1
	movaps	xmmword ptr [rsp + 48], xmm0
	mov	r14, qword ptr [rsp + 64]
	lea	rax, [rsp + 72]
	mov	qword ptr [rsp + 1288], rax
	mov	qword ptr [rsp + 1296], r12
	mov	al, byte ptr [r14 + 536]
	cmp	al, 83
	je	.LBB47_414
# %bb.381:                              #   in Loop: Header=BB47_298 Depth=1
	test	r12, r12
	je	.LBB47_385
# %bb.382:                              #   in Loop: Header=BB47_298 Depth=1
	lock		dec	qword ptr [r12]
	jne	.LBB47_384
# %bb.383:                              #   in Loop: Header=BB47_298 Depth=1
	#MEMBARRIER
.Ltmp309:
	lea	rdi, [rsp + 1296]
	call	_RNvMsn_NtCs78A21jy8lRn_5alloc4syncINtB5_3ArcINtNtNtCsktQxXQGZjIy_5gimli4read5dwarf5DwarfINtNtBL_12endian_slice11EndianSliceNtNtBN_9endianity12LittleEndianEEE9drop_slowCs3bNtqN8jaZB_3std
.Ltmp310:
.LBB47_384:                             #   in Loop: Header=BB47_298 Depth=1
	mov	al, byte ptr [r14 + 536]
.LBB47_385:                             #   in Loop: Header=BB47_298 Depth=1
	cmp	al, 82
	jne	.LBB47_388
# %bb.386:                              #   in Loop: Header=BB47_298 Depth=1
	mov	rax, qword ptr [r14 + 544]
	test	rax, rax
	je	.LBB47_389
# %bb.387:                              #   in Loop: Header=BB47_298 Depth=1
	mov	rcx, qword ptr [rax + 448]
	add	rcx, 16
	mov	dl, 2
	jmp	.LBB47_390
.LBB47_388:                             #   in Loop: Header=BB47_298 Depth=1
	mov	rcx, qword ptr [r14 + 536]
	mov	rax, qword ptr [r14 + 544]
	mov	dl, 3
	jmp	.LBB47_390
.LBB47_389:                             #   in Loop: Header=BB47_298 Depth=1
	mov	rax, qword ptr [rsp + 48]
	mov	rcx, qword ptr [rsp + 56]
	mov	rcx, qword ptr [rcx]
	add	rcx, 16
	xor	edx, edx
.LBB47_390:                             #   in Loop: Header=BB47_298 Depth=1
	mov	byte ptr [rsp + 2512], dl
	mov	qword ptr [rsp + 2520], rcx
	mov	qword ptr [rsp + 2528], rax
.Ltmp336:
	lea	rdi, [rsp + 1040]
	lea	rsi, [rsp + 752]
	lea	rdx, [rsp + 2512]
	call	_RNCNvMNtCsfwdNdOnv07X_9addr2line4unitINtB4_7ResUnitINtNtNtCsktQxXQGZjIy_5gimli4read12endian_slice11EndianSliceNtNtBU_9endianity12LittleEndianEE25find_function_or_location0Cs3bNtqN8jaZB_3std
.Ltmp337:
# %bb.391:                              #   in Loop: Header=BB47_298 Depth=1
	and	qword ptr [rsp + 1032], 0
	push	88
	.cfi_adjust_cfa_offset 8
	pop	rcx
	.cfi_adjust_cfa_offset -8
	lea	rdx, [rsp + 1312]
	mov	rdi, rdx
	lea	rsi, [rsp + 776]
	rep movsb es:[rdi], [rsi]
.Ltmp338:
	lea	rdi, [rsp + 2512]
	lea	rsi, [rsp + 1032]
	call	_RNvMs2_NtCsfwdNdOnv07X_9addr2line6lookupINtB5_13LoopingLookupINtNtCsfQL5qMWGko6_4core6result6ResultINtNtB7_5frame9FrameIterINtNtNtCsktQxXQGZjIy_5gimli4read12endian_slice11EndianSliceNtNtB24_9endianity12LittleEndianEENtB22_5ErrorEINtB5_12MappedLookupIBY_TINtNtB12_6option6OptionRINtNtB7_8function8FunctionB1X_EEIB45_NtB1C_8LocationEEB3s_EINtB5_12SimpleLookupIBY_TNtB7_9DebugFileINtNtB22_5dwarf7UnitRefB1X_EEB3s_EB1X_NCNvMNtB7_4unitINtB6K_7ResUnitB1X_E14dwarf_and_units4_0ENCNvB6J_25find_function_or_location0ENCNvMs_B7_INtB7_7ContextB1X_E11find_frames0E10new_lookupCs3bNtqN8jaZB_3std
.Ltmp339:
# %bb.392:                              #   in Loop: Header=BB47_298 Depth=1
	mov	ecx, 192
	lea	rdi, [rsp + 1904]
	lea	rsi, [rsp + 2512]
	rep movsb es:[rdi], [rsi]
	cmp	byte ptr [rsp + 2088], 2
	jne	.LBB47_298
	jmp	.LBB47_278
.LBB47_393:                             #   in Loop: Header=BB47_298 Depth=1
	mov	rax, qword ptr [rsp + 696]      # 8-byte Reload
	mov	qword ptr [rsp + 160], rax      # 8-byte Spill
	mov	rax, qword ptr [rsp + 704]      # 8-byte Reload
	mov	qword ptr [rsp + 96], rax       # 8-byte Spill
	mov	rax, qword ptr [rsp + 712]      # 8-byte Reload
	mov	qword ptr [rsp], rax            # 8-byte Spill
	mov	rax, qword ptr [rsp + 304]      # 8-byte Reload
	mov	qword ptr [rsp + 144], rax      # 8-byte Spill
	mov	r11, qword ptr [rsp + 528]      # 8-byte Reload
	mov	r9, qword ptr [rsp + 544]       # 8-byte Reload
	mov	rcx, qword ptr [rsp + 560]      # 8-byte Reload
	mov	rax, qword ptr [rsp + 576]      # 8-byte Reload
	xor	edx, edx
	mov	qword ptr [rsp + 208], 0        # 8-byte Folded Spill
	mov	qword ptr [rsp + 176], 0        # 8-byte Folded Spill
	mov	qword ptr [rsp + 128], 0        # 8-byte Folded Spill
	mov	qword ptr [rsp + 8], 0          # 8-byte Folded Spill
	xor	edi, edi
	xor	r8d, r8d
	xor	esi, esi
.LBB47_394:                             #   in Loop: Header=BB47_298 Depth=1
	mov	r15, qword ptr [rbx + 32]
	mov	r13, qword ptr [rbx + 40]
	mov	r14, qword ptr [rbx + 224]
	mov	r12, qword ptr [rbx + 232]
	mov	r10, qword ptr [rbx + 256]
	test	r10, r10
	je	.LBB47_396
# %bb.395:                              #   in Loop: Header=BB47_298 Depth=1
	lock		inc	qword ptr [r10]
	jle	.LBB47_644
.LBB47_396:                             #   in Loop: Header=BB47_298 Depth=1
	push	1
	.cfi_adjust_cfa_offset 8
	pop	rbp
	.cfi_adjust_cfa_offset -8
	mov	qword ptr [rsp + 2512], rbp
	mov	qword ptr [rsp + 2520], rbp
	mov	qword ptr [rsp + 2528], rax
	mov	qword ptr [rsp + 2536], rsi
	mov	qword ptr [rsp + 2544], r15
	mov	qword ptr [rsp + 2552], r13
	mov	rax, qword ptr [rsp + 1264]     # 8-byte Reload
	mov	qword ptr [rsp + 2560], rax
	mov	rsi, qword ptr [rsp + 1256]     # 8-byte Reload
	mov	qword ptr [rsp + 2568], rsi
	mov	qword ptr [rsp + 2576], rcx
	mov	qword ptr [rsp + 2584], r8
	mov	qword ptr [rsp + 2592], r9
	mov	qword ptr [rsp + 2600], rdi
	mov	qword ptr [rsp + 2608], rax
	mov	qword ptr [rsp + 2616], rsi
	mov	qword ptr [rsp + 2624], rax
	mov	qword ptr [rsp + 2632], rsi
	mov	qword ptr [rsp + 2640], rax
	mov	qword ptr [rsp + 2648], rsi
	mov	rax, qword ptr [rsp + 1280]     # 8-byte Reload
	mov	qword ptr [rsp + 2656], rax
	mov	rax, qword ptr [rsp + 1272]     # 8-byte Reload
	mov	qword ptr [rsp + 2664], rax
