	.section	.text._RNvMs_NtNtNtCs3bNtqN8jaZB_3std12backtrace_rs9symbolize5gimliNtB4_7Context3new,"ax",@progbits
	.type	_RNvMs_NtNtNtCs3bNtqN8jaZB_3std12backtrace_rs9symbolize5gimliNtB4_7Context3new,@function # -- Begin function _RNvMs_NtNtNtCs3bNtqN8jaZB_3std12backtrace_rs9symbolize5gimliNtB4_7Context3new
_RNvMs_NtNtNtCs3bNtqN8jaZB_3std12backtrace_rs9symbolize5gimliNtB4_7Context3new: # @_RNvMs_NtNtNtCs3bNtqN8jaZB_3std12backtrace_rs9symbolize5gimliNtB4_7Context3new
.Lfunc_begin23:
	.cfi_startproc
	.cfi_personality 155, DW.ref.rust_eh_personality
	.cfi_lsda 27, .Lexception23
# %bb.0:
	push	rbp
	.cfi_def_cfa_offset 16
	push	r15
	.cfi_def_cfa_offset 24
	push	r14
	.cfi_def_cfa_offset 32
	push	r13
	.cfi_def_cfa_offset 40
	push	r12
	.cfi_def_cfa_offset 48
	push	rbx
	.cfi_def_cfa_offset 56
	sub	rsp, 2232
	.cfi_def_cfa_offset 2288
	.cfi_offset rbx, -56
	.cfi_offset r12, -48
	.cfi_offset r13, -40
	.cfi_offset r14, -32
	.cfi_offset r15, -24
	.cfi_offset rbp, -16
	mov	qword ptr [rsp + 272], r8       # 8-byte Spill
	mov	qword ptr [rsp + 216], rcx      # 8-byte Spill
	mov	r13, rdx
	mov	rbp, rsi
	mov	qword ptr [rsp + 392], rdi      # 8-byte Spill
.Ltmp495:
	lea	rdx, [rip + .Lanon.28cb502c8ec02091c8e32b488a8e08d8.312]
	push	13
	.cfi_adjust_cfa_offset 8
	pop	rcx
	.cfi_adjust_cfa_offset -8
	mov	rdi, r13
	mov	qword ptr [rsp + 400], r13      # 8-byte Spill
	call	_RNvMs_NtNtNtNtCs3bNtqN8jaZB_3std12backtrace_rs9symbolize5gimli3elfNtB4_6Object7section
	mov	qword ptr [rsp + 32], rdx       # 8-byte Spill
.Ltmp496:
# %bb.1:
	test	rax, rax
	push	1
	.cfi_adjust_cfa_offset 8
	pop	rcx
	.cfi_adjust_cfa_offset -8
	mov	rdx, rax
	cmove	rdx, rcx
	mov	qword ptr [rsp + 56], rdx       # 8-byte Spill
	mov	rcx, qword ptr [rsp + 32]       # 8-byte Reload
	cmove	rcx, rax
	mov	qword ptr [rsp + 32], rcx       # 8-byte Spill
.Ltmp497:
	lea	rdx, [rip + .Lanon.28cb502c8ec02091c8e32b488a8e08d8.313]
	push	11
	.cfi_adjust_cfa_offset 8
	pop	rcx
	.cfi_adjust_cfa_offset -8
	mov	rdi, r13
	mov	rsi, rbp
	call	_RNvMs_NtNtNtNtCs3bNtqN8jaZB_3std12backtrace_rs9symbolize5gimli3elfNtB4_6Object7section
	mov	qword ptr [rsp + 224], rdx      # 8-byte Spill
.Ltmp498:
# %bb.2:
	test	rax, rax
	mov	rdx, rax
	push	1
	.cfi_adjust_cfa_offset 8
	pop	rcx
	.cfi_adjust_cfa_offset -8
	cmove	rdx, rcx
	mov	qword ptr [rsp + 80], rdx       # 8-byte Spill
	mov	rcx, qword ptr [rsp + 224]      # 8-byte Reload
	cmove	rcx, rax
	mov	qword ptr [rsp + 224], rcx      # 8-byte Spill
.Ltmp499:
	lea	rdx, [rip + .Lanon.28cb502c8ec02091c8e32b488a8e08d8.314]
	push	14
	.cfi_adjust_cfa_offset 8
	pop	rcx
	.cfi_adjust_cfa_offset -8
	mov	rdi, r13
	mov	rsi, rbp
	call	_RNvMs_NtNtNtNtCs3bNtqN8jaZB_3std12backtrace_rs9symbolize5gimli3elfNtB4_6Object7section
	mov	qword ptr [rsp + 64], rdx       # 8-byte Spill
.Ltmp500:
# %bb.3:
	test	rax, rax
	mov	rdx, rax
	push	1
	.cfi_adjust_cfa_offset 8
	pop	rcx
	.cfi_adjust_cfa_offset -8
	cmove	rdx, rcx
	mov	qword ptr [rsp], rdx            # 8-byte Spill
	mov	rcx, qword ptr [rsp + 64]       # 8-byte Reload
	cmove	rcx, rax
	mov	qword ptr [rsp + 64], rcx       # 8-byte Spill
.Ltmp501:
	lea	rdx, [rip + .Lanon.28cb502c8ec02091c8e32b488a8e08d8.315]
	push	11
	.cfi_adjust_cfa_offset 8
	pop	rcx
	.cfi_adjust_cfa_offset -8
	mov	rdi, r13
	mov	rsi, rbp
	call	_RNvMs_NtNtNtNtCs3bNtqN8jaZB_3std12backtrace_rs9symbolize5gimli3elfNtB4_6Object7section
	mov	qword ptr [rsp + 16], rdx       # 8-byte Spill
.Ltmp502:
# %bb.4:
	test	rax, rax
	mov	rdx, rax
	push	1
	.cfi_adjust_cfa_offset 8
	pop	rcx
	.cfi_adjust_cfa_offset -8
	cmove	rdx, rcx
	mov	qword ptr [rsp + 128], rdx      # 8-byte Spill
	mov	rcx, qword ptr [rsp + 16]       # 8-byte Reload
	cmove	rcx, rax
	mov	qword ptr [rsp + 16], rcx       # 8-byte Spill
.Ltmp503:
	lea	rdx, [rip + .Lanon.28cb502c8ec02091c8e32b488a8e08d8.316]
	push	11
	.cfi_adjust_cfa_offset 8
	pop	rcx
	.cfi_adjust_cfa_offset -8
	mov	rdi, r13
	mov	rsi, rbp
	call	_RNvMs_NtNtNtNtCs3bNtqN8jaZB_3std12backtrace_rs9symbolize5gimli3elfNtB4_6Object7section
	mov	qword ptr [rsp + 24], rdx       # 8-byte Spill
.Ltmp504:
# %bb.5:
	test	rax, rax
	mov	rdx, rax
	push	1
	.cfi_adjust_cfa_offset 8
	pop	rcx
	.cfi_adjust_cfa_offset -8
	cmove	rdx, rcx
	mov	qword ptr [rsp + 120], rdx      # 8-byte Spill
	mov	rcx, qword ptr [rsp + 24]       # 8-byte Reload
	cmove	rcx, rax
	mov	qword ptr [rsp + 24], rcx       # 8-byte Spill
.Ltmp505:
	lea	rdx, [rip + .Lanon.28cb502c8ec02091c8e32b488a8e08d8.317]
	push	15
	.cfi_adjust_cfa_offset 8
	pop	rcx
	.cfi_adjust_cfa_offset -8
	mov	rdi, r13
	mov	rsi, rbp
	call	_RNvMs_NtNtNtNtCs3bNtqN8jaZB_3std12backtrace_rs9symbolize5gimli3elfNtB4_6Object7section
	mov	qword ptr [rsp + 104], rdx      # 8-byte Spill
.Ltmp506:
# %bb.6:
	test	rax, rax
	mov	rdx, rax
	push	1
	.cfi_adjust_cfa_offset 8
	pop	rcx
	.cfi_adjust_cfa_offset -8
	cmove	rdx, rcx
	mov	qword ptr [rsp + 248], rdx      # 8-byte Spill
	mov	rcx, qword ptr [rsp + 104]      # 8-byte Reload
	cmove	rcx, rax
	mov	qword ptr [rsp + 104], rcx      # 8-byte Spill
.Ltmp507:
	lea	rdx, [rip + .Lanon.28cb502c8ec02091c8e32b488a8e08d8.320]
	push	14
	.cfi_adjust_cfa_offset 8
	pop	rcx
	.cfi_adjust_cfa_offset -8
	mov	rdi, r13
	mov	rsi, rbp
	call	_RNvMs_NtNtNtNtCs3bNtqN8jaZB_3std12backtrace_rs9symbolize5gimli3elfNtB4_6Object7section
	mov	qword ptr [rsp + 48], rdx       # 8-byte Spill
.Ltmp508:
# %bb.7:
	test	rax, rax
	mov	rdx, rax
	push	1
	.cfi_adjust_cfa_offset 8
	pop	rcx
	.cfi_adjust_cfa_offset -8
	cmove	rdx, rcx
	mov	qword ptr [rsp + 72], rdx       # 8-byte Spill
	mov	rcx, qword ptr [rsp + 48]       # 8-byte Reload
	cmove	rcx, rax
	mov	qword ptr [rsp + 48], rcx       # 8-byte Spill
.Ltmp509:
	lea	rdx, [rip + .Lanon.28cb502c8ec02091c8e32b488a8e08d8.321]
	push	12
	.cfi_adjust_cfa_offset 8
	pop	rcx
	.cfi_adjust_cfa_offset -8
	mov	rdi, r13
	mov	rsi, rbp
	call	_RNvMs_NtNtNtNtCs3bNtqN8jaZB_3std12backtrace_rs9symbolize5gimli3elfNtB4_6Object7section
	mov	qword ptr [rsp + 88], rdx       # 8-byte Spill
.Ltmp510:
# %bb.8:
	test	rax, rax
	mov	rdx, rax
	push	1
	.cfi_adjust_cfa_offset 8
	pop	rcx
	.cfi_adjust_cfa_offset -8
	cmove	rdx, rcx
	mov	qword ptr [rsp + 8], rdx        # 8-byte Spill
	mov	rcx, qword ptr [rsp + 88]       # 8-byte Reload
	cmove	rcx, rax
	mov	qword ptr [rsp + 88], rcx       # 8-byte Spill
.Ltmp511:
	lea	rdx, [rip + .Lanon.28cb502c8ec02091c8e32b488a8e08d8.324]
	push	10
	.cfi_adjust_cfa_offset 8
	pop	rcx
	.cfi_adjust_cfa_offset -8
	mov	rdi, r13
	mov	rsi, rbp
	call	_RNvMs_NtNtNtNtCs3bNtqN8jaZB_3std12backtrace_rs9symbolize5gimli3elfNtB4_6Object7section
	mov	qword ptr [rsp + 40], rdx       # 8-byte Spill
.Ltmp512:
# %bb.9:
	test	rax, rax
	mov	rdx, rax
	push	1
	.cfi_adjust_cfa_offset 8
	pop	rcx
	.cfi_adjust_cfa_offset -8
	cmove	rdx, rcx
	mov	qword ptr [rsp + 96], rdx       # 8-byte Spill
	mov	rcx, qword ptr [rsp + 40]       # 8-byte Reload
	cmove	rcx, rax
	mov	qword ptr [rsp + 40], rcx       # 8-byte Spill
.Ltmp513:
	lea	rdx, [rip + .Lanon.28cb502c8ec02091c8e32b488a8e08d8.325]
	push	18
	.cfi_adjust_cfa_offset 8
	pop	rcx
	.cfi_adjust_cfa_offset -8
	mov	rdi, r13
	mov	rsi, rbp
	call	_RNvMs_NtNtNtNtCs3bNtqN8jaZB_3std12backtrace_rs9symbolize5gimli3elfNtB4_6Object7section
	mov	qword ptr [rsp + 136], rdx      # 8-byte Spill
.Ltmp514:
# %bb.10:
	test	rax, rax
	mov	rdx, rax
	push	1
	.cfi_adjust_cfa_offset 8
	pop	rcx
	.cfi_adjust_cfa_offset -8
	cmove	rdx, rcx
	mov	qword ptr [rsp + 112], rdx      # 8-byte Spill
	mov	rcx, qword ptr [rsp + 136]      # 8-byte Reload
	cmove	rcx, rax
	mov	qword ptr [rsp + 136], rcx      # 8-byte Spill
.Ltmp515:
	lea	rdx, [rip + .Lanon.28cb502c8ec02091c8e32b488a8e08d8.326]
	push	12
	.cfi_adjust_cfa_offset 8
	pop	rcx
	.cfi_adjust_cfa_offset -8
	mov	rdi, r13
	mov	rsi, rbp
	call	_RNvMs_NtNtNtNtCs3bNtqN8jaZB_3std12backtrace_rs9symbolize5gimli3elfNtB4_6Object7section
	mov	qword ptr [rsp + 176], rdx      # 8-byte Spill
.Ltmp516:
# %bb.11:
	test	rax, rax
	mov	rdx, rax
	push	1
	.cfi_adjust_cfa_offset 8
	pop	rcx
	.cfi_adjust_cfa_offset -8
	cmove	rdx, rcx
	mov	qword ptr [rsp + 184], rdx      # 8-byte Spill
	mov	rcx, qword ptr [rsp + 176]      # 8-byte Reload
	cmove	rcx, rax
	mov	qword ptr [rsp + 176], rcx      # 8-byte Spill
.Ltmp517:
	lea	rdx, [rip + .Lanon.28cb502c8ec02091c8e32b488a8e08d8.318]
	push	10
	.cfi_adjust_cfa_offset 8
	pop	rcx
	.cfi_adjust_cfa_offset -8
	mov	rdi, r13
	mov	rsi, rbp
	call	_RNvMs_NtNtNtNtCs3bNtqN8jaZB_3std12backtrace_rs9symbolize5gimli3elfNtB4_6Object7section
	mov	qword ptr [rsp + 144], rdx      # 8-byte Spill
.Ltmp518:
# %bb.12:
	test	rax, rax
	mov	rdx, rax
	push	1
	.cfi_adjust_cfa_offset 8
	pop	rcx
	.cfi_adjust_cfa_offset -8
	cmove	rdx, rcx
	mov	qword ptr [rsp + 168], rdx      # 8-byte Spill
	mov	rcx, qword ptr [rsp + 144]      # 8-byte Reload
	cmove	rcx, rax
	mov	qword ptr [rsp + 144], rcx      # 8-byte Spill
.Ltmp519:
	lea	rdx, [rip + .Lanon.28cb502c8ec02091c8e32b488a8e08d8.319]
	push	15
	.cfi_adjust_cfa_offset 8
	pop	rcx
	.cfi_adjust_cfa_offset -8
	mov	rdi, r13
	mov	rsi, rbp
	call	_RNvMs_NtNtNtNtCs3bNtqN8jaZB_3std12backtrace_rs9symbolize5gimli3elfNtB4_6Object7section
.Ltmp520:
# %bb.13:
	mov	r14, rdx
	test	rax, rax
	mov	r12, rax
	push	1
	.cfi_adjust_cfa_offset 8
	pop	rcx
	.cfi_adjust_cfa_offset -8
	cmove	r12, rcx
	cmove	r14, rax
.Ltmp521:
	lea	rdx, [rip + .Lanon.28cb502c8ec02091c8e32b488a8e08d8.322]
	push	13
	.cfi_adjust_cfa_offset 8
	pop	rcx
	.cfi_adjust_cfa_offset -8
	mov	rdi, r13
	mov	rsi, rbp
	call	_RNvMs_NtNtNtNtCs3bNtqN8jaZB_3std12backtrace_rs9symbolize5gimli3elfNtB4_6Object7section
.Ltmp522:
# %bb.14:
.Ltmp523:
	mov	rbx, rax
	mov	r15, rdx
	lea	rdx, [rip + .Lanon.28cb502c8ec02091c8e32b488a8e08d8.323]
	push	15
	.cfi_adjust_cfa_offset 8
	pop	rcx
	.cfi_adjust_cfa_offset -8
	mov	rdi, r13
	mov	rsi, rbp
	call	_RNvMs_NtNtNtNtCs3bNtqN8jaZB_3std12backtrace_rs9symbolize5gimli3elfNtB4_6Object7section
.Ltmp524:
# %bb.15:
	mov	qword ptr [rsp + 512], rbp      # 8-byte Spill
	xorps	xmm0, xmm0
	movups	xmmword ptr [rsp + 1992], xmm0
	mov	rcx, qword ptr [rsp + 56]       # 8-byte Reload
	mov	qword ptr [rsp + 1752], rcx
	mov	rcx, qword ptr [rsp + 32]       # 8-byte Reload
	mov	qword ptr [rsp + 1760], rcx
	mov	rcx, qword ptr [rsp + 80]       # 8-byte Reload
	mov	qword ptr [rsp + 1768], rcx
	mov	rcx, qword ptr [rsp + 224]      # 8-byte Reload
	mov	qword ptr [rsp + 1776], rcx
	mov	rcx, qword ptr [rsp]            # 8-byte Reload
	mov	qword ptr [rsp + 1784], rcx
	mov	rcx, qword ptr [rsp + 64]       # 8-byte Reload
	mov	qword ptr [rsp + 1792], rcx
	mov	rcx, qword ptr [rsp + 128]      # 8-byte Reload
	mov	qword ptr [rsp + 1800], rcx
	mov	rcx, qword ptr [rsp + 16]       # 8-byte Reload
	mov	qword ptr [rsp + 1808], rcx
	mov	rcx, qword ptr [rsp + 120]      # 8-byte Reload
	mov	qword ptr [rsp + 1816], rcx
	mov	rcx, qword ptr [rsp + 24]       # 8-byte Reload
	mov	qword ptr [rsp + 1824], rcx
	mov	rcx, qword ptr [rsp + 248]      # 8-byte Reload
	mov	qword ptr [rsp + 1832], rcx
	mov	rcx, qword ptr [rsp + 104]      # 8-byte Reload
	mov	qword ptr [rsp + 1840], rcx
	mov	rcx, qword ptr [rsp + 72]       # 8-byte Reload
	mov	qword ptr [rsp + 1848], rcx
	mov	rcx, qword ptr [rsp + 48]       # 8-byte Reload
	mov	qword ptr [rsp + 1856], rcx
	mov	rcx, qword ptr [rsp + 8]        # 8-byte Reload
	mov	qword ptr [rsp + 1864], rcx
	mov	rcx, qword ptr [rsp + 88]       # 8-byte Reload
	mov	qword ptr [rsp + 1872], rcx
	mov	rcx, qword ptr [rsp + 96]       # 8-byte Reload
	mov	qword ptr [rsp + 1880], rcx
	mov	rcx, qword ptr [rsp + 40]       # 8-byte Reload
	mov	qword ptr [rsp + 1888], rcx
	mov	rcx, qword ptr [rsp + 112]      # 8-byte Reload
	mov	qword ptr [rsp + 1896], rcx
	mov	rcx, qword ptr [rsp + 136]      # 8-byte Reload
	mov	qword ptr [rsp + 1904], rcx
	mov	rcx, qword ptr [rsp + 184]      # 8-byte Reload
	mov	qword ptr [rsp + 1912], rcx
	mov	rcx, qword ptr [rsp + 176]      # 8-byte Reload
	mov	qword ptr [rsp + 1920], rcx
	mov	rcx, qword ptr [rsp + 168]      # 8-byte Reload
	mov	qword ptr [rsp + 1928], rcx
	mov	rcx, qword ptr [rsp + 144]      # 8-byte Reload
	mov	qword ptr [rsp + 1936], rcx
	mov	qword ptr [rsp + 1944], r12
	test	rbx, rbx
	cmove	r15, rbx
	mov	qword ptr [rsp + 1952], r14
	push	1
	.cfi_adjust_cfa_offset 8
	pop	rsi
	.cfi_adjust_cfa_offset -8
	cmove	rbx, rsi
	mov	qword ptr [rsp + 1960], rbx
	mov	qword ptr [rsp + 1968], r15
	test	rax, rax
	cmove	rdx, rax
	cmove	rax, rsi
	mov	qword ptr [rsp + 1976], rax
	mov	qword ptr [rsp + 1984], rdx
	and	qword ptr [rsp + 2016], 0
	mov	byte ptr [rsp + 2024], 0
	mov	r14, qword ptr [rsp + 216]      # 8-byte Reload
	mov	rcx, qword ptr [r14]
	mov	bpl, 1
	movabs	rax, -9223372036854775808
	cmp	rcx, rax
	mov	rbx, rsi
	je	.LBB155_33
# %bb.16:
.Ltmp526:
	mov	qword ptr [rsp + 56], rcx       # 8-byte Spill
	lea	rdx, [rip + .Lanon.28cb502c8ec02091c8e32b488a8e08d8.312]
	push	13
	.cfi_adjust_cfa_offset 8
	pop	rcx
	.cfi_adjust_cfa_offset -8
	mov	rdi, r14
	mov	rbp, qword ptr [rsp + 512]      # 8-byte Reload
	mov	rsi, rbp
	call	_RNvMs_NtNtNtNtCs3bNtqN8jaZB_3std12backtrace_rs9symbolize5gimli3elfNtB4_6Object7section
	mov	qword ptr [rsp + 32], rdx       # 8-byte Spill
.Ltmp527:
# %bb.17:
	test	rax, rax
	mov	rdx, rax
	push	1
	.cfi_adjust_cfa_offset 8
	pop	rcx
	.cfi_adjust_cfa_offset -8
	cmove	rdx, rcx
	mov	qword ptr [rsp + 80], rdx       # 8-byte Spill
	mov	rcx, qword ptr [rsp + 32]       # 8-byte Reload
	cmove	rcx, rax
	mov	qword ptr [rsp + 32], rcx       # 8-byte Spill
.Ltmp528:
	lea	rdx, [rip + .Lanon.28cb502c8ec02091c8e32b488a8e08d8.313]
	push	11
	.cfi_adjust_cfa_offset 8
	pop	rcx
	.cfi_adjust_cfa_offset -8
	mov	rdi, r14
	mov	rsi, rbp
	call	_RNvMs_NtNtNtNtCs3bNtqN8jaZB_3std12backtrace_rs9symbolize5gimli3elfNtB4_6Object7section
	mov	qword ptr [rsp + 224], rdx      # 8-byte Spill
.Ltmp529:
# %bb.18:
	test	rax, rax
	mov	rdx, rax
	push	1
	.cfi_adjust_cfa_offset 8
	pop	rcx
	.cfi_adjust_cfa_offset -8
	cmove	rdx, rcx
	mov	qword ptr [rsp], rdx            # 8-byte Spill
	mov	rcx, qword ptr [rsp + 224]      # 8-byte Reload
	cmove	rcx, rax
	mov	qword ptr [rsp + 224], rcx      # 8-byte Spill
.Ltmp530:
	lea	rdx, [rip + .Lanon.28cb502c8ec02091c8e32b488a8e08d8.314]
	push	14
	.cfi_adjust_cfa_offset 8
	pop	rcx
	.cfi_adjust_cfa_offset -8
	mov	rdi, r14
	mov	rsi, rbp
	call	_RNvMs_NtNtNtNtCs3bNtqN8jaZB_3std12backtrace_rs9symbolize5gimli3elfNtB4_6Object7section
	mov	qword ptr [rsp + 64], rdx       # 8-byte Spill
.Ltmp531:
# %bb.19:
	test	rax, rax
	mov	rdx, rax
	push	1
	.cfi_adjust_cfa_offset 8
	pop	rcx
	.cfi_adjust_cfa_offset -8
	cmove	rdx, rcx
	mov	qword ptr [rsp + 128], rdx      # 8-byte Spill
	mov	rcx, qword ptr [rsp + 64]       # 8-byte Reload
	cmove	rcx, rax
	mov	qword ptr [rsp + 64], rcx       # 8-byte Spill
.Ltmp532:
	lea	rdx, [rip + .Lanon.28cb502c8ec02091c8e32b488a8e08d8.315]
	push	11
	.cfi_adjust_cfa_offset 8
	pop	rcx
	.cfi_adjust_cfa_offset -8
	mov	rdi, r14
	mov	rsi, rbp
	call	_RNvMs_NtNtNtNtCs3bNtqN8jaZB_3std12backtrace_rs9symbolize5gimli3elfNtB4_6Object7section
	mov	qword ptr [rsp + 16], rdx       # 8-byte Spill
.Ltmp533:
# %bb.20:
	test	rax, rax
	mov	rdx, rax
	push	1
	.cfi_adjust_cfa_offset 8
	pop	rcx
	.cfi_adjust_cfa_offset -8
	cmove	rdx, rcx
	mov	qword ptr [rsp + 120], rdx      # 8-byte Spill
	mov	rcx, qword ptr [rsp + 16]       # 8-byte Reload
	cmove	rcx, rax
	mov	qword ptr [rsp + 16], rcx       # 8-byte Spill
.Ltmp534:
	lea	rdx, [rip + .Lanon.28cb502c8ec02091c8e32b488a8e08d8.316]
	push	11
	.cfi_adjust_cfa_offset 8
	pop	rcx
	.cfi_adjust_cfa_offset -8
	mov	rdi, r14
	mov	rsi, rbp
	call	_RNvMs_NtNtNtNtCs3bNtqN8jaZB_3std12backtrace_rs9symbolize5gimli3elfNtB4_6Object7section
	mov	qword ptr [rsp + 24], rdx       # 8-byte Spill
.Ltmp535:
# %bb.21:
	test	rax, rax
	mov	rdx, rax
	push	1
	.cfi_adjust_cfa_offset 8
	pop	rcx
	.cfi_adjust_cfa_offset -8
	cmove	rdx, rcx
	mov	qword ptr [rsp + 248], rdx      # 8-byte Spill
	mov	rcx, qword ptr [rsp + 24]       # 8-byte Reload
	cmove	rcx, rax
	mov	qword ptr [rsp + 24], rcx       # 8-byte Spill
.Ltmp536:
	lea	rdx, [rip + .Lanon.28cb502c8ec02091c8e32b488a8e08d8.317]
	push	15
	.cfi_adjust_cfa_offset 8
	pop	rcx
	.cfi_adjust_cfa_offset -8
	mov	rdi, r14
	mov	rsi, rbp
	call	_RNvMs_NtNtNtNtCs3bNtqN8jaZB_3std12backtrace_rs9symbolize5gimli3elfNtB4_6Object7section
	mov	qword ptr [rsp + 104], rdx      # 8-byte Spill
.Ltmp537:
# %bb.22:
	test	rax, rax
	mov	rdx, rax
	push	1
	.cfi_adjust_cfa_offset 8
	pop	rcx
	.cfi_adjust_cfa_offset -8
	cmove	rdx, rcx
	mov	qword ptr [rsp + 72], rdx       # 8-byte Spill
	mov	rcx, qword ptr [rsp + 104]      # 8-byte Reload
	cmove	rcx, rax
	mov	qword ptr [rsp + 104], rcx      # 8-byte Spill
.Ltmp538:
	lea	rdx, [rip + .Lanon.28cb502c8ec02091c8e32b488a8e08d8.320]
	push	14
	.cfi_adjust_cfa_offset 8
	pop	rcx
	.cfi_adjust_cfa_offset -8
	mov	rdi, r14
	mov	rsi, rbp
	call	_RNvMs_NtNtNtNtCs3bNtqN8jaZB_3std12backtrace_rs9symbolize5gimli3elfNtB4_6Object7section
	mov	qword ptr [rsp + 48], rdx       # 8-byte Spill
.Ltmp539:
# %bb.23:
	test	rax, rax
	mov	rdx, rax
	push	1
	.cfi_adjust_cfa_offset 8
	pop	rcx
	.cfi_adjust_cfa_offset -8
	cmove	rdx, rcx
	mov	qword ptr [rsp + 8], rdx        # 8-byte Spill
	mov	rcx, qword ptr [rsp + 48]       # 8-byte Reload
	cmove	rcx, rax
	mov	qword ptr [rsp + 48], rcx       # 8-byte Spill
.Ltmp540:
	lea	rdx, [rip + .Lanon.28cb502c8ec02091c8e32b488a8e08d8.321]
	push	12
	.cfi_adjust_cfa_offset 8
	pop	rcx
	.cfi_adjust_cfa_offset -8
	mov	rdi, r14
	mov	rsi, rbp
	call	_RNvMs_NtNtNtNtCs3bNtqN8jaZB_3std12backtrace_rs9symbolize5gimli3elfNtB4_6Object7section
	mov	qword ptr [rsp + 88], rdx       # 8-byte Spill
.Ltmp541:
# %bb.24:
	test	rax, rax
	mov	rdx, rax
	push	1
	.cfi_adjust_cfa_offset 8
	pop	rcx
	.cfi_adjust_cfa_offset -8
	cmove	rdx, rcx
	mov	qword ptr [rsp + 96], rdx       # 8-byte Spill
	mov	rcx, qword ptr [rsp + 88]       # 8-byte Reload
	cmove	rcx, rax
	mov	qword ptr [rsp + 88], rcx       # 8-byte Spill
.Ltmp542:
	lea	rdx, [rip + .Lanon.28cb502c8ec02091c8e32b488a8e08d8.324]
	push	10
	.cfi_adjust_cfa_offset 8
	pop	rcx
	.cfi_adjust_cfa_offset -8
	mov	rdi, r14
	mov	rsi, rbp
	call	_RNvMs_NtNtNtNtCs3bNtqN8jaZB_3std12backtrace_rs9symbolize5gimli3elfNtB4_6Object7section
	mov	qword ptr [rsp + 40], rdx       # 8-byte Spill
.Ltmp543:
# %bb.25:
	test	rax, rax
	mov	rdx, rax
	push	1
	.cfi_adjust_cfa_offset 8
	pop	rcx
	.cfi_adjust_cfa_offset -8
	cmove	rdx, rcx
	mov	qword ptr [rsp + 112], rdx      # 8-byte Spill
	mov	rcx, qword ptr [rsp + 40]       # 8-byte Reload
	cmove	rcx, rax
	mov	qword ptr [rsp + 40], rcx       # 8-byte Spill
.Ltmp544:
	lea	rdx, [rip + .Lanon.28cb502c8ec02091c8e32b488a8e08d8.325]
	push	18
	.cfi_adjust_cfa_offset 8
	pop	rcx
	.cfi_adjust_cfa_offset -8
	mov	rdi, r14
	mov	rsi, rbp
	call	_RNvMs_NtNtNtNtCs3bNtqN8jaZB_3std12backtrace_rs9symbolize5gimli3elfNtB4_6Object7section
	mov	qword ptr [rsp + 136], rdx      # 8-byte Spill
.Ltmp545:
# %bb.26:
	test	rax, rax
	mov	rdx, rax
	push	1
	.cfi_adjust_cfa_offset 8
	pop	rcx
	.cfi_adjust_cfa_offset -8
	cmove	rdx, rcx
	mov	qword ptr [rsp + 184], rdx      # 8-byte Spill
	mov	rcx, qword ptr [rsp + 136]      # 8-byte Reload
	cmove	rcx, rax
	mov	qword ptr [rsp + 136], rcx      # 8-byte Spill
.Ltmp546:
	lea	rdx, [rip + .Lanon.28cb502c8ec02091c8e32b488a8e08d8.326]
	push	12
	.cfi_adjust_cfa_offset 8
	pop	rcx
	.cfi_adjust_cfa_offset -8
	mov	rdi, r14
	mov	rsi, rbp
	call	_RNvMs_NtNtNtNtCs3bNtqN8jaZB_3std12backtrace_rs9symbolize5gimli3elfNtB4_6Object7section
	mov	qword ptr [rsp + 176], rdx      # 8-byte Spill
.Ltmp547:
# %bb.27:
	test	rax, rax
	mov	rdx, rax
	push	1
	.cfi_adjust_cfa_offset 8
	pop	rcx
	.cfi_adjust_cfa_offset -8
	cmove	rdx, rcx
	mov	qword ptr [rsp + 168], rdx      # 8-byte Spill
	mov	rcx, qword ptr [rsp + 176]      # 8-byte Reload
	cmove	rcx, rax
	mov	qword ptr [rsp + 176], rcx      # 8-byte Spill
.Ltmp548:
	lea	rdx, [rip + .Lanon.28cb502c8ec02091c8e32b488a8e08d8.318]
	push	10
	.cfi_adjust_cfa_offset 8
	pop	rcx
	.cfi_adjust_cfa_offset -8
	mov	rdi, r14
	mov	rsi, rbp
	call	_RNvMs_NtNtNtNtCs3bNtqN8jaZB_3std12backtrace_rs9symbolize5gimli3elfNtB4_6Object7section
	mov	qword ptr [rsp + 144], rdx      # 8-byte Spill
.Ltmp549:
# %bb.28:
	test	rax, rax
	mov	rdx, rax
	push	1
	.cfi_adjust_cfa_offset 8
	pop	rcx
	.cfi_adjust_cfa_offset -8
	cmove	rdx, rcx
	mov	qword ptr [rsp + 264], rdx      # 8-byte Spill
	mov	rcx, qword ptr [rsp + 144]      # 8-byte Reload
	cmove	rcx, rax
	mov	qword ptr [rsp + 144], rcx      # 8-byte Spill
.Ltmp550:
	lea	rdx, [rip + .Lanon.28cb502c8ec02091c8e32b488a8e08d8.319]
	push	15
	.cfi_adjust_cfa_offset 8
	pop	rcx
	.cfi_adjust_cfa_offset -8
	mov	rdi, r14
	mov	rsi, rbp
	call	_RNvMs_NtNtNtNtCs3bNtqN8jaZB_3std12backtrace_rs9symbolize5gimli3elfNtB4_6Object7section
.Ltmp551:
# %bb.29:
	mov	r13, rdx
	test	rax, rax
	mov	r15, rax
	push	1
	.cfi_adjust_cfa_offset 8
	pop	rcx
	.cfi_adjust_cfa_offset -8
	cmove	r15, rcx
	cmove	r13, rax
.Ltmp552:
	lea	rdx, [rip + .Lanon.28cb502c8ec02091c8e32b488a8e08d8.322]
	push	13
	.cfi_adjust_cfa_offset 8
	pop	rcx
	.cfi_adjust_cfa_offset -8
	mov	rdi, r14
	mov	rsi, rbp
	call	_RNvMs_NtNtNtNtCs3bNtqN8jaZB_3std12backtrace_rs9symbolize5gimli3elfNtB4_6Object7section
.Ltmp553:
# %bb.30:
.Ltmp554:
	mov	rbx, rax
	mov	r12, rdx
	lea	rdx, [rip + .Lanon.28cb502c8ec02091c8e32b488a8e08d8.323]
	push	15
	.cfi_adjust_cfa_offset 8
	pop	rcx
	.cfi_adjust_cfa_offset -8
	mov	rdi, r14
	mov	rsi, rbp
	call	_RNvMs_NtNtNtNtCs3bNtqN8jaZB_3std12backtrace_rs9symbolize5gimli3elfNtB4_6Object7section
.Ltmp555:
# %bb.31:
	xorps	xmm0, xmm0
	movups	xmmword ptr [rsp + 912], xmm0
	push	1
	.cfi_adjust_cfa_offset 8
	pop	r14
	.cfi_adjust_cfa_offset -8
	mov	qword ptr [rsp + 656], r14
	mov	qword ptr [rsp + 664], r14
	mov	rcx, qword ptr [rsp + 80]       # 8-byte Reload
	mov	qword ptr [rsp + 672], rcx
	mov	rcx, qword ptr [rsp + 32]       # 8-byte Reload
	mov	qword ptr [rsp + 680], rcx
	mov	rcx, qword ptr [rsp]            # 8-byte Reload
	mov	qword ptr [rsp + 688], rcx
	mov	rcx, qword ptr [rsp + 224]      # 8-byte Reload
	mov	qword ptr [rsp + 696], rcx
	mov	rcx, qword ptr [rsp + 128]      # 8-byte Reload
	mov	qword ptr [rsp + 704], rcx
	mov	rcx, qword ptr [rsp + 64]       # 8-byte Reload
	mov	qword ptr [rsp + 712], rcx
	mov	rcx, qword ptr [rsp + 120]      # 8-byte Reload
	mov	qword ptr [rsp + 720], rcx
	mov	rcx, qword ptr [rsp + 16]       # 8-byte Reload
	mov	qword ptr [rsp + 728], rcx
	mov	rcx, qword ptr [rsp + 248]      # 8-byte Reload
	mov	qword ptr [rsp + 736], rcx
	mov	rcx, qword ptr [rsp + 24]       # 8-byte Reload
	mov	qword ptr [rsp + 744], rcx
	mov	rcx, qword ptr [rsp + 72]       # 8-byte Reload
	mov	qword ptr [rsp + 752], rcx
	mov	rcx, qword ptr [rsp + 104]      # 8-byte Reload
	mov	qword ptr [rsp + 760], rcx
	mov	rcx, qword ptr [rsp + 8]        # 8-byte Reload
	mov	qword ptr [rsp + 768], rcx
	mov	rcx, qword ptr [rsp + 48]       # 8-byte Reload
	mov	qword ptr [rsp + 776], rcx
	mov	rcx, qword ptr [rsp + 96]       # 8-byte Reload
	mov	qword ptr [rsp + 784], rcx
	mov	rcx, qword ptr [rsp + 88]       # 8-byte Reload
	mov	qword ptr [rsp + 792], rcx
	mov	rcx, qword ptr [rsp + 112]      # 8-byte Reload
	mov	qword ptr [rsp + 800], rcx
	mov	rcx, qword ptr [rsp + 40]       # 8-byte Reload
	mov	qword ptr [rsp + 808], rcx
	mov	rcx, qword ptr [rsp + 184]      # 8-byte Reload
	mov	qword ptr [rsp + 816], rcx
	mov	rcx, qword ptr [rsp + 136]      # 8-byte Reload
	mov	qword ptr [rsp + 824], rcx
	mov	rcx, qword ptr [rsp + 168]      # 8-byte Reload
	mov	qword ptr [rsp + 832], rcx
	mov	rcx, qword ptr [rsp + 176]      # 8-byte Reload
	mov	qword ptr [rsp + 840], rcx
	mov	rcx, qword ptr [rsp + 264]      # 8-byte Reload
	mov	qword ptr [rsp + 848], rcx
	mov	rcx, qword ptr [rsp + 144]      # 8-byte Reload
	mov	qword ptr [rsp + 856], rcx
	mov	qword ptr [rsp + 864], r15
	mov	qword ptr [rsp + 872], r13
	test	rbx, rbx
	cmove	r12, rbx
	cmove	rbx, r14
	mov	qword ptr [rsp + 880], rbx
	mov	qword ptr [rsp + 888], r12
	test	rax, rax
	cmove	rdx, rax
	cmove	rax, r14
	mov	qword ptr [rsp + 896], rax
	mov	qword ptr [rsp + 904], rdx
	and	qword ptr [rsp + 936], 0
	mov	byte ptr [rsp + 944], 0
	mov	edi, 296
	call	qword ptr [rip + malloc@GOTPCREL]
	test	rax, rax
	je	.LBB155_352
# %bb.32:
	mov	rbx, r14
	lea	rsi, [rsp + 656]
	mov	ecx, 296
	mov	rdi, rax
	rep movsb es:[rdi], [rsi]
	mov	r14, qword ptr [rsp + 216]      # 8-byte Reload
	mov	rsi, qword ptr [r14 + 8]
	mov	qword ptr [rsp + 1992], rax
	mov	rdi, qword ptr [rsp + 56]       # 8-byte Reload
	call	_RINvNtCsfQL5qMWGko6_4core3ptr13drop_in_placeNtNtNtNtNtCs3bNtqN8jaZB_3std12backtrace_rs9symbolize5gimli3elf6ObjectEBQ_
	xor	ebp, ebp
.LBB155_33:
	lea	rax, [rsp + 672]
	lea	rsi, [rsp + 1752]
	mov	ecx, 280
	mov	rdi, rax
	rep movsb es:[rdi], [rsi]
	mov	qword ptr [rax - 16], rbx
	mov	qword ptr [rax - 8], rbx
	mov	edi, 296
	call	qword ptr [rip + malloc@GOTPCREL]
	test	rax, rax
	je	.LBB155_350
# %bb.34:
	mov	r15, rax
	mov	dword ptr [rsp + 64], ebp       # 4-byte Spill
	lea	rsi, [rsp + 656]
	mov	ecx, 296
	mov	rdi, r15
	rep movsb es:[rdi], [rsi]
	mov	qword ptr [rsp + 520], r15
	and	qword ptr [rsp + 336], 0
	mov	qword ptr [rsp + 344], 8
	and	qword ptr [rsp + 352], 0
	mov	rcx, qword ptr [r15 + 48]
	mov	qword ptr [rsp + 32], r15       # 8-byte Spill
	mov	rbp, qword ptr [r15 + 56]
	mov	qword ptr [rsp + 24], rcx       # 8-byte Spill
	mov	qword ptr [rsp + 528], rcx
	mov	qword ptr [rsp + 536], rbp
	and	qword ptr [rsp + 544], 0
	test	rbp, rbp
	mov	qword ptr [rsp + 104], rbp      # 8-byte Spill
	je	.LBB155_42
# %bb.35:
	mov	qword ptr [rsp + 224], r15      # 8-byte Spill
	push	8
	.cfi_adjust_cfa_offset 8
	pop	r14
	.cfi_adjust_cfa_offset -8
	xor	ebx, ebx
	mov	r13, r14
	xor	r15d, r15d
.LBB155_36:                             # =>This Inner Loop Header: Depth=1
	lea	rdi, [rsp + 656]
	lea	rsi, [rsp + 528]
	mov	rdx, r15
	call	_RNvMs4_NtNtCsktQxXQGZjIy_5gimli4read7arangesINtB5_12ArangeHeaderINtNtB7_12endian_slice11EndianSliceNtNtB9_9endianity12LittleEndianEjE5parseCs3bNtqN8jaZB_3std
	cmp	byte ptr [rsp + 697], 3
	je	.LBB155_254
# %bb.37:                               #   in Loop: Header=BB155_36 Depth=1
	sub	rbp, qword ptr [rsp + 536]
	mov	r12, qword ptr [rsp + 672]
	mov	r15, rbp
	add	r15, qword ptr [rsp + 544]
	mov	rbp, qword ptr [rsp + 688]
	mov	qword ptr [rsp + 544], r15
	cmp	rbx, qword ptr [rsp + 336]
	jne	.LBB155_40
# %bb.38:                               #   in Loop: Header=BB155_36 Depth=1
.Ltmp565:
	lea	rdi, [rsp + 336]
	call	_RNvMs0_NtCs78A21jy8lRn_5alloc7raw_vecINtB5_6RawVecTNtNtCsktQxXQGZjIy_5gimli6common15DebugInfoOffsetNtBP_18DebugArangesOffsetEE8grow_oneCs3bNtqN8jaZB_3std
.Ltmp566:
# %bb.39:                               #   in Loop: Header=BB155_36 Depth=1
	mov	r13, qword ptr [rsp + 344]
.LBB155_40:                             #   in Loop: Header=BB155_36 Depth=1
	mov	qword ptr [r13 + r14 - 8], rbp
	mov	qword ptr [r13 + r14], r12
	inc	rbx
	mov	qword ptr [rsp + 352], rbx
	mov	rbp, qword ptr [rsp + 536]
	add	r14, 16
	test	rbp, rbp
	jne	.LBB155_36
# %bb.41:
	cmp	rbx, 2
	mov	r15, qword ptr [rsp + 224]      # 8-byte Reload
	jae	.LBB155_354
.LBB155_42:
	lea	rcx, [rsp + 192]
	and	qword ptr [rcx], 0
	push	8
	.cfi_adjust_cfa_offset 8
	pop	rax
	.cfi_adjust_cfa_offset -8
	mov	qword ptr [rcx + 8], rax
	and	qword ptr [rcx + 16], 0
	lea	rcx, [rsp + 360]
	and	qword ptr [rcx], 0
	mov	qword ptr [rcx + 8], rax
	and	qword ptr [rcx + 16], 0
	add	r15, 16
	mov	qword ptr [rsp + 224], r15      # 8-byte Spill
	mov	rax, qword ptr [rsp + 32]       # 8-byte Reload
	movups	xmm0, xmmword ptr [rax + 64]
	lea	rcx, [rsp + 2120]
	movups	xmmword ptr [rcx], xmm0
	and	qword ptr [rcx + 16], 0
	lea	rbp, [rsp + 680]
	lea	r13, [rsp + 1312]
	mov	rcx, qword ptr [rax + 240]
	mov	qword ptr [rsp + 136], rcx      # 8-byte Spill
	mov	rcx, qword ptr [rax + 248]
	mov	qword ptr [rsp + 88], rcx       # 8-byte Spill
	mov	cl, byte ptr [rax + 288]
	mov	byte ptr [rsp + 176], cl        # 1-byte Spill
	mov	rcx, qword ptr [rax + 32]
	mov	qword ptr [rsp + 40], rcx       # 8-byte Spill
	mov	rax, qword ptr [rax + 40]
	mov	qword ptr [rsp + 48], rax       # 8-byte Spill
                                        # implicit-def: $rax
                                        # kill: killed $rax
                                        # implicit-def: $rax
                                        # kill: killed $rax
                                        # implicit-def: $rax
                                        # kill: killed $rax
                                        # implicit-def: $rax
                                        # kill: killed $rax
                                        # implicit-def: $rax
                                        # kill: killed $rax
                                        # implicit-def: $rax
                                        # kill: killed $rax
.LBB155_43:                             # =>This Loop Header: Depth=1
                                        #     Child Loop BB155_55 Depth 2
                                        #     Child Loop BB155_80 Depth 2
                                        #       Child Loop BB155_81 Depth 3
                                        #     Child Loop BB155_93 Depth 2
                                        #     Child Loop BB155_162 Depth 2
                                        #     Child Loop BB155_165 Depth 2
                                        #     Child Loop BB155_183 Depth 2
                                        #       Child Loop BB155_189 Depth 3
                                        #         Child Loop BB155_200 Depth 4
                                        #           Child Loop BB155_202 Depth 5
                                        #         Child Loop BB155_192 Depth 4
                                        #           Child Loop BB155_193 Depth 5
                                        #         Child Loop BB155_211 Depth 4
                                        #           Child Loop BB155_212 Depth 5
                                        #         Child Loop BB155_218 Depth 4
                                        #           Child Loop BB155_219 Depth 5
                                        #     Child Loop BB155_173 Depth 2
                                        #     Child Loop BB155_247 Depth 2
	lea	rdi, [rsp + 656]
	lea	rsi, [rsp + 2120]
	call	_RNvMs6_NtNtCsktQxXQGZjIy_5gimli4read4unitINtB5_24DebugInfoUnitHeadersIterINtNtB7_12endian_slice11EndianSliceNtNtB9_9endianity12LittleEndianEE4nextCs3bNtqN8jaZB_3std
	mov	rax, qword ptr [rsp + 656]
	mov	r12, qword ptr [rsp + 664]
	mov	r15, qword ptr [rsp + 672]
	cmp	rax, 3
	je	.LBB155_272
# %bb.44:                               #   in Loop: Header=BB155_43 Depth=1
	mov	rcx, qword ptr [rbp + 48]
	mov	qword ptr [rsp + 1744], rcx
	movups	xmm0, xmmword ptr [rbp]
	movups	xmm1, xmmword ptr [rbp + 16]
	movups	xmm2, xmmword ptr [rbp + 32]
	movaps	xmmword ptr [rsp + 1728], xmm2
	movaps	xmmword ptr [rsp + 1712], xmm1
	movaps	xmmword ptr [rsp + 1696], xmm0
	cmp	eax, 2
	je	.LBB155_296
# %bb.45:                               #   in Loop: Header=BB155_43 Depth=1
	mov	rbx, qword ptr [rsp + 376]
	test	al, 1
	jne	.LBB155_43
# %bb.46:                               #   in Loop: Header=BB155_43 Depth=1
	mov	r14b, 1
	cmp	r15, 1
	je	.LBB155_43
# %bb.47:                               #   in Loop: Header=BB155_43 Depth=1
	cmp	r15, 5
	je	.LBB155_43
# %bb.48:                               #   in Loop: Header=BB155_43 Depth=1
	cmp	r15, 2
	jne	.LBB155_50
# %bb.49:                               #   in Loop: Header=BB155_43 Depth=1
	xor	r14d, r14d
.LBB155_50:                             #   in Loop: Header=BB155_43 Depth=1
	and	qword ptr [rsp + 416], 0
	mov	qword ptr [rsp + 424], r12
	mov	qword ptr [rsp + 432], r15
	mov	rax, qword ptr [rsp + 1744]
	lea	rcx, [rsp + 440]
	mov	qword ptr [rcx + 48], rax
	movaps	xmm0, xmmword ptr [rsp + 1696]
	movaps	xmm1, xmmword ptr [rsp + 1712]
	movaps	xmm2, xmmword ptr [rsp + 1728]
	movups	xmmword ptr [rcx + 32], xmm2
	movups	xmmword ptr [rcx + 16], xmm1
	movups	xmmword ptr [rcx], xmm0
.Ltmp571:
	lea	rdi, [rsp + 656]
	mov	rsi, qword ptr [rsp + 224]      # 8-byte Reload
	lea	rdx, [rsp + 416]
	call	_RNvMs4_NtNtCsktQxXQGZjIy_5gimli4read5dwarfINtB5_4UnitINtNtB7_12endian_slice11EndianSliceNtNtB9_9endianity12LittleEndianEjE3newCs3bNtqN8jaZB_3std
.Ltmp572:
# %bb.51:                               #   in Loop: Header=BB155_43 Depth=1
	cmp	dword ptr [rsp + 656], 2
	je	.LBB155_43
# %bb.52:                               #   in Loop: Header=BB155_43 Depth=1
	mov	ecx, 448
	lea	r8, [rsp + 1216]
	mov	rdi, r8
	lea	rsi, [rsp + 656]
	rep movsb es:[rdi], [rsi]
	test	r14b, r14b
	je	.LBB155_71
# %bb.53:                               #   in Loop: Header=BB155_43 Depth=1
	mov	rdx, qword ptr [rsp + 1584]
	lea	rax, [rdx + 16]
	mov	r15, qword ptr [rsp + 1256]
	mov	rsi, qword ptr [rsp + 1264]
	mov	qword ptr [rsp + 416], r15
	mov	qword ptr [rsp + 424], rsi
	mov	qword ptr [rsp + 432], r8
	mov	qword ptr [rsp + 440], rax
	and	qword ptr [rsp + 448], 0
	test	rsi, rsi
	je	.LBB155_257
# %bb.54:                               #   in Loop: Header=BB155_43 Depth=1
	lea	rdi, [rsi - 1]
	lea	r8, [r15 + 1]
	xor	eax, eax
	xor	ecx, ecx
.LBB155_55:                             #   Parent Loop BB155_43 Depth=1
                                        # =>  This Inner Loop Header: Depth=2
	mov	r9b, byte ptr [r8 - 1]
	cmp	ecx, 63
	jne	.LBB155_57
# %bb.56:                               #   in Loop: Header=BB155_55 Depth=2
	cmp	r9b, 1
	ja	.LBB155_255
.LBB155_57:                             #   in Loop: Header=BB155_55 Depth=2
	movzx	r9d, r9b
	mov	r10d, r9d
	and	r10d, 127
	shl	r10, cl
	or	rax, r10
	test	r9b, r9b
	jns	.LBB155_59
# %bb.58:                               #   in Loop: Header=BB155_55 Depth=2
	add	ecx, 7
	inc	r8
	add	rdi, -1
	jb	.LBB155_55
	jmp	.LBB155_256
.LBB155_59:                             #   in Loop: Header=BB155_43 Depth=1
	mov	qword ptr [rsp + 416], r8
	mov	qword ptr [rsp + 424], rdi
	test	rax, rax
	jne	.LBB155_76
# %bb.60:                               #   in Loop: Header=BB155_43 Depth=1
	lock		dec	qword ptr [rdx]
	jne	.LBB155_62
# %bb.61:                               #   in Loop: Header=BB155_43 Depth=1
	#MEMBARRIER
	mov	rdi, qword ptr [rsp + 1584]
.Ltmp601:
	call	_RNvMsn_NtCs78A21jy8lRn_5alloc4syncINtB5_3ArcNtNtNtCsktQxXQGZjIy_5gimli4read6abbrev13AbbreviationsE9drop_slowCs3bNtqN8jaZB_3std
.Ltmp602:
.LBB155_62:                             #   in Loop: Header=BB155_43 Depth=1
	cmp	dword ptr [rsp + 1312], 47
	je	.LBB155_43
# %bb.63:                               #   in Loop: Header=BB155_43 Depth=1
	cmp	qword ptr [rsp + 1400], 0
	je	.LBB155_65
# %bb.64:                               #   in Loop: Header=BB155_43 Depth=1
	mov	rdi, qword ptr [rsp + 1408]
	call	qword ptr [rip + free@GOTPCREL]
.LBB155_65:                             #   in Loop: Header=BB155_43 Depth=1
	cmp	qword ptr [rsp + 1424], 0
	je	.LBB155_67
# %bb.66:                               #   in Loop: Header=BB155_43 Depth=1
	mov	rdi, qword ptr [rsp + 1432]
	call	qword ptr [rip + free@GOTPCREL]
.LBB155_67:                             #   in Loop: Header=BB155_43 Depth=1
	cmp	qword ptr [rsp + 1448], 0
	je	.LBB155_69
# %bb.68:                               #   in Loop: Header=BB155_43 Depth=1
	mov	rdi, qword ptr [rsp + 1456]
	call	qword ptr [rip + free@GOTPCREL]
.LBB155_69:                             #   in Loop: Header=BB155_43 Depth=1
	cmp	qword ptr [rsp + 1472], 0
	je	.LBB155_43
# %bb.70:                               #   in Loop: Header=BB155_43 Depth=1
	mov	rdi, qword ptr [rsp + 1480]
	call	qword ptr [rip + free@GOTPCREL]
	jmp	.LBB155_43
.LBB155_71:                             #   in Loop: Header=BB155_43 Depth=1
	mov	dword ptr [rsp + 56], 0         # 4-byte Folded Spill
                                        # implicit-def: $ax
                                        # kill: killed $ax
	mov	r14, r8
.LBB155_72:                             #   in Loop: Header=BB155_43 Depth=1
	and	qword ptr [rsp + 416], 0
.LBB155_73:                             #   in Loop: Header=BB155_43 Depth=1
	mov	ecx, 448
	lea	rdi, [rsp + 656]
	mov	rsi, r14
	rep movsb es:[rdi], [rsi]
	mov	rax, qword ptr [rsp + 448]
	mov	qword ptr [rbp + 464], rax
	movups	xmm0, xmmword ptr [rsp + 416]
	movups	xmm1, xmmword ptr [rsp + 432]
	movups	xmmword ptr [rbp + 448], xmm1
	movups	xmmword ptr [rbp + 432], xmm0
	mov	qword ptr [rsp + 1104], r12
	mov	eax, dword ptr [rsp + 56]       # 4-byte Reload
	mov	word ptr [rsp + 1208], ax
	movzx	eax, word ptr [rsp + 248]       # 2-byte Folded Reload
	mov	word ptr [rsp + 1210], ax
	and	qword ptr [rsp + 1152], 0
	mov	byte ptr [rsp + 1192], 83
	cmp	rbx, qword ptr [rsp + 360]
	jne	.LBB155_75
# %bb.74:                               #   in Loop: Header=BB155_43 Depth=1
.Ltmp595:
	lea	rdi, [rsp + 360]
	call	_RNvMs0_NtCs78A21jy8lRn_5alloc7raw_vecINtB5_6RawVecINtNtCsfwdNdOnv07X_9addr2line4unit7ResUnitINtNtNtCsktQxXQGZjIy_5gimli4read12endian_slice11EndianSliceNtNtB1z_9endianity12LittleEndianEEE8grow_oneCs3bNtqN8jaZB_3std
.Ltmp596:
.LBB155_75:                             #   in Loop: Header=BB155_43 Depth=1
	imul	rdi, rbx, 560
	add	rdi, qword ptr [rsp + 368]
	mov	ecx, 560
	lea	rsi, [rsp + 656]
	rep movsb es:[rdi], [rsi]
	inc	rbx
	mov	qword ptr [rsp + 376], rbx
	jmp	.LBB155_43
.LBB155_76:                             #   in Loop: Header=BB155_43 Depth=1
	lea	rcx, [rax - 1]
	cmp	rcx, qword ptr [rdx + 32]
	jae	.LBB155_78
# %bb.77:                               #   in Loop: Header=BB155_43 Depth=1
	imul	rdi, rcx, 112
	add	rdi, qword ptr [rdx + 24]
	jmp	.LBB155_88
.LBB155_78:                             #   in Loop: Header=BB155_43 Depth=1
	mov	rdi, qword ptr [rdx + 40]
	test	rdi, rdi
	je	.LBB155_364
# %bb.79:                               #   in Loop: Header=BB155_43 Depth=1
	mov	rcx, qword ptr [rdx + 48]
.LBB155_80:                             #   Parent Loop BB155_43 Depth=1
                                        # =>  This Loop Header: Depth=2
                                        #       Child Loop BB155_81 Depth 3
	movzx	esi, word ptr [rdi + 1330]
	mov	r8d, esi
	shl	r8d, 3
	push	-1
	.cfi_adjust_cfa_offset 8
	pop	rdx
	.cfi_adjust_cfa_offset -8
.LBB155_81:                             #   Parent Loop BB155_43 Depth=1
                                        #     Parent Loop BB155_80 Depth=2
                                        # =>    This Inner Loop Header: Depth=3
	test	r8, r8
	je	.LBB155_84
# %bb.82:                               #   in Loop: Header=BB155_81 Depth=3
	cmp	rax, qword ptr [rdi + 8*rdx + 1248]
	seta	r9b
	sbb	r9b, 0
	inc	rdx
	add	r8, -8
	cmp	r9b, 1
	je	.LBB155_81
# %bb.83:                               #   in Loop: Header=BB155_80 Depth=2
	movzx	esi, r9b
	test	esi, esi
	jne	.LBB155_85
	jmp	.LBB155_87
.LBB155_84:                             #   in Loop: Header=BB155_80 Depth=2
	mov	rdx, rsi
.LBB155_85:                             #   in Loop: Header=BB155_80 Depth=2
	sub	rcx, 1
	jb	.LBB155_364
# %bb.86:                               #   in Loop: Header=BB155_80 Depth=2
	mov	rdi, qword ptr [rdi + 8*rdx + 1336]
	jmp	.LBB155_80
.LBB155_87:                             #   in Loop: Header=BB155_43 Depth=1
	imul	rax, rdx, 112
	add	rdi, rax
.LBB155_88:                             #   in Loop: Header=BB155_43 Depth=1
	cmp	byte ptr [rdi + 106], 1
	jne	.LBB155_90
# %bb.89:                               #   in Loop: Header=BB155_43 Depth=1
	mov	qword ptr [rsp + 448], 1
.LBB155_90:                             #   in Loop: Header=BB155_43 Depth=1
.Ltmp574:
	call	_RNvXsa_NtNtCsktQxXQGZjIy_5gimli4read6abbrevNtB5_10AttributesNtNtNtCsfQL5qMWGko6_4core3ops5deref5Deref5deref
	mov	qword ptr [rsp + 80], rax       # 8-byte Spill
.Ltmp575:
# %bb.91:                               #   in Loop: Header=BB155_43 Depth=1
	test	rdx, rdx
	je	.LBB155_157
# %bb.92:                               #   in Loop: Header=BB155_43 Depth=1
	shl	rdx, 4
	mov	esi, dword ptr [rsp + 1288]
	mov	rdi, qword ptr [rsp + 1656]
	mov	eax, esi
	shr	eax, 8
	mov	rcx, qword ptr [rsp + 88]       # 8-byte Reload
	sub	rcx, rdi
	mov	qword ptr [rsp + 552], rcx      # 8-byte Spill
	mov	ecx, 255
	and	eax, ecx
	mov	qword ptr [rsp + 560], rax      # 8-byte Spill
	mov	eax, esi
	and	eax, 65280
	mov	dword ptr [rsp + 412], eax      # 4-byte Spill
	xor	r9d, r9d
	cmp	esi, 327680
	mov	eax, 0
	cmovb	rax, rdi
	cmp	byte ptr [rsp + 176], 0         # 1-byte Folded Reload
	cmove	rax, r9
	mov	qword ptr [rsp + 384], rax      # 8-byte Spill
	mov	rax, qword ptr [rsp + 136]      # 8-byte Reload
	mov	qword ptr [rsp + 184], rdi      # 8-byte Spill
	add	rax, rdi
	mov	qword ptr [rsp + 496], rax      # 8-byte Spill
	mov	rdi, qword ptr [rsp + 1640]
	mov	rax, qword ptr [rsp + 48]       # 8-byte Reload
	sub	rax, rdi
	mov	qword ptr [rsp + 112], rax      # 8-byte Spill
	mov	rax, qword ptr [rsp + 40]       # 8-byte Reload
	mov	qword ptr [rsp + 168], rdi      # 8-byte Spill
	add	rax, rdi
	mov	qword ptr [rsp + 256], rax      # 8-byte Spill
	mov	dword ptr [rsp + 120], esi      # 4-byte Spill
	mov	eax, esi
	and	eax, ecx
	mov	qword ptr [rsp + 320], rax      # 8-byte Spill
	mov	qword ptr [rsp + 72], 0         # 8-byte Folded Spill
                                        # implicit-def: $ax
                                        # kill: killed $ax
	mov	dword ptr [rsp + 56], 0         # 4-byte Folded Spill
	xor	r8d, r8d
	mov	dword ptr [rsp + 96], 0         # 4-byte Folded Spill
	mov	dword ptr [rsp + 264], 0        # 4-byte Folded Spill
	lea	r14, [rsp + 1216]
	mov	qword ptr [rsp], rdx            # 8-byte Spill
.LBB155_93:                             #   Parent Loop BB155_43 Depth=1
                                        # =>  This Inner Loop Header: Depth=2
	mov	r13d, r8d
	mov	rax, qword ptr [rsp + 80]       # 8-byte Reload
	mov	qword ptr [rsp + 144], r9       # 8-byte Spill
	movups	xmm0, xmmword ptr [rax + r9]
	movaps	xmmword ptr [rsp + 2096], xmm0
	mov	rax, qword ptr [rsp + 432]
	mov	edx, dword ptr [rax + 72]
	lea	rdi, [rsp + 656]
	lea	rsi, [rsp + 416]
	lea	rcx, [rsp + 2096]
	call	_RINvNtNtCsktQxXQGZjIy_5gimli4read4unit15parse_attributeINtNtB4_12endian_slice11EndianSliceNtNtB6_9endianity12LittleEndianEECs3bNtqN8jaZB_3std
	mov	rdx, qword ptr [rsp + 656]
	mov	rax, qword ptr [rsp + 664]
	mov	r15, qword ptr [rsp + 672]
	cmp	rdx, 46
	je	.LBB155_349
# %bb.94:                               #   in Loop: Header=BB155_93 Depth=2
	mov	rcx, qword ptr [rsp + 680]
	mov	qword ptr [rsp + 288], rax
	mov	qword ptr [rsp + 296], r15
	mov	qword ptr [rsp + 280], rdx
	mov	qword ptr [rsp + 304], rcx
	cmp	cx, 85
	je	.LBB155_119
# %bb.95:                               #   in Loop: Header=BB155_93 Depth=2
	movzx	eax, cx
	movzx	r14d, byte ptr [rsp + 120]      # 1-byte Folded Reload
	cmp	eax, 18
	mov	r15, qword ptr [rsp + 128]      # 8-byte Reload
	je	.LBB155_106
# %bb.96:                               #   in Loop: Header=BB155_93 Depth=2
	cmp	eax, 19
	je	.LBB155_115
# %bb.97:                               #   in Loop: Header=BB155_93 Depth=2
	cmp	eax, 17
	jne	.LBB155_117
# %bb.98:                               #   in Loop: Header=BB155_93 Depth=2
	lea	rdi, [rsp + 656]
	lea	rsi, [rsp + 280]
	call	_RNvMsb_NtNtCsktQxXQGZjIy_5gimli4read4unitINtB5_9AttributeINtNtB7_12endian_slice11EndianSliceNtNtB9_9endianity12LittleEndianEE5valueCs3bNtqN8jaZB_3std
	mov	rax, qword ptr [rsp + 656]
	test	rax, rax
	je	.LBB155_126
# %bb.99:                               #   in Loop: Header=BB155_93 Depth=2
	cmp	eax, 12
	jne	.LBB155_128
# %bb.100:                              #   in Loop: Header=BB155_93 Depth=2
	mov	rax, qword ptr [rsp + 168]      # 8-byte Reload
	cmp	qword ptr [rsp + 48], rax       # 8-byte Folded Reload
	mov	rdi, qword ptr [rsp + 312]      # 8-byte Reload
	mov	r9, qword ptr [rsp + 144]       # 8-byte Reload
	jb	.LBB155_366
# %bb.101:                              #   in Loop: Header=BB155_93 Depth=2
	mov	rax, qword ptr [rsp + 664]
	imul	rax, qword ptr [rsp + 320]      # 8-byte Folded Reload
	mov	rcx, qword ptr [rsp + 112]      # 8-byte Reload
	sub	rcx, rax
	jb	.LBB155_365
# %bb.102:                              #   in Loop: Header=BB155_93 Depth=2
	dec	r14d
	cmp	r14d, 7
	ja	.LBB155_385
# %bb.103:                              #   in Loop: Header=BB155_93 Depth=2
	mov	rdx, qword ptr [rsp + 256]      # 8-byte Reload
	lea	r15, [rdx + rax]
	lea	rsi, [rip + .LJTI155_1]
	movsxd	rdx, dword ptr [rsi + 4*r14]
	add	rdx, rsi
	jmp	rdx
.LBB155_104:                            #   in Loop: Header=BB155_93 Depth=2
	cmp	qword ptr [rsp + 112], rax      # 8-byte Folded Reload
	je	.LBB155_367
# %bb.105:                              #   in Loop: Header=BB155_93 Depth=2
	movzx	eax, byte ptr [r15]
	jmp	.LBB155_142
.LBB155_106:                            #   in Loop: Header=BB155_93 Depth=2
	lea	rdi, [rsp + 656]
	lea	rsi, [rsp + 280]
	call	_RNvMsb_NtNtCsktQxXQGZjIy_5gimli4read4unitINtB5_9AttributeINtNtB7_12endian_slice11EndianSliceNtNtB9_9endianity12LittleEndianEE5valueCs3bNtqN8jaZB_3std
	mov	rax, qword ptr [rsp + 656]
	test	rax, rax
	je	.LBB155_132
# %bb.107:                              #   in Loop: Header=BB155_93 Depth=2
	cmp	eax, 7
	mov	rdi, qword ptr [rsp + 328]      # 8-byte Reload
	mov	r8d, r13d
	mov	r9, qword ptr [rsp + 144]       # 8-byte Reload
	je	.LBB155_131
# %bb.108:                              #   in Loop: Header=BB155_93 Depth=2
	cmp	eax, 12
	jne	.LBB155_152
# %bb.109:                              #   in Loop: Header=BB155_93 Depth=2
	mov	rax, qword ptr [rsp + 168]      # 8-byte Reload
	cmp	qword ptr [rsp + 48], rax       # 8-byte Folded Reload
	jb	.LBB155_366
# %bb.110:                              #   in Loop: Header=BB155_93 Depth=2
	mov	rax, qword ptr [rsp + 664]
	imul	rax, qword ptr [rsp + 320]      # 8-byte Folded Reload
	mov	rcx, qword ptr [rsp + 112]      # 8-byte Reload
	sub	rcx, rax
	jb	.LBB155_365
# %bb.111:                              #   in Loop: Header=BB155_93 Depth=2
	dec	r14d
	cmp	r14d, 7
	ja	.LBB155_385
# %bb.112:                              #   in Loop: Header=BB155_93 Depth=2
	mov	rdx, qword ptr [rsp + 256]      # 8-byte Reload
	lea	r15, [rdx + rax]
	lea	rsi, [rip + .LJTI155_0]
	movsxd	rdx, dword ptr [rsi + 4*r14]
	add	rdx, rsi
	jmp	rdx
.LBB155_113:                            #   in Loop: Header=BB155_93 Depth=2
	cmp	qword ptr [rsp + 112], rax      # 8-byte Folded Reload
	je	.LBB155_367
# %bb.114:                              #   in Loop: Header=BB155_93 Depth=2
	movzx	eax, byte ptr [r15]
	jmp	.LBB155_150
.LBB155_115:                            #   in Loop: Header=BB155_93 Depth=2
	lea	rdi, [rsp + 656]
	lea	rsi, [rsp + 280]
	call	_RNvMsb_NtNtCsktQxXQGZjIy_5gimli4read4unitINtB5_9AttributeINtNtB7_12endian_slice11EndianSliceNtNtB9_9endianity12LittleEndianEE5valueCs3bNtqN8jaZB_3std
	mov	rax, qword ptr [rsp + 656]
	cmp	rax, 38
	push	1
	.cfi_adjust_cfa_offset 8
	pop	rcx
	.cfi_adjust_cfa_offset -8
	mov	edx, dword ptr [rsp + 56]       # 4-byte Reload
	cmove	edx, ecx
	mov	dword ptr [rsp + 56], edx       # 4-byte Spill
	cmp	eax, 38
	jne	.LBB155_117
# %bb.116:                              #   in Loop: Header=BB155_93 Depth=2
	movzx	eax, word ptr [rsp + 664]
	mov	word ptr [rsp + 248], ax        # 2-byte Spill
.LBB155_117:                            #   in Loop: Header=BB155_93 Depth=2
	lea	r14, [rsp + 1216]
.LBB155_118:                            #   in Loop: Header=BB155_93 Depth=2
	mov	r8d, r13d
	mov	rdx, qword ptr [rsp]            # 8-byte Reload
	mov	r9, qword ptr [rsp + 144]       # 8-byte Reload
	jmp	.LBB155_155
.LBB155_119:                            #   in Loop: Header=BB155_93 Depth=2
	lea	rdi, [rsp + 656]
	lea	rsi, [rsp + 280]
	call	_RNvMsb_NtNtCsktQxXQGZjIy_5gimli4read4unitINtB5_9AttributeINtNtB7_12endian_slice11EndianSliceNtNtB9_9endianity12LittleEndianEE5valueCs3bNtqN8jaZB_3std
	mov	rcx, qword ptr [rsp + 656]
	mov	r15, qword ptr [rsp + 664]
	cmp	rcx, 22
	je	.LBB155_127
# %bb.120:                              #   in Loop: Header=BB155_93 Depth=2
	cmp	ecx, 24
	mov	r8d, r13d
	mov	rdx, qword ptr [rsp]            # 8-byte Reload
	mov	r9, qword ptr [rsp + 144]       # 8-byte Reload
	jne	.LBB155_130
# %bb.121:                              #   in Loop: Header=BB155_93 Depth=2
	mov	rcx, qword ptr [rsp + 184]      # 8-byte Reload
	cmp	qword ptr [rsp + 88], rcx       # 8-byte Folded Reload
	jb	.LBB155_371
# %bb.122:                              #   in Loop: Header=BB155_93 Depth=2
	imul	r15, qword ptr [rsp + 560]      # 8-byte Folded Reload
	mov	rcx, qword ptr [rsp + 552]      # 8-byte Reload
	sub	rcx, r15
	jb	.LBB155_372
# %bb.123:                              #   in Loop: Header=BB155_93 Depth=2
	add	r15, qword ptr [rsp + 496]      # 8-byte Folded Reload
	cmp	dword ptr [rsp + 412], 2048     # 4-byte Folded Reload
	jne	.LBB155_133
# %bb.124:                              #   in Loop: Header=BB155_93 Depth=2
	cmp	rcx, 7
	jbe	.LBB155_373
# %bb.125:                              #   in Loop: Header=BB155_93 Depth=2
	movzx	ecx, byte ptr [r15 + 7]
	movzx	edi, word ptr [r15 + 4]
	movzx	esi, byte ptr [r15 + 6]
	shl	esi, 16
	or	esi, edi
	mov	eax, dword ptr [r15]
	shl	rsi, 40
	shl	rax, 8
	or	rax, rsi
	shrd	rax, rcx, 8
	jmp	.LBB155_135
.LBB155_126:                            #   in Loop: Header=BB155_93 Depth=2
	mov	r8b, 1
	mov	rax, qword ptr [rsp + 664]
	mov	qword ptr [rsp + 8], rax        # 8-byte Spill
	jmp	.LBB155_129
.LBB155_127:                            #   in Loop: Header=BB155_93 Depth=2
	add	r15, qword ptr [rsp + 384]      # 8-byte Folded Reload
	mov	qword ptr [rsp + 504], r15      # 8-byte Spill
	push	1
	.cfi_adjust_cfa_offset 8
	pop	rax
	.cfi_adjust_cfa_offset -8
	mov	qword ptr [rsp + 72], rax       # 8-byte Spill
	jmp	.LBB155_118
.LBB155_128:                            #   in Loop: Header=BB155_93 Depth=2
	mov	r8d, r13d
.LBB155_129:                            #   in Loop: Header=BB155_93 Depth=2
	mov	rdx, qword ptr [rsp]            # 8-byte Reload
	mov	r9, qword ptr [rsp + 144]       # 8-byte Reload
	jmp	.LBB155_154
.LBB155_130:                            #   in Loop: Header=BB155_93 Depth=2
	mov	qword ptr [rsp + 72], 0         # 8-byte Folded Spill
	jmp	.LBB155_155
.LBB155_131:                            #   in Loop: Header=BB155_93 Depth=2
	mov	al, 1
	mov	dword ptr [rsp + 264], eax      # 4-byte Spill
	mov	r15, qword ptr [rsp + 664]
	jmp	.LBB155_152
.LBB155_132:                            #   in Loop: Header=BB155_93 Depth=2
	mov	al, 1
	mov	dword ptr [rsp + 96], eax       # 4-byte Spill
	mov	rax, qword ptr [rsp + 664]
	mov	qword ptr [rsp + 240], rax      # 8-byte Spill
	mov	r8d, r13d
	mov	rdx, qword ptr [rsp]            # 8-byte Reload
	mov	r9, qword ptr [rsp + 144]       # 8-byte Reload
	jmp	.LBB155_153
.LBB155_133:                            #   in Loop: Header=BB155_93 Depth=2
	cmp	rcx, 3
	jbe	.LBB155_373
# %bb.134:                              #   in Loop: Header=BB155_93 Depth=2
	mov	eax, dword ptr [r15]
.LBB155_135:                            #   in Loop: Header=BB155_93 Depth=2
	add	rax, qword ptr [rsp + 184]      # 8-byte Folded Reload
	mov	qword ptr [rsp + 504], rax      # 8-byte Spill
	push	1
	.cfi_adjust_cfa_offset 8
	pop	rax
	.cfi_adjust_cfa_offset -8
	mov	qword ptr [rsp + 72], rax       # 8-byte Spill
	jmp	.LBB155_155
.LBB155_136:                            #   in Loop: Header=BB155_93 Depth=2
	cmp	rcx, 1
	jbe	.LBB155_367
# %bb.137:                              #   in Loop: Header=BB155_93 Depth=2
	movzx	eax, word ptr [r15]
	jmp	.LBB155_142
.LBB155_138:                            #   in Loop: Header=BB155_93 Depth=2
	cmp	rcx, 7
	jbe	.LBB155_367
# %bb.139:                              #   in Loop: Header=BB155_93 Depth=2
	movzx	eax, byte ptr [r15 + 7]
	movzx	ecx, word ptr [r15 + 4]
	movzx	edx, byte ptr [r15 + 6]
	shl	edx, 16
	or	edx, ecx
	mov	ecx, dword ptr [r15]
	shl	rdx, 40
	shl	rcx, 8
	or	rcx, rdx
	shrd	rcx, rax, 8
	mov	r8b, 1
	mov	qword ptr [rsp + 312], rcx      # 8-byte Spill
	mov	qword ptr [rsp + 8], rcx        # 8-byte Spill
	jmp	.LBB155_143
.LBB155_140:                            #   in Loop: Header=BB155_93 Depth=2
	cmp	rcx, 3
	jbe	.LBB155_367
# %bb.141:                              #   in Loop: Header=BB155_93 Depth=2
	mov	eax, dword ptr [r15]
.LBB155_142:                            #   in Loop: Header=BB155_93 Depth=2
	mov	r8b, 1
	mov	qword ptr [rsp + 312], rax      # 8-byte Spill
	mov	qword ptr [rsp + 8], rax        # 8-byte Spill
.LBB155_143:                            #   in Loop: Header=BB155_93 Depth=2
	mov	rdx, qword ptr [rsp]            # 8-byte Reload
	jmp	.LBB155_154
.LBB155_144:                            #   in Loop: Header=BB155_93 Depth=2
	cmp	rcx, 1
	jbe	.LBB155_367
# %bb.145:                              #   in Loop: Header=BB155_93 Depth=2
	movzx	eax, word ptr [r15]
	jmp	.LBB155_150
.LBB155_146:                            #   in Loop: Header=BB155_93 Depth=2
	cmp	rcx, 7
	jbe	.LBB155_367
# %bb.147:                              #   in Loop: Header=BB155_93 Depth=2
	movzx	eax, byte ptr [r15 + 7]
	movzx	ecx, word ptr [r15 + 4]
	movzx	edx, byte ptr [r15 + 6]
	shl	edx, 16
	or	edx, ecx
	mov	ecx, dword ptr [r15]
	shl	rdx, 40
	shl	rcx, 8
	or	rcx, rdx
	shrd	rcx, rax, 8
	mov	al, 1
	mov	dword ptr [rsp + 96], eax       # 4-byte Spill
	mov	qword ptr [rsp + 328], rcx      # 8-byte Spill
	mov	qword ptr [rsp + 240], rcx      # 8-byte Spill
	jmp	.LBB155_151
.LBB155_148:                            #   in Loop: Header=BB155_93 Depth=2
	cmp	rcx, 3
	jbe	.LBB155_367
# %bb.149:                              #   in Loop: Header=BB155_93 Depth=2
	mov	eax, dword ptr [r15]
.LBB155_150:                            #   in Loop: Header=BB155_93 Depth=2
	mov	cl, 1
	mov	dword ptr [rsp + 96], ecx       # 4-byte Spill
	mov	qword ptr [rsp + 328], rax      # 8-byte Spill
	mov	qword ptr [rsp + 240], rax      # 8-byte Spill
.LBB155_151:                            #   in Loop: Header=BB155_93 Depth=2
	mov	r15, qword ptr [rsp + 128]      # 8-byte Reload
.LBB155_152:                            #   in Loop: Header=BB155_93 Depth=2
	mov	rdx, qword ptr [rsp]            # 8-byte Reload
.LBB155_153:                            #   in Loop: Header=BB155_93 Depth=2
	mov	qword ptr [rsp + 128], r15      # 8-byte Spill
.LBB155_154:                            #   in Loop: Header=BB155_93 Depth=2
	lea	r14, [rsp + 1216]
.LBB155_155:                            #   in Loop: Header=BB155_93 Depth=2
	add	r9, 16
	cmp	rdx, r9
	jne	.LBB155_93
# %bb.156:                              #   in Loop: Header=BB155_43 Depth=1
	mov	rax, qword ptr [rsp + 72]       # 8-byte Reload
	test	al, 1
	mov	r15, qword ptr [rsp + 8]        # 8-byte Reload
	lea	r13, [rsp + 1312]
	je	.LBB155_158
	jmp	.LBB155_170
.LBB155_157:                            #   in Loop: Header=BB155_43 Depth=1
	mov	dword ptr [rsp + 56], 0         # 4-byte Folded Spill
                                        # implicit-def: $ax
                                        # kill: killed $ax
	xor	r8d, r8d
	mov	dword ptr [rsp + 96], 0         # 4-byte Folded Spill
	mov	dword ptr [rsp + 264], 0        # 4-byte Folded Spill
	xor	eax, eax
	lea	r14, [rsp + 1216]
	mov	r15, qword ptr [rsp + 8]        # 8-byte Reload
.LBB155_158:                            #   in Loop: Header=BB155_43 Depth=1
	mov	r9, qword ptr [rsp + 352]
	test	r9, r9
	je	.LBB155_170
# %bb.159:                              #   in Loop: Header=BB155_43 Depth=1
	mov	qword ptr [rsp + 72], rax       # 8-byte Spill
	mov	rax, qword ptr [rsp + 344]
	cmp	r9, 1
	jne	.LBB155_161
# %bb.160:                              #   in Loop: Header=BB155_43 Depth=1
	xor	r10d, r10d
	jmp	.LBB155_163
.LBB155_161:                            #   in Loop: Header=BB155_43 Depth=1
	mov	rcx, r9
	xor	edx, edx
.LBB155_162:                            #   Parent Loop BB155_43 Depth=1
                                        # =>  This Inner Loop Header: Depth=2
	mov	rsi, rcx
	shr	rsi
	lea	r10, [rsi + rdx]
	mov	rdi, r10
	shl	rdi, 4
	cmp	qword ptr [rax + rdi], r12
	cmova	r10, rdx
	sub	rcx, rsi
	mov	rdx, r10
	cmp	rcx, 1
	ja	.LBB155_162
.LBB155_163:                            #   in Loop: Header=BB155_43 Depth=1
	mov	rcx, r10
	shl	rcx, 4
	cmp	qword ptr [rax + rcx], r12
	jne	.LBB155_231
# %bb.164:                              #   in Loop: Header=BB155_43 Depth=1
	add	rcx, rax
	add	rcx, -16
	inc	r10
.LBB155_165:                            #   Parent Loop BB155_43 Depth=1
                                        # =>  This Inner Loop Header: Depth=2
	cmp	r10, 1
	je	.LBB155_167
# %bb.166:                              #   in Loop: Header=BB155_165 Depth=2
	dec	r10
	cmp	qword ptr [rcx], r12
	lea	rcx, [rcx - 16]
	je	.LBB155_165
	jmp	.LBB155_168
.LBB155_167:                            #   in Loop: Header=BB155_43 Depth=1
	xor	r10d, r10d
.LBB155_168:                            #   in Loop: Header=BB155_43 Depth=1
	cmp	r10, r9
	jne	.LBB155_182
# %bb.169:                              #   in Loop: Header=BB155_43 Depth=1
	mov	rax, qword ptr [rsp + 72]       # 8-byte Reload
.LBB155_170:                            #   in Loop: Header=BB155_43 Depth=1
	test	al, 1
	je	.LBB155_232
.LBB155_171:                            #   in Loop: Header=BB155_43 Depth=1
	mov	qword ptr [rsp + 16], r12       # 8-byte Spill
	mov	qword ptr [rsp + 8], r15        # 8-byte Spill
	mov	eax, dword ptr [rsp + 1288]
	xor	ecx, ecx
	cmp	eax, 327680
	setae	cl
	shl	ecx, 4
	mov	rdx, qword ptr [rsp + 32]       # 8-byte Reload
	mov	r15, qword ptr [rdx + rcx + 224]
	mov	rcx, qword ptr [rdx + rcx + 232]
	mov	rsi, qword ptr [rsp + 504]      # 8-byte Reload
	sub	rcx, rsi
	jb	.LBB155_257
# %bb.172:                              #   in Loop: Header=BB155_43 Depth=1
	mov	edx, eax
	shr	edx, 16
	add	r15, rsi
	cmp	eax, 327680
	mov	rsi, qword ptr [rsp + 1624]
	mov	rdi, qword ptr [rsp + 1640]
	mov	r8, qword ptr [rsp + 40]        # 8-byte Reload
	mov	qword ptr [rsp + 656], r8
	mov	r8, qword ptr [rsp + 48]        # 8-byte Reload
	mov	qword ptr [rsp + 664], r8
	mov	qword ptr [rsp + 672], rsi
	mov	qword ptr [rsp + 680], rdi
	mov	qword ptr [rsp + 688], r15
	mov	qword ptr [rsp + 696], rcx
	mov	word ptr [rsp + 704], ax
	mov	word ptr [rsp + 706], dx
	setae	byte ptr [rsp + 708]
	xor	r12d, r12d
.LBB155_173:                            #   Parent Loop BB155_43 Depth=1
                                        # =>  This Inner Loop Header: Depth=2
	lea	rdi, [rsp + 280]
	lea	rsi, [rsp + 656]
	call	_RNvMsc_NtNtCsktQxXQGZjIy_5gimli4read8rnglistsINtB5_11RngListIterINtNtB7_12endian_slice11EndianSliceNtNtB9_9endianity12LittleEndianEE4nextCs3bNtqN8jaZB_3std
	mov	rax, qword ptr [rsp + 280]
	mov	r14, qword ptr [rsp + 288]
	mov	r15, qword ptr [rsp + 296]
	cmp	rax, 2
	je	.LBB155_179
# %bb.174:                              #   in Loop: Header=BB155_173 Depth=2
	test	al, 1
	je	.LBB155_180
# %bb.175:                              #   in Loop: Header=BB155_173 Depth=2
	cmp	r14, r15
	jae	.LBB155_173
# %bb.176:                              #   in Loop: Header=BB155_173 Depth=2
	mov	r13, qword ptr [rsp + 208]
	cmp	r13, qword ptr [rsp + 192]
	jne	.LBB155_178
# %bb.177:                              #   in Loop: Header=BB155_173 Depth=2
.Ltmp584:
	lea	rdi, [rsp + 192]
	call	_RNvMs0_NtCs78A21jy8lRn_5alloc7raw_vecINtB5_6RawVecNtNtCsfwdNdOnv07X_9addr2line4line12LineSequenceE8grow_oneCs3bNtqN8jaZB_3std
.Ltmp585:
.LBB155_178:                            #   in Loop: Header=BB155_173 Depth=2
	mov	rax, qword ptr [rsp + 200]
	mov	rcx, r13
	shl	rcx, 5
	mov	qword ptr [rax + rcx], r14
	mov	qword ptr [rax + rcx + 8], r15
	mov	qword ptr [rax + rcx + 16], rbx
	and	qword ptr [rax + rcx + 24], 0
	inc	r13
	mov	qword ptr [rsp + 208], r13
	mov	r12b, 1
	lea	r13, [rsp + 1312]
	jmp	.LBB155_173
.LBB155_179:                            #   in Loop: Header=BB155_43 Depth=1
	mov	r12d, r14d
	shr	r12d, 8
	cmp	r14b, 82
	jne	.LBB155_386
.LBB155_180:                            #   in Loop: Header=BB155_43 Depth=1
	and	qword ptr [rsp + 416], 0
	test	r12b, 1
	lea	r14, [rsp + 1216]
	jne	.LBB155_251
# %bb.181:                              #   in Loop: Header=BB155_43 Depth=1
	mov	rax, qword ptr [rsp + 1312]
	cmp	eax, 47
	mov	r12, qword ptr [rsp + 16]       # 8-byte Reload
	je	.LBB155_73
	jmp	.LBB155_241
.LBB155_182:                            #   in Loop: Header=BB155_43 Depth=1
	shl	r9, 4
	add	r9, rax
	shl	r10, 4
	add	r10, rax
	mov	al, 1
	mov	dword ptr [rsp + 168], eax      # 4-byte Spill
	mov	qword ptr [rsp + 8], r15        # 8-byte Spill
	mov	dword ptr [rsp], r8d            # 4-byte Spill
	mov	qword ptr [rsp + 120], r9       # 8-byte Spill
.LBB155_183:                            #   Parent Loop BB155_43 Depth=1
                                        # =>  This Loop Header: Depth=2
                                        #       Child Loop BB155_189 Depth 3
                                        #         Child Loop BB155_200 Depth 4
                                        #           Child Loop BB155_202 Depth 5
                                        #         Child Loop BB155_192 Depth 4
                                        #           Child Loop BB155_193 Depth 5
                                        #         Child Loop BB155_211 Depth 4
                                        #           Child Loop BB155_212 Depth 5
                                        #         Child Loop BB155_218 Depth 4
                                        #           Child Loop BB155_219 Depth 5
	cmp	qword ptr [r10], r12
	jne	.LBB155_230
# %bb.184:                              #   in Loop: Header=BB155_183 Depth=2
	mov	qword ptr [rsp + 144], r10      # 8-byte Spill
	mov	rdx, qword ptr [r10 + 8]
	mov	rax, qword ptr [rsp + 104]      # 8-byte Reload
	sub	rax, rdx
	jb	.LBB155_368
# %bb.185:                              #   in Loop: Header=BB155_183 Depth=2
	mov	rcx, qword ptr [rsp + 24]       # 8-byte Reload
	add	rcx, rdx
	mov	qword ptr [rsp + 280], rcx
	mov	qword ptr [rsp + 288], rax
	lea	rdi, [rsp + 656]
	lea	rsi, [rsp + 280]
	call	_RNvMs4_NtNtCsktQxXQGZjIy_5gimli4read7arangesINtB5_12ArangeHeaderINtNtB7_12endian_slice11EndianSliceNtNtB9_9endianity12LittleEndianEjE5parseCs3bNtqN8jaZB_3std
	movzx	r11d, byte ptr [rsp + 697]
	cmp	r11d, 3
	je	.LBB155_369
# %bb.186:                              #   in Loop: Header=BB155_183 Depth=2
	movzx	eax, byte ptr [rsp + 696]
	movzx	ecx, word ptr [rsp + 698]
	shl	ecx, 16
	shl	r11d, 8
	or	r11d, eax
	or	r11d, ecx
	mov	ecx, r11d
	neg	cl
	shl	cl, 3
	push	-1
	.cfi_adjust_cfa_offset 8
	pop	rdx
	.cfi_adjust_cfa_offset -8
	shr	rdx, cl
	cmp	r11b, 8
	mov	r8d, dword ptr [rsp]            # 4-byte Reload
	mov	r9, qword ptr [rsp + 120]       # 8-byte Reload
	mov	r10, qword ptr [rsp + 144]      # 8-byte Reload
	ja	.LBB155_229
# %bb.187:                              #   in Loop: Header=BB155_183 Depth=2
	movzx	esi, r11b
	mov	eax, 278
	bt	eax, esi
	jae	.LBB155_229
# %bb.188:                              #   in Loop: Header=BB155_183 Depth=2
	mov	r14, qword ptr [rsp + 656]
	mov	r15, qword ptr [rsp + 664]
	lea	eax, [r11 + r11]
	movzx	edi, al
	mov	rax, rdx
	and	rax, -2
	mov	qword ptr [rsp + 80], rax       # 8-byte Spill
.LBB155_189:                            #   Parent Loop BB155_43 Depth=1
                                        #     Parent Loop BB155_183 Depth=2
                                        # =>    This Loop Header: Depth=3
                                        #         Child Loop BB155_200 Depth 4
                                        #           Child Loop BB155_202 Depth 5
                                        #         Child Loop BB155_192 Depth 4
                                        #           Child Loop BB155_193 Depth 5
                                        #         Child Loop BB155_211 Depth 4
                                        #           Child Loop BB155_212 Depth 5
                                        #         Child Loop BB155_218 Depth 4
                                        #           Child Loop BB155_219 Depth 5
	cmp	r11b, 1
	je	.LBB155_218
# %bb.190:                              #   in Loop: Header=BB155_189 Depth=3
	cmp	esi, 2
	je	.LBB155_211
# %bb.191:                              #   in Loop: Header=BB155_189 Depth=3
	cmp	esi, 4
	mov	dword ptr [rsp + 112], esi      # 4-byte Spill
	mov	qword ptr [rsp + 184], rdx      # 8-byte Spill
	jne	.LBB155_200
.LBB155_192:                            #   Parent Loop BB155_43 Depth=1
                                        #     Parent Loop BB155_183 Depth=2
                                        #       Parent Loop BB155_189 Depth=3
                                        # =>      This Loop Header: Depth=4
                                        #           Child Loop BB155_193 Depth 5
	test	r15, r15
	je	.LBB155_228
.LBB155_193:                            #   Parent Loop BB155_43 Depth=1
                                        #     Parent Loop BB155_183 Depth=2
                                        #       Parent Loop BB155_189 Depth=3
                                        #         Parent Loop BB155_192 Depth=4
                                        # =>        This Inner Loop Header: Depth=5
	cmp	r15, rdi
	jb	.LBB155_228
# %bb.194:                              #   in Loop: Header=BB155_193 Depth=5
	mov	rax, r15
	and	rax, -4
	cmp	r15, 4
	jb	.LBB155_199
# %bb.195:                              #   in Loop: Header=BB155_193 Depth=5
	cmp	rax, 4
	je	.LBB155_199
# %bb.196:                              #   in Loop: Header=BB155_193 Depth=5
	mov	r13d, dword ptr [r14]
	mov	eax, dword ptr [r14 + 4]
	add	r15, -8
	add	r14, 8
	mov	rcx, rax
	or	rcx, r13
	je	.LBB155_193
# %bb.197:                              #   in Loop: Header=BB155_192 Depth=4
	lea	rcx, [rax + r13]
	cmp	qword ptr [rsp + 80], r13       # 8-byte Folded Reload
	jbe	.LBB155_192
# %bb.198:                              #   in Loop: Header=BB155_192 Depth=4
	cmp	rcx, rdx
	ja	.LBB155_192
	jmp	.LBB155_224
.LBB155_199:                            #   in Loop: Header=BB155_192 Depth=4
	push	1
	.cfi_adjust_cfa_offset 8
	pop	r14
	.cfi_adjust_cfa_offset -8
	xor	r15d, r15d
	jmp	.LBB155_192
.LBB155_200:                            #   Parent Loop BB155_43 Depth=1
                                        #     Parent Loop BB155_183 Depth=2
                                        #       Parent Loop BB155_189 Depth=3
                                        # =>      This Loop Header: Depth=4
                                        #           Child Loop BB155_202 Depth 5
	test	r15, r15
	je	.LBB155_228
# %bb.201:                              #   in Loop: Header=BB155_200 Depth=4
	mov	rcx, r14
.LBB155_202:                            #   Parent Loop BB155_43 Depth=1
                                        #     Parent Loop BB155_183 Depth=2
                                        #       Parent Loop BB155_189 Depth=3
                                        #         Parent Loop BB155_200 Depth=4
                                        # =>        This Inner Loop Header: Depth=5
	cmp	r15, rdi
	jb	.LBB155_228
# %bb.203:                              #   in Loop: Header=BB155_202 Depth=5
	mov	rax, r15
	and	rax, -8
	cmp	r15, 8
	jb	.LBB155_209
# %bb.204:                              #   in Loop: Header=BB155_202 Depth=5
	cmp	rax, 8
	je	.LBB155_209
# %bb.205:                              #   in Loop: Header=BB155_202 Depth=5
	movzx	eax, word ptr [rcx + 4]
	movzx	edx, byte ptr [rcx + 6]
	shl	edx, 16
	or	edx, eax
	mov	r13d, dword ptr [rcx]
	movzx	eax, byte ptr [rcx + 7]
	shl	rdx, 40
	shl	r13, 8
	or	r13, rdx
	shrd	r13, rax, 8
	mov	eax, dword ptr [rcx + 8]
	add	r15, -16
	movzx	edx, byte ptr [rcx + 15]
	movzx	esi, word ptr [rcx + 12]
	mov	r14, rdi
	movzx	edi, byte ptr [rcx + 14]
	shl	edi, 16
	or	edi, esi
	shl	rdi, 40
	shl	rax, 8
	or	rax, rdi
	mov	rdi, r14
	shrd	rax, rdx, 8
	lea	r14, [rcx + 16]
	mov	rcx, rax
	or	rcx, r13
	mov	rcx, r14
	je	.LBB155_202
# %bb.206:                              #   in Loop: Header=BB155_200 Depth=4
	cmp	r13, qword ptr [rsp + 80]       # 8-byte Folded Reload
	mov	rdx, qword ptr [rsp + 184]      # 8-byte Reload
	mov	esi, dword ptr [rsp + 112]      # 4-byte Reload
	jae	.LBB155_200
# %bb.207:                              #   in Loop: Header=BB155_200 Depth=4
	mov	rcx, rax
	add	rcx, r13
	jb	.LBB155_200
# %bb.208:                              #   in Loop: Header=BB155_200 Depth=4
	cmp	rcx, rdx
	jbe	.LBB155_224
	jmp	.LBB155_200
.LBB155_209:                            #   in Loop: Header=BB155_200 Depth=4
	push	1
	.cfi_adjust_cfa_offset 8
	pop	r14
	.cfi_adjust_cfa_offset -8
	xor	r15d, r15d
	jmp	.LBB155_200
.LBB155_210:                            #   in Loop: Header=BB155_211 Depth=4
	push	1
	.cfi_adjust_cfa_offset 8
	pop	r14
	.cfi_adjust_cfa_offset -8
	xor	r15d, r15d
.LBB155_211:                            #   Parent Loop BB155_43 Depth=1
                                        #     Parent Loop BB155_183 Depth=2
                                        #       Parent Loop BB155_189 Depth=3
                                        # =>      This Loop Header: Depth=4
                                        #           Child Loop BB155_212 Depth 5
	test	r15, r15
	je	.LBB155_228
.LBB155_212:                            #   Parent Loop BB155_43 Depth=1
                                        #     Parent Loop BB155_183 Depth=2
                                        #       Parent Loop BB155_189 Depth=3
                                        #         Parent Loop BB155_211 Depth=4
                                        # =>        This Inner Loop Header: Depth=5
	cmp	r15, rdi
	jb	.LBB155_228
# %bb.213:                              #   in Loop: Header=BB155_212 Depth=5
	sub	r15, 4
	jb	.LBB155_210
# %bb.214:                              #   in Loop: Header=BB155_212 Depth=5
	movzx	r13d, word ptr [r14]
	movzx	eax, word ptr [r14 + 2]
	add	r14, 4
	mov	rcx, rax
	or	rcx, r13
	je	.LBB155_212
# %bb.215:                              #   in Loop: Header=BB155_211 Depth=4
	lea	rcx, [rax + r13]
	cmp	qword ptr [rsp + 80], r13       # 8-byte Folded Reload
	jbe	.LBB155_211
# %bb.216:                              #   in Loop: Header=BB155_211 Depth=4
	cmp	rcx, rdx
	ja	.LBB155_211
	jmp	.LBB155_224
.LBB155_217:                            #   in Loop: Header=BB155_218 Depth=4
	push	1
	.cfi_adjust_cfa_offset 8
	pop	r14
	.cfi_adjust_cfa_offset -8
	xor	r15d, r15d
.LBB155_218:                            #   Parent Loop BB155_43 Depth=1
                                        #     Parent Loop BB155_183 Depth=2
                                        #       Parent Loop BB155_189 Depth=3
                                        # =>      This Loop Header: Depth=4
                                        #           Child Loop BB155_219 Depth 5
	test	r15, r15
	je	.LBB155_228
.LBB155_219:                            #   Parent Loop BB155_43 Depth=1
                                        #     Parent Loop BB155_183 Depth=2
                                        #       Parent Loop BB155_189 Depth=3
                                        #         Parent Loop BB155_218 Depth=4
                                        # =>        This Inner Loop Header: Depth=5
	cmp	r15, rdi
	jb	.LBB155_228
# %bb.220:                              #   in Loop: Header=BB155_219 Depth=5
	sub	r15, 2
	jb	.LBB155_217
# %bb.221:                              #   in Loop: Header=BB155_219 Depth=5
	movzx	r13d, byte ptr [r14]
	movzx	eax, byte ptr [r14 + 1]
	add	r14, 2
	mov	rcx, rax
	or	rcx, r13
	je	.LBB155_219
# %bb.222:                              #   in Loop: Header=BB155_218 Depth=4
	lea	rcx, [rax + r13]
	cmp	qword ptr [rsp + 80], r13       # 8-byte Folded Reload
	jbe	.LBB155_218
# %bb.223:                              #   in Loop: Header=BB155_218 Depth=4
	cmp	rcx, rdx
	ja	.LBB155_218
.LBB155_224:                            #   in Loop: Header=BB155_189 Depth=3
	test	rax, rax
	je	.LBB155_189
# %bb.225:                              #   in Loop: Header=BB155_189 Depth=3
	mov	qword ptr [rsp + 168], rcx      # 8-byte Spill
	mov	qword ptr [rsp + 384], r14      # 8-byte Spill
	mov	qword ptr [rsp + 256], rdi      # 8-byte Spill
	mov	dword ptr [rsp + 112], esi      # 4-byte Spill
	mov	qword ptr [rsp + 184], rdx      # 8-byte Spill
	mov	qword ptr [rsp + 320], r11      # 8-byte Spill
	mov	rax, qword ptr [rsp + 208]
	mov	r14, rax
	cmp	rax, qword ptr [rsp + 192]
	jne	.LBB155_227
# %bb.226:                              #   in Loop: Header=BB155_189 Depth=3
.Ltmp576:
	lea	rdi, [rsp + 192]
	call	_RNvMs0_NtCs78A21jy8lRn_5alloc7raw_vecINtB5_6RawVecNtNtCsfwdNdOnv07X_9addr2line4line12LineSequenceE8grow_oneCs3bNtqN8jaZB_3std
.Ltmp577:
.LBB155_227:                            #   in Loop: Header=BB155_189 Depth=3
	mov	rax, qword ptr [rsp + 200]
	mov	rcx, r14
	shl	rcx, 5
	mov	qword ptr [rax + rcx], r13
	mov	rdx, qword ptr [rsp + 168]      # 8-byte Reload
	mov	qword ptr [rax + rcx + 8], rdx
	mov	qword ptr [rax + rcx + 16], rbx
	and	qword ptr [rax + rcx + 24], 0
	inc	r14
	mov	qword ptr [rsp + 208], r14
	mov	dword ptr [rsp + 168], 0        # 4-byte Folded Spill
	mov	r8d, dword ptr [rsp]            # 4-byte Reload
	mov	r9, qword ptr [rsp + 120]       # 8-byte Reload
	mov	r10, qword ptr [rsp + 144]      # 8-byte Reload
	mov	r11, qword ptr [rsp + 320]      # 8-byte Reload
	mov	rdx, qword ptr [rsp + 184]      # 8-byte Reload
	mov	esi, dword ptr [rsp + 112]      # 4-byte Reload
	mov	rdi, qword ptr [rsp + 256]      # 8-byte Reload
	mov	r14, qword ptr [rsp + 384]      # 8-byte Reload
	jmp	.LBB155_189
.LBB155_228:                            #   in Loop: Header=BB155_183 Depth=2
	lea	r13, [rsp + 1312]
	lea	r14, [rsp + 1216]
	mov	r15, qword ptr [rsp + 8]        # 8-byte Reload
.LBB155_229:                            #   in Loop: Header=BB155_183 Depth=2
	add	r10, 16
	cmp	r10, r9
	jne	.LBB155_183
.LBB155_230:                            #   in Loop: Header=BB155_43 Depth=1
	test	byte ptr [rsp + 168], 1         # 1-byte Folded Reload
	je	.LBB155_72
.LBB155_231:                            #   in Loop: Header=BB155_43 Depth=1
	test	byte ptr [rsp + 72], 1          # 1-byte Folded Reload
	jne	.LBB155_171
.LBB155_232:                            #   in Loop: Header=BB155_43 Depth=1
	mov	eax, dword ptr [rsp + 96]       # 4-byte Reload
	and	al, r8b
	test	al, 1
	mov	qword ptr [rsp + 8], r15        # 8-byte Spill
	je	.LBB155_236
# %bb.233:                              #   in Loop: Header=BB155_43 Depth=1
	cmp	r15, qword ptr [rsp + 240]      # 8-byte Folded Reload
	jae	.LBB155_240
# %bb.234:                              #   in Loop: Header=BB155_43 Depth=1
	mov	r14, qword ptr [rsp + 208]
	cmp	r14, qword ptr [rsp + 192]
	jne	.LBB155_252
# %bb.235:                              #   in Loop: Header=BB155_43 Depth=1
.Ltmp581:
	lea	rdi, [rsp + 192]
	call	_RNvMs0_NtCs78A21jy8lRn_5alloc7raw_vecINtB5_6RawVecNtNtCsfwdNdOnv07X_9addr2line4line12LineSequenceE8grow_oneCs3bNtqN8jaZB_3std
.Ltmp582:
	mov	r15, qword ptr [rsp + 240]      # 8-byte Reload
	jmp	.LBB155_253
.LBB155_236:                            #   in Loop: Header=BB155_43 Depth=1
	and	r8b, byte ptr [rsp + 264]       # 1-byte Folded Reload
	test	r8b, 1
	je	.LBB155_240
# %bb.237:                              #   in Loop: Header=BB155_43 Depth=1
	mov	rax, qword ptr [rsp + 128]      # 8-byte Reload
	mov	rcx, qword ptr [rsp + 8]        # 8-byte Reload
	lea	r15, [rax + rcx]
	cmp	rcx, r15
	jae	.LBB155_240
# %bb.238:                              #   in Loop: Header=BB155_43 Depth=1
	mov	r14, qword ptr [rsp + 208]
	cmp	r14, qword ptr [rsp + 192]
	jne	.LBB155_253
# %bb.239:                              #   in Loop: Header=BB155_43 Depth=1
.Ltmp579:
	lea	rdi, [rsp + 192]
	call	_RNvMs0_NtCs78A21jy8lRn_5alloc7raw_vecINtB5_6RawVecNtNtCsfwdNdOnv07X_9addr2line4line12LineSequenceE8grow_oneCs3bNtqN8jaZB_3std
.Ltmp580:
	jmp	.LBB155_253
.LBB155_240:                            #   in Loop: Header=BB155_43 Depth=1
	and	qword ptr [rsp + 416], 0
	cmp	dword ptr [rsp + 1312], 47
	je	.LBB155_73
.LBB155_241:                            #   in Loop: Header=BB155_43 Depth=1
.Ltmp587:
	lea	rdi, [rsp + 416]
	mov	rsi, qword ptr [rsp + 224]      # 8-byte Reload
	mov	rdx, r14
	mov	rcx, r13
	call	_RINvMNtNtCsfQL5qMWGko6_4core4cell4onceINtB3_8OnceCellINtNtB7_6result6ResultNtNtCsfwdNdOnv07X_9addr2line4line5LinesNtNtCsktQxXQGZjIy_5gimli4read5ErrorEE8try_initNCINvB2_11get_or_initNCINvMB1d_NtB1d_9LazyLines6borrowINtNtB1Q_12endian_slice11EndianSliceNtNtB1S_9endianity12LittleEndianEE0E0zECs3bNtqN8jaZB_3std
.Ltmp588:
# %bb.242:                              #   in Loop: Header=BB155_43 Depth=1
	cmp	qword ptr [rax], 0
	jne	.LBB155_245
# %bb.243:                              #   in Loop: Header=BB155_43 Depth=1
	cmp	byte ptr [rax + 8], 82
	jne	.LBB155_73
# %bb.244:                              #   in Loop: Header=BB155_43 Depth=1
	mov	rax, qword ptr [rax + 16]
.LBB155_245:                            #   in Loop: Header=BB155_43 Depth=1
	mov	rcx, qword ptr [rax + 24]
	test	rcx, rcx
	je	.LBB155_250
# %bb.246:                              #   in Loop: Header=BB155_43 Depth=1
	mov	rax, qword ptr [rax + 16]
	mov	qword ptr [rsp + 80], rax       # 8-byte Spill
	shl	rcx, 5
	mov	qword ptr [rsp], rcx            # 8-byte Spill
	mov	r13, qword ptr [rsp + 208]
	mov	r15, r13
	shl	r15, 5
	xor	r14d, r14d
.LBB155_247:                            #   Parent Loop BB155_43 Depth=1
                                        # =>  This Inner Loop Header: Depth=2
	mov	rax, qword ptr [rsp + 80]       # 8-byte Reload
	movups	xmm0, xmmword ptr [rax + r14 + 16]
	movaps	xmmword ptr [rsp + 144], xmm0   # 16-byte Spill
	cmp	r13, qword ptr [rsp + 192]
	jne	.LBB155_249
# %bb.248:                              #   in Loop: Header=BB155_247 Depth=2
.Ltmp590:
	lea	rdi, [rsp + 192]
	call	_RNvMs0_NtCs78A21jy8lRn_5alloc7raw_vecINtB5_6RawVecNtNtCsfwdNdOnv07X_9addr2line4line12LineSequenceE8grow_oneCs3bNtqN8jaZB_3std
.Ltmp591:
.LBB155_249:                            #   in Loop: Header=BB155_247 Depth=2
	mov	rax, qword ptr [rsp + 200]
	add	rax, r15
	movaps	xmm0, xmmword ptr [rsp + 144]   # 16-byte Reload
	movups	xmmword ptr [r14 + rax], xmm0
	mov	qword ptr [r14 + rax + 16], rbx
	and	qword ptr [r14 + rax + 24], 0
	inc	r13
	mov	qword ptr [rsp + 208], r13
	add	r14, 32
	cmp	qword ptr [rsp], r14            # 8-byte Folded Reload
	jne	.LBB155_247
.LBB155_250:                            #   in Loop: Header=BB155_43 Depth=1
	lea	r13, [rsp + 1312]
	lea	r14, [rsp + 1216]
	jmp	.LBB155_73
.LBB155_251:                            #   in Loop: Header=BB155_43 Depth=1
	mov	r12, qword ptr [rsp + 16]       # 8-byte Reload
	jmp	.LBB155_73
.LBB155_252:                            #   in Loop: Header=BB155_43 Depth=1
	mov	r15, qword ptr [rsp + 240]      # 8-byte Reload
.LBB155_253:                            #   in Loop: Header=BB155_43 Depth=1
	mov	rax, qword ptr [rsp + 200]
	mov	rcx, r14
	shl	rcx, 5
	mov	rdx, qword ptr [rsp + 8]        # 8-byte Reload
	mov	qword ptr [rax + rcx], rdx
	mov	qword ptr [rax + rcx + 8], r15
	mov	qword ptr [rax + rcx + 16], rbx
	and	qword ptr [rax + rcx + 24], 0
	inc	r14
	mov	qword ptr [rsp + 208], r14
	lea	r14, [rsp + 1216]
	jmp	.LBB155_72
.LBB155_254:
	mov	r12, qword ptr [rsp + 656]
	mov	r15, qword ptr [rsp + 664]
	mov	ebx, r12d
	shr	ebx, 8
	mov	rbp, r12
	shr	rbp, 16
	jmp	.LBB155_281
.LBB155_255:
	mov	qword ptr [rsp + 416], r8
	mov	qword ptr [rsp + 424], rdi
	push	6
	.cfi_adjust_cfa_offset 8
	pop	r12
	.cfi_adjust_cfa_offset -8
                                        # implicit-def: $r15
	jmp	.LBB155_259
.LBB155_256:
	add	r15, rsi
.LBB155_257:
	push	19
	.cfi_adjust_cfa_offset 8
.LBB155_258:
	pop	r12
	.cfi_adjust_cfa_offset -8
.LBB155_259:
	xor	ebp, ebp
	xor	ebx, ebx
.LBB155_260:
	mov	rax, qword ptr [rsp + 1584]
	lock		dec	qword ptr [rax]
	jne	.LBB155_262
# %bb.261:
	#MEMBARRIER
	mov	rdi, qword ptr [rsp + 1584]
.Ltmp604:
	call	_RNvMsn_NtCs78A21jy8lRn_5alloc4syncINtB5_3ArcNtNtNtCsktQxXQGZjIy_5gimli4read6abbrev13AbbreviationsE9drop_slowCs3bNtqN8jaZB_3std
.Ltmp605:
.LBB155_262:
	cmp	dword ptr [rsp + 1312], 47
	je	.LBB155_271
# %bb.263:
	cmp	qword ptr [rsp + 1400], 0
	je	.LBB155_265
# %bb.264:
	mov	rdi, qword ptr [rsp + 1408]
	call	qword ptr [rip + free@GOTPCREL]
.LBB155_265:
	cmp	qword ptr [rsp + 1424], 0
	je	.LBB155_267
# %bb.266:
	mov	rdi, qword ptr [rsp + 1432]
	call	qword ptr [rip + free@GOTPCREL]
.LBB155_267:
	cmp	qword ptr [rsp + 1448], 0
	je	.LBB155_269
# %bb.268:
	mov	rdi, qword ptr [rsp + 1456]
	call	qword ptr [rip + free@GOTPCREL]
.LBB155_269:
	cmp	qword ptr [rsp + 1472], 0
	je	.LBB155_271
# %bb.270:
	mov	rdi, qword ptr [rsp + 1480]
	call	qword ptr [rip + free@GOTPCREL]
.LBB155_271:
	mov	qword ptr [rsp + 16], r12       # 8-byte Spill
	mov	r12d, ebx
	jmp	.LBB155_273
.LBB155_272:
	mov	rbp, r12
	shr	r12d, 8
	mov	qword ptr [rsp + 16], rbp       # 8-byte Spill
	shr	rbp, 16
.LBB155_273:
	mov	rbx, qword ptr [rsp + 368]
	mov	r13, qword ptr [rsp + 376]
	inc	r13
	mov	rdi, rbx
.LBB155_274:                            # =>This Inner Loop Header: Depth=1
	cmp	r13, 1
	je	.LBB155_276
# %bb.275:                              #   in Loop: Header=BB155_274 Depth=1
	lea	r14, [rdi + 560]
	dec	r13
.Ltmp622:
	call	_RINvNtCsfQL5qMWGko6_4core3ptr13drop_in_placeINtNtCsfwdNdOnv07X_9addr2line4unit7ResUnitINtNtNtCsktQxXQGZjIy_5gimli4read12endian_slice11EndianSliceNtNtB1t_9endianity12LittleEndianEEECs3bNtqN8jaZB_3std
.Ltmp623:
	mov	rdi, r14
	jmp	.LBB155_274
.LBB155_276:
	cmp	qword ptr [rsp + 360], 0
	je	.LBB155_278
# %bb.277:
	mov	rdi, rbx
	call	qword ptr [rip + free@GOTPCREL]
.LBB155_278:
	cmp	qword ptr [rsp + 192], 0
	je	.LBB155_280
# %bb.279:
	mov	rdi, qword ptr [rsp + 200]
	call	qword ptr [rip + free@GOTPCREL]
.LBB155_280:
	mov	ebx, r12d
	mov	r12, qword ptr [rsp + 16]       # 8-byte Reload
.LBB155_281:
	cmp	qword ptr [rsp + 336], 0
	je	.LBB155_305
# %bb.282:
	xor	r14d, r14d
                                        # implicit-def: $r13
.LBB155_283:
	mov	rdi, qword ptr [rsp + 344]
	call	qword ptr [rip + free@GOTPCREL]
	test	r14, r14
	je	.LBB155_305
.LBB155_284:
	shl	rbp, 16
	movzx	eax, bl
	shl	eax, 8
	or	rax, rbp
	movzx	ebx, r12b
	or	rbx, rax
	mov	qword ptr [rsp + 568], r14
	mov	qword ptr [rsp + 576], rbx
	mov	qword ptr [rsp + 584], r15
	mov	qword ptr [rsp + 592], r13
	mov	rax, qword ptr [rsp + 32]       # 8-byte Reload
	mov	r12, qword ptr [rax + 256]
	test	r12, r12
	je	.LBB155_295
# %bb.285:
	lea	rax, [rsp + 280]
	and	qword ptr [rax], 0
	mov	qword ptr [rax + 8], 8
	and	qword ptr [rax + 16], 0
	movups	xmm0, xmmword ptr [r12 + 64]
	add	r12, 16
	lea	r13, [rsp + 1696]
	movups	xmmword ptr [r13], xmm0
	and	qword ptr [r13 + 16], 0
	lea	r14, [rsp + 680]
	push	8
	.cfi_adjust_cfa_offset 8
	pop	rax
	.cfi_adjust_cfa_offset -8
	mov	qword ptr [rsp + 24], rax       # 8-byte Spill
	mov	qword ptr [rsp + 16], 0         # 8-byte Folded Spill
	lea	rbp, [rsp + 656]
	lea	r15, [rsp + 1216]
.LBB155_286:                            # =>This Inner Loop Header: Depth=1
	mov	rdi, rbp
	mov	rsi, r13
	call	_RNvMs6_NtNtCsktQxXQGZjIy_5gimli4read4unitINtB5_24DebugInfoUnitHeadersIterINtNtB7_12endian_slice11EndianSliceNtNtB9_9endianity12LittleEndianEE4nextCs3bNtqN8jaZB_3std
	mov	rax, qword ptr [rsp + 656]
	cmp	rax, 3
	je	.LBB155_303
# %bb.287:                              #   in Loop: Header=BB155_286 Depth=1
	movups	xmm3, xmmword ptr [rsp + 664]
	mov	rcx, qword ptr [r14 + 48]
	mov	qword ptr [rsp + 464], rcx
	movups	xmm0, xmmword ptr [r14]
	movups	xmm1, xmmword ptr [r14 + 16]
	movups	xmm2, xmmword ptr [r14 + 32]
	movaps	xmmword ptr [rsp + 448], xmm2
	movaps	xmmword ptr [rsp + 432], xmm1
	movaps	xmmword ptr [rsp + 416], xmm0
	cmp	eax, 2
	je	.LBB155_309
# %bb.288:                              #   in Loop: Header=BB155_286 Depth=1
	test	al, 1
	jne	.LBB155_286
# %bb.289:                              #   in Loop: Header=BB155_286 Depth=1
	and	qword ptr [rsp + 656], 0
	movaps	xmmword ptr [rsp + 224], xmm3   # 16-byte Spill
	movups	xmmword ptr [rsp + 664], xmm3
	mov	rax, qword ptr [rsp + 464]
	mov	qword ptr [r14 + 48], rax
	movaps	xmm0, xmmword ptr [rsp + 416]
	movaps	xmm1, xmmword ptr [rsp + 432]
	movaps	xmm2, xmmword ptr [rsp + 448]
	movups	xmmword ptr [r14 + 32], xmm2
	movups	xmmword ptr [r14 + 16], xmm1
	movups	xmmword ptr [r14], xmm0
.Ltmp628:
	mov	rdi, r15
	mov	rsi, r12
	mov	rdx, rbp
	call	_RNvMs4_NtNtCsktQxXQGZjIy_5gimli4read5dwarfINtB5_4UnitINtNtB7_12endian_slice11EndianSliceNtNtB9_9endianity12LittleEndianEjE3newCs3bNtqN8jaZB_3std
.Ltmp629:
# %bb.290:                              #   in Loop: Header=BB155_286 Depth=1
	cmp	dword ptr [rsp + 1216], 2
	je	.LBB155_286
# %bb.291:                              #   in Loop: Header=BB155_286 Depth=1
	mov	ecx, 448
	mov	rdi, rbp
	mov	rsi, r15
	rep movsb es:[rdi], [rsi]
	movaps	xmm0, xmmword ptr [rsp + 224]   # 16-byte Reload
	movlps	qword ptr [rsp + 1104], xmm0
	mov	rax, qword ptr [rsp + 16]       # 8-byte Reload
	cmp	rax, qword ptr [rsp + 280]
	mov	rcx, qword ptr [rsp + 24]       # 8-byte Reload
	jne	.LBB155_294
# %bb.292:                              #   in Loop: Header=BB155_286 Depth=1
.Ltmp631:
	lea	rdi, [rsp + 280]
	call	_RNvMs0_NtCs78A21jy8lRn_5alloc7raw_vecINtB5_6RawVecINtNtCsfwdNdOnv07X_9addr2line4unit7SupUnitINtNtNtCsktQxXQGZjIy_5gimli4read12endian_slice11EndianSliceNtNtB1z_9endianity12LittleEndianEEE8grow_oneCs3bNtqN8jaZB_3std
.Ltmp632:
# %bb.293:                              #   in Loop: Header=BB155_286 Depth=1
	mov	rcx, qword ptr [rsp + 288]
.LBB155_294:                            #   in Loop: Header=BB155_286 Depth=1
	mov	rdx, qword ptr [rsp + 16]       # 8-byte Reload
	imul	rdi, rdx, 456
	mov	qword ptr [rsp + 24], rcx       # 8-byte Spill
	add	rdi, rcx
	mov	ecx, 456
	mov	rsi, rbp
	rep movsb es:[rdi], [rsi]
	inc	rdx
	mov	qword ptr [rsp + 16], rdx       # 8-byte Spill
	mov	qword ptr [rsp + 296], rdx
	jmp	.LBB155_286
.LBB155_295:
	xor	r12d, r12d
	push	8
	.cfi_adjust_cfa_offset 8
	pop	rcx
	.cfi_adjust_cfa_offset -8
	push	1
	.cfi_adjust_cfa_offset 8
	pop	r15
	.cfi_adjust_cfa_offset -8
	jmp	.LBB155_327
.LBB155_296:
	mov	r14, qword ptr [rsp + 200]
	mov	r12, qword ptr [rsp + 208]
	cmp	r12, 2
	jae	.LBB155_375
# %bb.297:
	test	r12, r12
	je	.LBB155_315
.LBB155_298:
	mov	rbx, r12
	shl	rbx, 5
	push	-1
	.cfi_adjust_cfa_offset 8
	pop	rax
	.cfi_adjust_cfa_offset -8
	mov	rcx, rbx
.LBB155_299:                            # =>This Inner Loop Header: Depth=1
	mov	rdx, qword ptr [r14 + rcx - 32]
	cmp	rdx, rax
	cmovb	rax, rdx
	mov	qword ptr [r14 + rcx - 8], rax
	add	rcx, -32
	jne	.LBB155_299
# %bb.300:
	mov	rsi, qword ptr [rsp + 192]
	cmp	rsi, r12
	jbe	.LBB155_317
# %bb.301:
	shl	rsi, 5
	mov	rdi, r14
	mov	rdx, rbx
	call	_RNvCsL6e0J8m5bd_7___rustc14___rust_realloc
	test	rax, rax
	je	.LBB155_388
# %bb.302:
	xor	ebp, ebp
	mov	r14, rax
	jmp	.LBB155_318
.LBB155_303:
.Ltmp646:
	lea	rdi, [rsp + 280]
	call	_RINvNtCsfQL5qMWGko6_4core3ptr13drop_in_placeINtNtCs78A21jy8lRn_5alloc3vec3VecINtNtCsfwdNdOnv07X_9addr2line4unit7SupUnitINtNtNtCsktQxXQGZjIy_5gimli4read12endian_slice11EndianSliceNtNtB20_9endianity12LittleEndianEEEECs3bNtqN8jaZB_3std
.Ltmp647:
# %bb.304:
.Ltmp651:
	lea	rdi, [rsp + 568]
	call	_RINvNtCsfQL5qMWGko6_4core3ptr13drop_in_placeINtNtCsfwdNdOnv07X_9addr2line4unit8ResUnitsINtNtNtCsktQxXQGZjIy_5gimli4read12endian_slice11EndianSliceNtNtB1u_9endianity12LittleEndianEEECs3bNtqN8jaZB_3std
.Ltmp652:
.LBB155_305:
	mov	rax, qword ptr [rsp + 32]       # 8-byte Reload
	lock		dec	qword ptr [rax]
	mov	r14, qword ptr [rsp + 216]      # 8-byte Reload
	mov	ebp, dword ptr [rsp + 64]       # 4-byte Reload
	jne	.LBB155_307
# %bb.306:
	#MEMBARRIER
	mov	bl, 1
.Ltmp685:
	lea	rdi, [rsp + 520]
	call	_RNvMsn_NtCs78A21jy8lRn_5alloc4syncINtB5_3ArcINtNtNtCsktQxXQGZjIy_5gimli4read5dwarf5DwarfINtNtBL_12endian_slice11EndianSliceNtNtBN_9endianity12LittleEndianEEE9drop_slowCs3bNtqN8jaZB_3std
.Ltmp686:
.LBB155_307:
	movabs	rax, -9223372036854775808
	mov	rcx, qword ptr [rsp + 392]      # 8-byte Reload
	mov	qword ptr [rcx], rax
	mov	rcx, qword ptr [rsp + 272]      # 8-byte Reload
	mov	rdi, qword ptr [rcx]
	cmp	rdi, rax
	je	.LBB155_344
# %bb.308:
	mov	rsi, qword ptr [rcx + 8]
	call	_RINvNtCsfQL5qMWGko6_4core3ptr13drop_in_placeNtNtNtNtNtCs3bNtqN8jaZB_3std12backtrace_rs9symbolize5gimli3elf6ObjectEBQ_
	jmp	.LBB155_344
.LBB155_309:
	mov	rax, qword ptr [rsp + 280]
	mov	r12, qword ptr [rsp + 16]       # 8-byte Reload
	cmp	rax, r12
	jbe	.LBB155_314
# %bb.310:
	test	r12, r12
	push	1
	.cfi_adjust_cfa_offset 8
	pop	r15
	.cfi_adjust_cfa_offset -8
	mov	rdi, qword ptr [rsp + 24]       # 8-byte Reload
	je	.LBB155_325
# %bb.311:
	imul	rsi, rax, 456
	imul	r14, r12, 456
	mov	rdx, r14
	call	_RNvCsL6e0J8m5bd_7___rustc14___rust_realloc
	mov	rcx, rax
	test	rax, rax
	jne	.LBB155_326
# %bb.312:
.Ltmp640:
	mov	rdi, r14
	call	_RNvNtCs78A21jy8lRn_5alloc5alloc18handle_alloc_error
.Ltmp641:
# %bb.313:
.LBB155_314:
	push	1
	.cfi_adjust_cfa_offset 8
	pop	r15
	.cfi_adjust_cfa_offset -8
	mov	rcx, qword ptr [rsp + 24]       # 8-byte Reload
	jmp	.LBB155_326
.LBB155_315:
	mov	bpl, 1
	cmp	qword ptr [rsp + 192], 0
	je	.LBB155_318
# %bb.316:
	mov	rdi, r14
	call	qword ptr [rip + free@GOTPCREL]
	push	8
	.cfi_adjust_cfa_offset 8
	pop	r14
	.cfi_adjust_cfa_offset -8
	jmp	.LBB155_318
.LBB155_317:
	xor	ebp, ebp
.LBB155_318:
	mov	rax, qword ptr [rsp + 360]
	mov	r15, qword ptr [rsp + 368]
	mov	r13, qword ptr [rsp + 376]
	cmp	rax, r13
	jbe	.LBB155_324
# %bb.319:
	test	r13, r13
	je	.LBB155_323
# %bb.320:
	imul	rsi, rax, 560
	imul	rbx, r13, 560
	mov	rdi, r15
	mov	rdx, rbx
	call	_RNvCsL6e0J8m5bd_7___rustc14___rust_realloc
	mov	r15, rax
	test	rax, rax
	jne	.LBB155_324
# %bb.321:
.Ltmp616:
	mov	rdi, rbx
	call	_RNvNtCs78A21jy8lRn_5alloc5alloc18handle_alloc_error
.Ltmp617:
# %bb.322:
.LBB155_323:
	mov	rdi, r15
	call	qword ptr [rip + free@GOTPCREL]
	push	8
	.cfi_adjust_cfa_offset 8
	pop	r15
	.cfi_adjust_cfa_offset -8
.LBB155_324:
	mov	ebx, r12d
	shr	ebx, 8
	mov	rbp, r12
	shr	rbp, 16
	cmp	qword ptr [rsp + 336], 0
	jne	.LBB155_283
	jmp	.LBB155_284
.LBB155_325:
	call	qword ptr [rip + free@GOTPCREL]
	push	8
	.cfi_adjust_cfa_offset 8
	pop	rcx
	.cfi_adjust_cfa_offset -8
.LBB155_326:
	mov	r14, qword ptr [rsp + 568]
.LBB155_327:
	lea	rax, [rsp + 584]
	movups	xmm0, xmmword ptr [rax]
	movups	xmmword ptr [rsp + 624], xmm0
	mov	rax, qword ptr [rsp + 32]       # 8-byte Reload
	mov	qword ptr [rsp + 600], rax
	mov	qword ptr [rsp + 608], r14
	mov	qword ptr [rsp + 616], rbx
	mov	qword ptr [rsp + 640], rcx
	mov	qword ptr [rsp + 648], r12
	mov	r14, qword ptr [rsp + 272]      # 8-byte Reload
	mov	rcx, qword ptr [r14]
	movabs	rax, -9223372036854775808
	cmp	rcx, rax
	jne	.LBB155_330
# %bb.328:
	mov	r15b, 10
                                        # implicit-def: $r14b
                                        # implicit-def: $rax
                                        # kill: killed $rax
                                        # implicit-def: $rax
                                        # kill: killed $rax
                                        # implicit-def: $r11
                                        # implicit-def: $r10
                                        # implicit-def: $r8
                                        # implicit-def: $rax
                                        # kill: killed $rax
                                        # implicit-def: $r9
                                        # implicit-def: $rax
                                        # kill: killed $rax
                                        # implicit-def: $rbx
                                        # implicit-def: $rax
                                        # kill: killed $rax
                                        # implicit-def: $rax
                                        # kill: killed $rax
                                        # implicit-def: $rax
                                        # kill: killed $rax
                                        # implicit-def: $rax
                                        # kill: killed $rax
                                        # implicit-def: $rax
                                        # kill: killed $rax
                                        # implicit-def: $r13
                                        # implicit-def: $rax
                                        # kill: killed $rax
                                        # implicit-def: $rbp
                                        # implicit-def: $r12
.LBB155_329:
	mov	rax, qword ptr [rsp + 648]
	mov	rdx, qword ptr [rsp + 392]      # 8-byte Reload
	mov	qword ptr [rdx + 504], rax
	movups	xmm0, xmmword ptr [rsp + 600]
	movups	xmm1, xmmword ptr [rsp + 616]
	movups	xmm2, xmmword ptr [rsp + 632]
	movups	xmmword ptr [rdx + 488], xmm2
	movups	xmmword ptr [rdx + 472], xmm1
	movups	xmmword ptr [rdx + 456], xmm0
	push	120
	.cfi_adjust_cfa_offset 8
	pop	rcx
	.cfi_adjust_cfa_offset -8
	mov	rdi, rdx
	mov	rsi, qword ptr [rsp + 400]      # 8-byte Reload
	rep movsb es:[rdi], [rsi]
	mov	byte ptr [rdx + 120], r15b
	lea	rdi, [rdx + 121]
	push	87
	.cfi_adjust_cfa_offset 8
	pop	rcx
	.cfi_adjust_cfa_offset -8
	lea	rsi, [rsp + 2144]
	rep movsb es:[rdi], [rsi]
	mov	byte ptr [rdx + 208], r14b
	movaps	xmm0, xmmword ptr [rsp + 1664]
	movups	xmmword ptr [rdx + 209], xmm0
	mov	rax, qword ptr [rsp + 1679]
	mov	qword ptr [rdx + 224], rax
	movaps	xmm0, xmmword ptr [rsp + 2032]
	movaps	xmm1, xmmword ptr [rsp + 2048]
	movaps	xmm2, xmmword ptr [rsp + 2064]
	movaps	xmm3, xmmword ptr [rsp + 2080]
	movups	xmmword ptr [rdx + 232], xmm0
	movups	xmmword ptr [rdx + 248], xmm1
	movups	xmmword ptr [rdx + 264], xmm2
	movups	xmmword ptr [rdx + 280], xmm3
	mov	rax, qword ptr [rsp + 40]       # 8-byte Reload
	mov	qword ptr [rdx + 296], rax
	mov	rax, qword ptr [rsp + 144]      # 8-byte Reload
	mov	qword ptr [rdx + 304], rax
	mov	qword ptr [rdx + 312], r11
	mov	qword ptr [rdx + 320], r10
	mov	qword ptr [rdx + 328], r8
	mov	rax, qword ptr [rsp + 32]       # 8-byte Reload
	mov	qword ptr [rdx + 336], rax
	mov	qword ptr [rdx + 344], r9
	mov	rax, qword ptr [rsp + 224]      # 8-byte Reload
	mov	qword ptr [rdx + 352], rax
	mov	qword ptr [rdx + 360], rbx
	mov	rax, qword ptr [rsp + 16]       # 8-byte Reload
	mov	qword ptr [rdx + 368], rax
	mov	rax, qword ptr [rsp + 136]      # 8-byte Reload
	mov	qword ptr [rdx + 376], rax
	mov	rax, qword ptr [rsp + 24]       # 8-byte Reload
	mov	qword ptr [rdx + 384], rax
	mov	rax, qword ptr [rsp + 176]      # 8-byte Reload
	mov	qword ptr [rdx + 392], rax
	mov	rax, qword ptr [rsp + 104]      # 8-byte Reload
	mov	qword ptr [rdx + 400], rax
	mov	qword ptr [rdx + 408], r13
	mov	rax, qword ptr [rsp + 64]       # 8-byte Reload
	mov	qword ptr [rdx + 416], rax
	mov	qword ptr [rdx + 424], rbp
	mov	qword ptr [rdx + 432], r12
	mov	qword ptr [rdx + 440], 1
	and	qword ptr [rdx + 448], 0
	jmp	.LBB155_347
.LBB155_330:
.Ltmp657:
	mov	qword ptr [rsp + 56], rcx       # 8-byte Spill
	lea	rdx, [rip + .Lanon.28cb502c8ec02091c8e32b488a8e08d8.110]
	push	15
	.cfi_adjust_cfa_offset 8
	pop	rcx
	.cfi_adjust_cfa_offset -8
	mov	rdi, r14
	mov	rbx, qword ptr [rsp + 512]      # 8-byte Reload
	mov	rsi, rbx
	call	_RNvMs_NtNtNtNtCs3bNtqN8jaZB_3std12backtrace_rs9symbolize5gimli3elfNtB4_6Object7section
	mov	qword ptr [rsp + 48], rdx       # 8-byte Spill
.Ltmp658:
# %bb.331:
	test	rax, rax
	mov	rcx, rax
	cmove	rcx, r15
	mov	qword ptr [rsp + 80], rcx       # 8-byte Spill
	mov	rcx, qword ptr [rsp + 48]       # 8-byte Reload
	cmove	rcx, rax
	mov	qword ptr [rsp + 48], rcx       # 8-byte Spill
.Ltmp659:
	lea	rdx, [rip + .Lanon.28cb502c8ec02091c8e32b488a8e08d8.120]
	push	15
	.cfi_adjust_cfa_offset 8
	pop	rcx
	.cfi_adjust_cfa_offset -8
	mov	rdi, r14
	mov	rsi, rbx
	call	_RNvMs_NtNtNtNtCs3bNtqN8jaZB_3std12backtrace_rs9symbolize5gimli3elfNtB4_6Object7section
	mov	qword ptr [rsp + 128], rax      # 8-byte Spill
	mov	qword ptr [rsp], rdx            # 8-byte Spill
.Ltmp660:
# %bb.332:
.Ltmp661:
	lea	rdx, [rip + .Lanon.28cb502c8ec02091c8e32b488a8e08d8.109]
	push	17
	.cfi_adjust_cfa_offset 8
	pop	rcx
	.cfi_adjust_cfa_offset -8
	mov	rdi, r14
	mov	rsi, rbx
	call	_RNvMs_NtNtNtNtCs3bNtqN8jaZB_3std12backtrace_rs9symbolize5gimli3elfNtB4_6Object7section
.Ltmp662:
# %bb.333:
	mov	rbp, rdx
	test	rax, rax
	mov	rcx, rax
	cmove	rcx, r15
	mov	qword ptr [rsp + 40], rcx       # 8-byte Spill
	cmove	rbp, rax
.Ltmp663:
	lea	rdx, [rip + .Lanon.28cb502c8ec02091c8e32b488a8e08d8.111]
	push	15
	.cfi_adjust_cfa_offset 8
	pop	rcx
	.cfi_adjust_cfa_offset -8
	mov	rdi, r14
	mov	rsi, rbx
	call	_RNvMs_NtNtNtNtCs3bNtqN8jaZB_3std12backtrace_rs9symbolize5gimli3elfNtB4_6Object7section
	mov	qword ptr [rsp + 88], rdx       # 8-byte Spill
.Ltmp664:
# %bb.334:
	test	rax, rax
	mov	rcx, rax
	cmove	rcx, r15
	mov	qword ptr [rsp + 120], rcx      # 8-byte Spill
	mov	rcx, qword ptr [rsp + 88]       # 8-byte Reload
	cmove	rcx, rax
	mov	qword ptr [rsp + 88], rcx       # 8-byte Spill
.Ltmp665:
	lea	rdx, [rip + .Lanon.28cb502c8ec02091c8e32b488a8e08d8.112]
	push	15
	.cfi_adjust_cfa_offset 8
	pop	rcx
	.cfi_adjust_cfa_offset -8
	mov	rdi, r14
	mov	rsi, rbx
	call	_RNvMs_NtNtNtNtCs3bNtqN8jaZB_3std12backtrace_rs9symbolize5gimli3elfNtB4_6Object7section
	mov	qword ptr [rsp + 32], rdx       # 8-byte Spill
.Ltmp666:
# %bb.335:
	test	rax, rax
	mov	rcx, rax
	cmove	rcx, r15
	mov	qword ptr [rsp + 248], rcx      # 8-byte Spill
	mov	rcx, qword ptr [rsp + 32]       # 8-byte Reload
	cmove	rcx, rax
	mov	qword ptr [rsp + 32], rcx       # 8-byte Spill
.Ltmp667:
	lea	rdx, [rip + .Lanon.28cb502c8ec02091c8e32b488a8e08d8.118]
	push	14
	.cfi_adjust_cfa_offset 8
	pop	rcx
	.cfi_adjust_cfa_offset -8
	mov	rdi, r14
	mov	rsi, rbx
	call	_RNvMs_NtNtNtNtCs3bNtqN8jaZB_3std12backtrace_rs9symbolize5gimli3elfNtB4_6Object7section
	mov	qword ptr [rsp + 224], rdx      # 8-byte Spill
.Ltmp668:
# %bb.336:
	test	rax, rax
	mov	rcx, rax
	cmove	rcx, r15
	mov	qword ptr [rsp + 72], rcx       # 8-byte Spill
	mov	rcx, qword ptr [rsp + 224]      # 8-byte Reload
	cmove	rcx, rax
	mov	qword ptr [rsp + 224], rcx      # 8-byte Spill
.Ltmp669:
	lea	rdx, [rip + .Lanon.28cb502c8ec02091c8e32b488a8e08d8.119]
	push	22
	.cfi_adjust_cfa_offset 8
	pop	rcx
	.cfi_adjust_cfa_offset -8
	mov	rdi, r14
	mov	rsi, rbx
	call	_RNvMs_NtNtNtNtCs3bNtqN8jaZB_3std12backtrace_rs9symbolize5gimli3elfNtB4_6Object7section
	mov	qword ptr [rsp + 16], rdx       # 8-byte Spill
.Ltmp670:
# %bb.337:
	test	rax, rax
	mov	rcx, rax
	cmove	rcx, r15
	mov	qword ptr [rsp + 8], rcx        # 8-byte Spill
	mov	rcx, qword ptr [rsp + 16]       # 8-byte Reload
	cmove	rcx, rax
	mov	qword ptr [rsp + 16], rcx       # 8-byte Spill
.Ltmp671:
	lea	rdx, [rip + .Lanon.28cb502c8ec02091c8e32b488a8e08d8.113]
	push	14
	.cfi_adjust_cfa_offset 8
	pop	rcx
	.cfi_adjust_cfa_offset -8
	mov	rdi, r14
	mov	rsi, rbx
	call	_RNvMs_NtNtNtNtCs3bNtqN8jaZB_3std12backtrace_rs9symbolize5gimli3elfNtB4_6Object7section
	mov	qword ptr [rsp + 24], rdx       # 8-byte Spill
.Ltmp672:
# %bb.338:
	test	rax, rax
	mov	rcx, rax
	cmove	rcx, r15
	mov	qword ptr [rsp + 136], rcx      # 8-byte Spill
	mov	rcx, qword ptr [rsp + 24]       # 8-byte Reload
	cmove	rcx, rax
	mov	qword ptr [rsp + 24], rcx       # 8-byte Spill
.Ltmp673:
	lea	rdx, [rip + .Lanon.28cb502c8ec02091c8e32b488a8e08d8.114]
	push	19
	.cfi_adjust_cfa_offset 8
	pop	rcx
	.cfi_adjust_cfa_offset -8
	mov	rdi, r14
	mov	rsi, rbx
	call	_RNvMs_NtNtNtNtCs3bNtqN8jaZB_3std12backtrace_rs9symbolize5gimli3elfNtB4_6Object7section
	mov	qword ptr [rsp + 104], rdx      # 8-byte Spill
.Ltmp674:
# %bb.339:
	test	rax, rax
	mov	rcx, rax
	cmove	rcx, r15
	mov	qword ptr [rsp + 176], rcx      # 8-byte Spill
	mov	rcx, qword ptr [rsp + 104]      # 8-byte Reload
	cmove	rcx, rax
	mov	qword ptr [rsp + 104], rcx      # 8-byte Spill
.Ltmp675:
	lea	rdx, [rip + .Lanon.28cb502c8ec02091c8e32b488a8e08d8.117]
	push	19
	.cfi_adjust_cfa_offset 8
	pop	rcx
	.cfi_adjust_cfa_offset -8
	mov	rdi, r14
	mov	rsi, rbx
	call	_RNvMs_NtNtNtNtCs3bNtqN8jaZB_3std12backtrace_rs9symbolize5gimli3elfNtB4_6Object7section
.Ltmp676:
# %bb.340:
	mov	r13, rdx
	test	rax, rax
	mov	rcx, rax
	cmove	rcx, r15
	mov	qword ptr [rsp + 96], rcx       # 8-byte Spill
	cmove	r13, rax
.Ltmp677:
	lea	rdx, [rip + .Lanon.28cb502c8ec02091c8e32b488a8e08d8.121]
	push	16
	.cfi_adjust_cfa_offset 8
	pop	rcx
	.cfi_adjust_cfa_offset -8
	mov	rdi, r14
	mov	rsi, rbx
	call	_RNvMs_NtNtNtNtCs3bNtqN8jaZB_3std12backtrace_rs9symbolize5gimli3elfNtB4_6Object7section
.Ltmp678:
# %bb.341:
	mov	r12, rdx
	mov	qword ptr [rsp + 144], rbp      # 8-byte Spill
	test	rax, rax
	mov	rbx, r15
	mov	rbp, rax
	cmove	rbp, r15
	cmove	r12, rax
	lea	r14, [rsp + 656]
	mov	rdi, r14
	mov	rsi, qword ptr [rsp + 80]       # 8-byte Reload
	mov	rdx, qword ptr [rsp + 48]       # 8-byte Reload
	call	_RNvMs8_NtNtCsktQxXQGZjIy_5gimli4read5indexINtB5_9UnitIndexINtNtB7_12endian_slice11EndianSliceNtNtB9_9endianity12LittleEndianEE5parseCs3bNtqN8jaZB_3std
	mov	r15b, byte ptr [r14]
	cmp	r15b, 10
	je	.LBB155_343
# %bb.342:
	mov	rax, qword ptr [rsp + 128]      # 8-byte Reload
	test	rax, rax
	mov	rdx, qword ptr [rsp]            # 8-byte Reload
	cmove	rdx, rax
	cmovne	rbx, rax
	lea	r14, [rsp + 656]
	mov	rax, qword ptr [r14 + 16]
	mov	qword ptr [rsp + 431], rax
	movups	xmm0, xmmword ptr [r14 + 1]
	movaps	xmmword ptr [rsp + 416], xmm0
	movups	xmm0, xmmword ptr [r14 + 24]
	movaps	xmmword ptr [rsp + 1216], xmm0
	movups	xmm0, xmmword ptr [r14 + 40]
	movaps	xmmword ptr [rsp + 1232], xmm0
	movups	xmm0, xmmword ptr [r14 + 56]
	movaps	xmmword ptr [rsp + 1248], xmm0
	movups	xmm0, xmmword ptr [r14 + 72]
	movaps	xmmword ptr [rsp + 1264], xmm0
	mov	rdi, r14
	mov	rsi, rbx
	call	_RNvMs8_NtNtCsktQxXQGZjIy_5gimli4read5indexINtB5_9UnitIndexINtNtB7_12endian_slice11EndianSliceNtNtB9_9endianity12LittleEndianEE5parseCs3bNtqN8jaZB_3std
	mov	r14b, byte ptr [r14]
	cmp	r14b, 10
	jne	.LBB155_348
.LBB155_343:
	movabs	rax, -9223372036854775808
	mov	rcx, qword ptr [rsp + 392]      # 8-byte Reload
	mov	qword ptr [rcx], rax
	mov	rax, qword ptr [rsp + 272]      # 8-byte Reload
	mov	rsi, qword ptr [rax + 8]
	mov	rdi, qword ptr [rsp + 56]       # 8-byte Reload
	call	_RINvNtCsfQL5qMWGko6_4core3ptr13drop_in_placeNtNtNtNtNtCs3bNtqN8jaZB_3std12backtrace_rs9symbolize5gimli3elf6ObjectEBQ_
	xor	ebx, ebx
.Ltmp683:
	lea	rdi, [rsp + 600]
	mov	r14, qword ptr [rsp + 216]      # 8-byte Reload
	mov	ebp, dword ptr [rsp + 64]       # 4-byte Reload
	call	_RINvNtCsfQL5qMWGko6_4core3ptr13drop_in_placeINtCsfwdNdOnv07X_9addr2line7ContextINtNtNtCsktQxXQGZjIy_5gimli4read12endian_slice11EndianSliceNtNtB1m_9endianity12LittleEndianEEECs3bNtqN8jaZB_3std
.Ltmp684:
.LBB155_344:
	mov	rdi, qword ptr [r14]
	movabs	rax, -9223372036854775808
	cmp	rdi, rax
	setne	al
	test	al, bpl
	je	.LBB155_346
# %bb.345:
	mov	rsi, qword ptr [r14 + 8]
	call	_RINvNtCsfQL5qMWGko6_4core3ptr13drop_in_placeNtNtNtNtNtCs3bNtqN8jaZB_3std12backtrace_rs9symbolize5gimli3elf6ObjectEBQ_
.LBB155_346:
	mov	rax, qword ptr [rsp + 400]      # 8-byte Reload
	mov	rdi, qword ptr [rax]
	mov	rsi, qword ptr [rax + 8]
	call	_RINvNtCsfQL5qMWGko6_4core3ptr13drop_in_placeNtNtNtNtNtCs3bNtqN8jaZB_3std12backtrace_rs9symbolize5gimli3elf6ObjectEBQ_
.LBB155_347:
	add	rsp, 2232
	.cfi_def_cfa_offset 56
	pop	rbx
	.cfi_def_cfa_offset 48
	pop	r12
	.cfi_def_cfa_offset 40
	pop	r13
	.cfi_def_cfa_offset 32
	pop	r14
	.cfi_def_cfa_offset 24
	pop	r15
	.cfi_def_cfa_offset 16
	pop	rbp
	.cfi_def_cfa_offset 8
	ret
.LBB155_348:
	.cfi_def_cfa_offset 2288
	mov	rax, qword ptr [rsp + 672]
	mov	qword ptr [rsp + 1679], rax
	movups	xmm0, xmmword ptr [rsp + 657]
	movaps	xmmword ptr [rsp + 1664], xmm0
	movups	xmm0, xmmword ptr [rsp + 680]
	movaps	xmmword ptr [rsp + 2032], xmm0
	movups	xmm0, xmmword ptr [rsp + 696]
	movaps	xmmword ptr [rsp + 2048], xmm0
	movups	xmm0, xmmword ptr [rsp + 712]
	movaps	xmmword ptr [rsp + 2064], xmm0
	movups	xmm0, xmmword ptr [rsp + 728]
	movaps	xmmword ptr [rsp + 2080], xmm0
	movaps	xmm0, xmmword ptr [rsp + 416]
	movaps	xmmword ptr [rsp + 2144], xmm0
	mov	rax, qword ptr [rsp + 431]
	mov	qword ptr [rsp + 2159], rax
	movaps	xmm0, xmmword ptr [rsp + 1216]
	movaps	xmm1, xmmword ptr [rsp + 1232]
	movaps	xmm2, xmmword ptr [rsp + 1248]
	movaps	xmm3, xmmword ptr [rsp + 1264]
	movups	xmmword ptr [rsp + 2215], xmm3
	movups	xmmword ptr [rsp + 2199], xmm2
	movups	xmmword ptr [rsp + 2183], xmm1
	movups	xmmword ptr [rsp + 2167], xmm0
	mov	rax, qword ptr [rsp + 272]      # 8-byte Reload
	mov	rsi, qword ptr [rax + 8]
	mov	rdi, qword ptr [rsp + 56]       # 8-byte Reload
	call	_RINvNtCsfQL5qMWGko6_4core3ptr13drop_in_placeNtNtNtNtNtCs3bNtqN8jaZB_3std12backtrace_rs9symbolize5gimli3elf6ObjectEBQ_
	mov	r10, qword ptr [rsp + 88]       # 8-byte Reload
	mov	r11, qword ptr [rsp + 120]      # 8-byte Reload
	mov	r8, qword ptr [rsp + 248]       # 8-byte Reload
	mov	r9, qword ptr [rsp + 72]        # 8-byte Reload
	mov	rbx, qword ptr [rsp + 8]        # 8-byte Reload
	mov	qword ptr [rsp + 64], r13       # 8-byte Spill
	mov	r13, qword ptr [rsp + 96]       # 8-byte Reload
	jmp	.LBB155_329
.LBB155_349:
	mov	ebx, eax
	shr	ebx, 8
	mov	rbp, rax
	shr	rbp, 16
	mov	r12, rax
	lea	r13, [rsp + 1312]
	jmp	.LBB155_260
.LBB155_350:
.Ltmp688:
	mov	edi, 296
	call	_RNvNtCs78A21jy8lRn_5alloc5alloc18handle_alloc_error
.Ltmp689:
# %bb.351:
.LBB155_352:
.Ltmp557:
	mov	edi, 296
	mov	r14, qword ptr [rsp + 216]      # 8-byte Reload
	mov	rbx, qword ptr [rsp + 56]       # 8-byte Reload
	call	_RNvNtCs78A21jy8lRn_5alloc5alloc18handle_alloc_error
.Ltmp558:
# %bb.353:
.LBB155_354:
	mov	rdi, qword ptr [rsp + 344]
	cmp	rbx, 21
	jae	.LBB155_387
# %bb.355:
	shl	rbx, 4
	add	rbx, rdi
	lea	rdx, [rdi + 16]
	push	16
	.cfi_adjust_cfa_offset 8
	pop	rax
	.cfi_adjust_cfa_offset -8
	mov	rsi, rdi
.LBB155_356:                            # =>This Loop Header: Depth=1
                                        #     Child Loop BB155_358 Depth 2
	mov	rcx, rdx
	mov	rdx, qword ptr [rsi + 16]
	cmp	rdx, qword ptr [rsi]
	jae	.LBB155_363
# %bb.357:                              #   in Loop: Header=BB155_356 Depth=1
	mov	rsi, qword ptr [rsi + 24]
	mov	r9, rax
.LBB155_358:                            #   Parent Loop BB155_356 Depth=1
                                        # =>  This Inner Loop Header: Depth=2
	movups	xmm0, xmmword ptr [rdi + r9 - 16]
	movups	xmmword ptr [rdi + r9], xmm0
	cmp	r9, 16
	je	.LBB155_361
# %bb.359:                              #   in Loop: Header=BB155_358 Depth=2
	lea	r8, [r9 - 16]
	cmp	rdx, qword ptr [rdi + r9 - 32]
	mov	r9, r8
	jb	.LBB155_358
# %bb.360:                              #   in Loop: Header=BB155_356 Depth=1
	add	r8, rdi
	jmp	.LBB155_362
.LBB155_361:                            #   in Loop: Header=BB155_356 Depth=1
	mov	r8, rdi
.LBB155_362:                            #   in Loop: Header=BB155_356 Depth=1
	mov	qword ptr [r8], rdx
	mov	qword ptr [r8 + 8], rsi
.LBB155_363:                            #   in Loop: Header=BB155_356 Depth=1
	lea	rdx, [rcx + 16]
	add	rax, 16
	mov	rsi, rcx
	cmp	rdx, rbx
	je	.LBB155_42
	jmp	.LBB155_356
.LBB155_364:
	mov	r15, rax
	push	18
	.cfi_adjust_cfa_offset 8
	jmp	.LBB155_258
.LBB155_365:
	.cfi_def_cfa_offset 2288
	mov	rax, qword ptr [rsp + 256]      # 8-byte Reload
	mov	qword ptr [rsp + 40], rax       # 8-byte Spill
.LBB155_366:
	lea	r13, [rsp + 1312]
	push	19
	.cfi_adjust_cfa_offset 8
	pop	r12
	.cfi_adjust_cfa_offset -8
                                        # implicit-def: $bl
	mov	r15, qword ptr [rsp + 40]       # 8-byte Reload
	jmp	.LBB155_374
.LBB155_367:
	push	19
	.cfi_adjust_cfa_offset 8
	pop	r12
	.cfi_adjust_cfa_offset -8
	xor	ebx, ebx
	lea	r13, [rsp + 1312]
	jmp	.LBB155_374
.LBB155_368:
	mov	byte ptr [rsp + 656], 19
	mov	r15, qword ptr [rsp + 24]       # 8-byte Reload
	jmp	.LBB155_370
.LBB155_369:
	mov	r15, qword ptr [rsp + 664]
.LBB155_370:
	mov	r12, qword ptr [rsp + 656]
	mov	ebx, r12d
	shr	ebx, 8
	mov	rbp, r12
	shr	rbp, 16
	jmp	.LBB155_260
.LBB155_371:
	mov	r15, qword ptr [rsp + 136]      # 8-byte Reload
	jmp	.LBB155_373
.LBB155_372:
	mov	r15, qword ptr [rsp + 496]      # 8-byte Reload
.LBB155_373:
	lea	r13, [rsp + 1312]
	push	19
	.cfi_adjust_cfa_offset 8
	pop	r12
	.cfi_adjust_cfa_offset -8
	xor	ebx, ebx
.LBB155_374:
	xor	ebp, ebp
	jmp	.LBB155_260
.LBB155_375:
	cmp	r12, 21
	jae	.LBB155_390
# %bb.376:
	mov	rax, r12
	shl	rax, 5
	add	rax, r14
	lea	rsi, [r14 + 32]
	push	32
	.cfi_adjust_cfa_offset 8
	pop	rcx
	.cfi_adjust_cfa_offset -8
	mov	r8, r14
.LBB155_377:                            # =>This Loop Header: Depth=1
                                        #     Child Loop BB155_379 Depth 2
	mov	rdx, rsi
	mov	rsi, qword ptr [r8 + 40]
	cmp	rsi, qword ptr [r8 + 8]
	jae	.LBB155_384
# %bb.378:                              #   in Loop: Header=BB155_377 Depth=1
	mov	rdi, qword ptr [r8 + 32]
	movups	xmm0, xmmword ptr [r8 + 48]
	movaps	xmmword ptr [rsp + 656], xmm0
	mov	r9, rcx
.LBB155_379:                            #   Parent Loop BB155_377 Depth=1
                                        # =>  This Inner Loop Header: Depth=2
	mov	r8, r9
	movups	xmm0, xmmword ptr [r14 + r9 - 32]
	movups	xmm1, xmmword ptr [r14 + r9 - 16]
	movups	xmmword ptr [r14 + r9 + 16], xmm1
	movups	xmmword ptr [r14 + r9], xmm0
	cmp	r9, 32
	je	.LBB155_382
# %bb.380:                              #   in Loop: Header=BB155_379 Depth=2
	lea	r9, [r8 - 32]
	cmp	rsi, qword ptr [r14 + r8 - 56]
	jb	.LBB155_379
# %bb.381:                              #   in Loop: Header=BB155_377 Depth=1
	add	r8, r14
	add	r9, r14
	jmp	.LBB155_383
.LBB155_382:                            #   in Loop: Header=BB155_377 Depth=1
	add	r8, r14
	mov	r9, r14
.LBB155_383:                            #   in Loop: Header=BB155_377 Depth=1
	mov	qword ptr [r9], rdi
	mov	qword ptr [r8 - 24], rsi
	movaps	xmm0, xmmword ptr [rsp + 656]
	movups	xmmword ptr [r8 - 16], xmm0
.LBB155_384:                            #   in Loop: Header=BB155_377 Depth=1
	lea	rsi, [rdx + 32]
	add	rcx, 32
	mov	r8, rdx
	cmp	rsi, rax
	jne	.LBB155_377
	jmp	.LBB155_298
.LBB155_385:
	mov	r15, rdi
	lea	r13, [rsp + 1312]
	mov	ebx, dword ptr [rsp + 120]      # 4-byte Reload
	push	25
	.cfi_adjust_cfa_offset 8
	pop	r12
	.cfi_adjust_cfa_offset -8
	jmp	.LBB155_374
.LBB155_386:
	mov	rbp, r14
	shr	rbp, 16
	mov	ebx, r12d
	mov	r12, r14
	jmp	.LBB155_260
.LBB155_387:
.Ltmp568:
	mov	rsi, rbx
	call	_RINvNtNtNtCsfQL5qMWGko6_4core5slice4sort6stable14driftsort_mainTNtNtCsktQxXQGZjIy_5gimli6common15DebugInfoOffsetNtB12_18DebugArangesOffsetENCINvMNtCs78A21jy8lRn_5alloc5sliceSBZ_11sort_by_keyB10_NCNvMs_NtCsfwdNdOnv07X_9addr2line4unitINtB3d_8ResUnitsINtNtNtB14_4read12endian_slice11EndianSliceNtNtB14_9endianity12LittleEndianEE5parse0E0INtNtB2l_3vec3VecBZ_EECs3bNtqN8jaZB_3std
.Ltmp569:
	jmp	.LBB155_42
.LBB155_388:
.Ltmp610:
	mov	rdi, rbx
	call	_RNvNtCs78A21jy8lRn_5alloc5alloc18handle_alloc_error
.Ltmp611:
# %bb.389:
.LBB155_390:
.Ltmp607:
	mov	rdi, r14
	mov	rsi, r12
	call	_RINvNtNtNtCsfQL5qMWGko6_4core5slice4sort6stable14driftsort_mainNtNtCsfwdNdOnv07X_9addr2line4unit9UnitRangeNCINvMNtCs78A21jy8lRn_5alloc5sliceSBZ_11sort_by_keyyNCNvMs_B11_INtB11_8ResUnitsINtNtNtCsktQxXQGZjIy_5gimli4read12endian_slice11EndianSliceNtNtB34_9endianity12LittleEndianEE5parses2_0E0INtNtB1O_3vec3VecBZ_EECs3bNtqN8jaZB_3std
.Ltmp608:
	jmp	.LBB155_298
.LBB155_391:
.Ltmp609:
	jmp	.LBB155_420
.LBB155_392:
.Ltmp570:
	jmp	.LBB155_432
.LBB155_393:
.Ltmp586:
	jmp	.LBB155_397
.LBB155_394:
.Ltmp578:
	jmp	.LBB155_397
.LBB155_395:
.Ltmp589:
	jmp	.LBB155_399
.LBB155_396:
.Ltmp583:
.LBB155_397:
	mov	r15, rax
	jmp	.LBB155_401
.LBB155_398:
.Ltmp592:
.LBB155_399:
	mov	r15, rax
	cmp	qword ptr [rsp + 416], 0
	je	.LBB155_401
# %bb.400:
	lea	rdi, [rsp + 424]
	call	_RINvNtCsfQL5qMWGko6_4core3ptr13drop_in_placeINtNtB4_6result6ResultNtNtCsfwdNdOnv07X_9addr2line4line5LinesNtNtCsktQxXQGZjIy_5gimli4read5ErrorEECs3bNtqN8jaZB_3std
.LBB155_401:
	mov	bl, 1
.Ltmp593:
	lea	rdi, [rsp + 1216]
	call	_RINvNtCsfQL5qMWGko6_4core3ptr13drop_in_placeINtNtNtCsktQxXQGZjIy_5gimli4read5dwarf4UnitINtNtBL_12endian_slice11EndianSliceNtNtBN_9endianity12LittleEndianEjEECs3bNtqN8jaZB_3std
.Ltmp594:
	jmp	.LBB155_422
.LBB155_402:
.Ltmp597:
	mov	r15, rax
.Ltmp598:
	lea	rdi, [rsp + 656]
	call	_RINvNtCsfQL5qMWGko6_4core3ptr13drop_in_placeINtNtCsfwdNdOnv07X_9addr2line4unit7ResUnitINtNtNtCsktQxXQGZjIy_5gimli4read12endian_slice11EndianSliceNtNtB1t_9endianity12LittleEndianEEECs3bNtqN8jaZB_3std
.Ltmp599:
	jmp	.LBB155_421
.LBB155_403:
.Ltmp600:
	call	_RNvNtCsfQL5qMWGko6_4core9panicking16panic_in_cleanup
.LBB155_404:
.Ltmp633:
	mov	r15, rax
.Ltmp634:
	lea	rdi, [rsp + 656]
	call	_RINvNtCsfQL5qMWGko6_4core3ptr13drop_in_placeINtNtCsfwdNdOnv07X_9addr2line4unit7SupUnitINtNtNtCsktQxXQGZjIy_5gimli4read12endian_slice11EndianSliceNtNtB1t_9endianity12LittleEndianEEECs3bNtqN8jaZB_3std
.Ltmp635:
	jmp	.LBB155_428
.LBB155_405:
.Ltmp636:
	call	_RNvNtCsfQL5qMWGko6_4core9panicking16panic_in_cleanup
.LBB155_406:
.Ltmp642:
	mov	r15, rax
.Ltmp643:
	lea	rdi, [rsp + 280]
	call	_RINvNtCsfQL5qMWGko6_4core3ptr13drop_in_placeINtNtCs78A21jy8lRn_5alloc3vec3VecINtNtCsfwdNdOnv07X_9addr2line4unit7SupUnitINtNtNtCsktQxXQGZjIy_5gimli4read12endian_slice11EndianSliceNtNtB20_9endianity12LittleEndianEEEECs3bNtqN8jaZB_3std
.Ltmp644:
	jmp	.LBB155_429
.LBB155_407:
.Ltmp645:
	call	_RNvNtCsfQL5qMWGko6_4core9panicking16panic_in_cleanup
.LBB155_408:
.Ltmp618:
	mov	r15, rax
.Ltmp619:
	lea	rdi, [rsp + 360]
	call	_RINvNtCsfQL5qMWGko6_4core3ptr13drop_in_placeINtNtCs78A21jy8lRn_5alloc3vec3VecINtNtCsfwdNdOnv07X_9addr2line4unit7ResUnitINtNtNtCsktQxXQGZjIy_5gimli4read12endian_slice11EndianSliceNtNtB20_9endianity12LittleEndianEEEECs3bNtqN8jaZB_3std
.Ltmp620:
# %bb.409:
	test	bpl, bpl
	jne	.LBB155_443
# %bb.410:
	mov	rdi, r14
	jmp	.LBB155_442
.LBB155_411:
.Ltmp621:
	call	_RNvNtCsfQL5qMWGko6_4core9panicking16panic_in_cleanup
.LBB155_412:
.Ltmp612:
	mov	r15, rax
	mov	rdi, r14
	call	qword ptr [rip + free@GOTPCREL]
	xor	ebx, ebx
	jmp	.LBB155_422
.LBB155_413:
.Ltmp603:
	jmp	.LBB155_417
.LBB155_414:
.Ltmp653:
	mov	r15, rax
	jmp	.LBB155_445
.LBB155_415:
.Ltmp648:
	mov	r15, rax
	jmp	.LBB155_429
.LBB155_416:
.Ltmp606:
.LBB155_417:
	mov	r15, rax
	mov	rdi, r13
	call	_RINvNtCsfQL5qMWGko6_4core3ptr13drop_in_placeINtNtB4_6option6OptionINtNtNtCsktQxXQGZjIy_5gimli4read4line21IncompleteLineProgramINtNtB17_12endian_slice11EndianSliceNtNtB19_9endianity12LittleEndianEjEEECs3bNtqN8jaZB_3std
	jmp	.LBB155_421
.LBB155_418:
.Ltmp687:
	mov	r15, rax
	jmp	.LBB155_457
.LBB155_419:
.Ltmp573:
.LBB155_420:
	mov	r15, rax
.LBB155_421:
	mov	bl, 1
.LBB155_422:
.Ltmp613:
	lea	rdi, [rsp + 360]
	call	_RINvNtCsfQL5qMWGko6_4core3ptr13drop_in_placeINtNtCs78A21jy8lRn_5alloc3vec3VecINtNtCsfwdNdOnv07X_9addr2line4unit7ResUnitINtNtNtCsktQxXQGZjIy_5gimli4read12endian_slice11EndianSliceNtNtB20_9endianity12LittleEndianEEEECs3bNtqN8jaZB_3std
.Ltmp614:
# %bb.423:
	test	bl, bl
	jne	.LBB155_440
	jmp	.LBB155_443
.LBB155_424:
.Ltmp615:
	call	_RNvNtCsfQL5qMWGko6_4core9panicking16panic_in_cleanup
.LBB155_425:
.Ltmp679:
	mov	r15, rax
	mov	rsi, qword ptr [r14 + 8]
	mov	rdi, qword ptr [rsp + 56]       # 8-byte Reload
	call	_RINvNtCsfQL5qMWGko6_4core3ptr13drop_in_placeNtNtNtNtNtCs3bNtqN8jaZB_3std12backtrace_rs9symbolize5gimli3elf6ObjectEBQ_
.Ltmp680:
	lea	rdi, [rsp + 600]
	call	_RINvNtCsfQL5qMWGko6_4core3ptr13drop_in_placeINtCsfwdNdOnv07X_9addr2line7ContextINtNtNtCsktQxXQGZjIy_5gimli4read12endian_slice11EndianSliceNtNtB1m_9endianity12LittleEndianEEECs3bNtqN8jaZB_3std
.Ltmp681:
	mov	r14, qword ptr [rsp + 216]      # 8-byte Reload
# %bb.426:
	mov	ebp, dword ptr [rsp + 64]       # 4-byte Reload
	jmp	.LBB155_460
.LBB155_427:
.Ltmp630:
	mov	r15, rax
.LBB155_428:
.Ltmp637:
	lea	rdi, [rsp + 280]
	call	_RINvNtCsfQL5qMWGko6_4core3ptr13drop_in_placeINtNtCs78A21jy8lRn_5alloc3vec3VecINtNtCsfwdNdOnv07X_9addr2line4unit7SupUnitINtNtNtCsktQxXQGZjIy_5gimli4read12endian_slice11EndianSliceNtNtB20_9endianity12LittleEndianEEEECs3bNtqN8jaZB_3std
.Ltmp638:
.LBB155_429:
.Ltmp649:
	lea	rdi, [rsp + 568]
	call	_RINvNtCsfQL5qMWGko6_4core3ptr13drop_in_placeINtNtCsfwdNdOnv07X_9addr2line4unit8ResUnitsINtNtNtCsktQxXQGZjIy_5gimli4read12endian_slice11EndianSliceNtNtB1u_9endianity12LittleEndianEEECs3bNtqN8jaZB_3std
.Ltmp650:
	jmp	.LBB155_445
.LBB155_430:
.Ltmp639:
	call	_RNvNtCsfQL5qMWGko6_4core9panicking16panic_in_cleanup
.LBB155_431:
.Ltmp567:
.LBB155_432:
	mov	r15, rax
	jmp	.LBB155_443
.LBB155_433:
.Ltmp556:
	mov	r15, rax
	mov	rbx, qword ptr [rsp + 56]       # 8-byte Reload
	jmp	.LBB155_451
.LBB155_434:
.Ltmp525:
	mov	r15, rax
	mov	bpl, 1
	mov	bl, 1
	mov	r14, qword ptr [rsp + 216]      # 8-byte Reload
	jmp	.LBB155_457
.LBB155_435:
.Ltmp624:
	mov	r15, rax
.LBB155_436:                            # =>This Inner Loop Header: Depth=1
	dec	r13
	je	.LBB155_438
# %bb.437:                              #   in Loop: Header=BB155_436 Depth=1
.Ltmp625:
	lea	r12, [r14 + 560]
	mov	rdi, r14
	call	_RINvNtCsfQL5qMWGko6_4core3ptr13drop_in_placeINtNtCsfwdNdOnv07X_9addr2line4unit7ResUnitINtNtNtCsktQxXQGZjIy_5gimli4read12endian_slice11EndianSliceNtNtB1t_9endianity12LittleEndianEEECs3bNtqN8jaZB_3std
.Ltmp626:
	mov	r14, r12
	jmp	.LBB155_436
.LBB155_438:
	cmp	qword ptr [rsp + 360], 0
	je	.LBB155_440
# %bb.439:
	mov	rdi, rbx
	call	qword ptr [rip + free@GOTPCREL]
.LBB155_440:
	cmp	qword ptr [rsp + 192], 0
	je	.LBB155_443
# %bb.441:
	mov	rdi, qword ptr [rsp + 200]
.LBB155_442:
	call	qword ptr [rip + free@GOTPCREL]
.LBB155_443:
	cmp	qword ptr [rsp + 336], 0
	je	.LBB155_445
# %bb.444:
	mov	rdi, qword ptr [rsp + 344]
	call	qword ptr [rip + free@GOTPCREL]
.LBB155_445:
	mov	rax, qword ptr [rsp + 32]       # 8-byte Reload
	lock		dec	qword ptr [rax]
	mov	bl, 1
	jne	.LBB155_447
# %bb.446:
	#MEMBARRIER
.Ltmp654:
	lea	rdi, [rsp + 520]
	call	_RNvMsn_NtCs78A21jy8lRn_5alloc4syncINtB5_3ArcINtNtNtCsktQxXQGZjIy_5gimli4read5dwarf5DwarfINtNtBL_12endian_slice11EndianSliceNtNtBN_9endianity12LittleEndianEEE9drop_slowCs3bNtqN8jaZB_3std
.Ltmp655:
	mov	r14, qword ptr [rsp + 216]      # 8-byte Reload
	mov	ebp, dword ptr [rsp + 64]       # 4-byte Reload
	jmp	.LBB155_457
.LBB155_447:
	mov	r14, qword ptr [rsp + 216]      # 8-byte Reload
	mov	ebp, dword ptr [rsp + 64]       # 4-byte Reload
	jmp	.LBB155_457
.LBB155_448:
.Ltmp656:
	call	_RNvNtCsfQL5qMWGko6_4core9panicking16panic_in_cleanup
.LBB155_449:
.Ltmp627:
	call	_RNvNtCsfQL5qMWGko6_4core9panicking16panic_in_cleanup
.LBB155_450:
.Ltmp559:
	mov	r15, rax
.Ltmp560:
	lea	rdi, [rsp + 656]
	call	_RINvNtCsfQL5qMWGko6_4core3ptr13drop_in_placeINtNtCs78A21jy8lRn_5alloc4sync8ArcInnerINtNtNtCsktQxXQGZjIy_5gimli4read5dwarf5DwarfINtNtB1o_12endian_slice11EndianSliceNtNtB1q_9endianity12LittleEndianEEEECs3bNtqN8jaZB_3std
.Ltmp561:
.LBB155_451:
	mov	rsi, qword ptr [r14 + 8]
	mov	rdi, rbx
	call	_RINvNtCsfQL5qMWGko6_4core3ptr13drop_in_placeNtNtNtNtNtCs3bNtqN8jaZB_3std12backtrace_rs9symbolize5gimli3elf6ObjectEBQ_
	lea	rdi, [rsp + 2000]
.Ltmp563:
	call	_RINvNtCsfQL5qMWGko6_4core3ptr13drop_in_placeNtNtNtCsktQxXQGZjIy_5gimli4read6abbrev18AbbreviationsCacheECs3bNtqN8jaZB_3std
.Ltmp564:
# %bb.452:
	mov	bl, 1
	xor	ebp, ebp
	jmp	.LBB155_457
.LBB155_453:
.Ltmp562:
	call	_RNvNtCsfQL5qMWGko6_4core9panicking16panic_in_cleanup
.LBB155_454:
.Ltmp682:
	call	_RNvNtCsfQL5qMWGko6_4core9panicking16panic_in_cleanup
.LBB155_455:
.Ltmp690:
	mov	r15, rax
.Ltmp691:
	lea	rdi, [rsp + 656]
	call	_RINvNtCsfQL5qMWGko6_4core3ptr13drop_in_placeINtNtCs78A21jy8lRn_5alloc4sync8ArcInnerINtNtNtCsktQxXQGZjIy_5gimli4read5dwarf5DwarfINtNtB1o_12endian_slice11EndianSliceNtNtB1q_9endianity12LittleEndianEEEECs3bNtqN8jaZB_3std
.Ltmp692:
# %bb.456:
	mov	bl, 1
.LBB155_457:
	test	bl, bl
	je	.LBB155_460
# %bb.458:
	mov	rcx, qword ptr [rsp + 272]      # 8-byte Reload
	mov	rdi, qword ptr [rcx]
	movabs	rax, -9223372036854775808
	cmp	rdi, rax
	je	.LBB155_460
# %bb.459:
	mov	rsi, qword ptr [rcx + 8]
	call	_RINvNtCsfQL5qMWGko6_4core3ptr13drop_in_placeNtNtNtNtNtCs3bNtqN8jaZB_3std12backtrace_rs9symbolize5gimli3elf6ObjectEBQ_
.LBB155_460:
	mov	rdi, qword ptr [r14]
	movabs	rax, -9223372036854775808
	cmp	rdi, rax
	je	.LBB155_463
# %bb.461:
	test	bpl, bpl
	je	.LBB155_463
# %bb.462:
	mov	rsi, qword ptr [r14 + 8]
	call	_RINvNtCsfQL5qMWGko6_4core3ptr13drop_in_placeNtNtNtNtNtCs3bNtqN8jaZB_3std12backtrace_rs9symbolize5gimli3elf6ObjectEBQ_
.LBB155_463:
	mov	rax, qword ptr [rsp + 400]      # 8-byte Reload
	mov	rdi, qword ptr [rax]
	mov	rsi, qword ptr [rax + 8]
	call	_RINvNtCsfQL5qMWGko6_4core3ptr13drop_in_placeNtNtNtNtNtCs3bNtqN8jaZB_3std12backtrace_rs9symbolize5gimli3elf6ObjectEBQ_
	mov	rdi, r15
	call	_Unwind_Resume@PLT
.LBB155_464:
.Ltmp693:
	call	_RNvNtCsfQL5qMWGko6_4core9panicking16panic_in_cleanup
.Lfunc_end155:
	.size	_RNvMs_NtNtNtCs3bNtqN8jaZB_3std12backtrace_rs9symbolize5gimliNtB4_7Context3new, .Lfunc_end155-_RNvMs_NtNtNtCs3bNtqN8jaZB_3std12backtrace_rs9symbolize5gimliNtB4_7Context3new
	.cfi_endproc
	.section	.rodata._RNvMs_NtNtNtCs3bNtqN8jaZB_3std12backtrace_rs9symbolize5gimliNtB4_7Context3new,"a",@progbits
	.p2align	2, 0x0
.LJTI155_0:
	.long	.LBB155_113-.LJTI155_0
	.long	.LBB155_144-.LJTI155_0
	.long	.LBB155_385-.LJTI155_0
	.long	.LBB155_148-.LJTI155_0
	.long	.LBB155_385-.LJTI155_0
	.long	.LBB155_385-.LJTI155_0
	.long	.LBB155_385-.LJTI155_0
	.long	.LBB155_146-.LJTI155_0
.LJTI155_1:
	.long	.LBB155_104-.LJTI155_1
	.long	.LBB155_136-.LJTI155_1
	.long	.LBB155_385-.LJTI155_1
	.long	.LBB155_140-.LJTI155_1
	.long	.LBB155_385-.LJTI155_1
	.long	.LBB155_385-.LJTI155_1
	.long	.LBB155_385-.LJTI155_1
	.long	.LBB155_138-.LJTI155_1
	.section	.gcc_except_table._RNvMs_NtNtNtCs3bNtqN8jaZB_3std12backtrace_rs9symbolize5gimliNtB4_7Context3new,"a",@progbits
	.p2align	2, 0x0
GCC_except_table155:
.Lexception23:
	.byte	255                             # @LPStart Encoding = omit
	.byte	155                             # @TType Encoding = indirect pcrel sdata4
	.uleb128 .Lttbase8-.Lttbaseref8
.Lttbaseref8:
	.byte	1                               # Call site Encoding = uleb128
	.uleb128 .Lcst_end23-.Lcst_begin23
.Lcst_begin23:
	.uleb128 .Ltmp495-.Lfunc_begin23        # >> Call Site 1 <<
	.uleb128 .Ltmp524-.Ltmp495              #   Call between .Ltmp495 and .Ltmp524
	.uleb128 .Ltmp525-.Lfunc_begin23        #     jumps to .Ltmp525
	.byte	0                               #   On action: cleanup
	.uleb128 .Ltmp526-.Lfunc_begin23        # >> Call Site 2 <<
	.uleb128 .Ltmp555-.Ltmp526              #   Call between .Ltmp526 and .Ltmp555
	.uleb128 .Ltmp556-.Lfunc_begin23        #     jumps to .Ltmp556
	.byte	0                               #   On action: cleanup
	.uleb128 .Ltmp565-.Lfunc_begin23        # >> Call Site 3 <<
	.uleb128 .Ltmp566-.Ltmp565              #   Call between .Ltmp565 and .Ltmp566
	.uleb128 .Ltmp567-.Lfunc_begin23        #     jumps to .Ltmp567
	.byte	0                               #   On action: cleanup
	.uleb128 .Ltmp571-.Lfunc_begin23        # >> Call Site 4 <<
	.uleb128 .Ltmp572-.Ltmp571              #   Call between .Ltmp571 and .Ltmp572
	.uleb128 .Ltmp573-.Lfunc_begin23        #     jumps to .Ltmp573
	.byte	0                               #   On action: cleanup
	.uleb128 .Ltmp601-.Lfunc_begin23        # >> Call Site 5 <<
	.uleb128 .Ltmp602-.Ltmp601              #   Call between .Ltmp601 and .Ltmp602
	.uleb128 .Ltmp603-.Lfunc_begin23        #     jumps to .Ltmp603
	.byte	0                               #   On action: cleanup
	.uleb128 .Ltmp595-.Lfunc_begin23        # >> Call Site 6 <<
	.uleb128 .Ltmp596-.Ltmp595              #   Call between .Ltmp595 and .Ltmp596
	.uleb128 .Ltmp597-.Lfunc_begin23        #     jumps to .Ltmp597
	.byte	0                               #   On action: cleanup
	.uleb128 .Ltmp574-.Lfunc_begin23        # >> Call Site 7 <<
	.uleb128 .Ltmp575-.Ltmp574              #   Call between .Ltmp574 and .Ltmp575
	.uleb128 .Ltmp583-.Lfunc_begin23        #     jumps to .Ltmp583
	.byte	0                               #   On action: cleanup
	.uleb128 .Ltmp584-.Lfunc_begin23        # >> Call Site 8 <<
	.uleb128 .Ltmp585-.Ltmp584              #   Call between .Ltmp584 and .Ltmp585
	.uleb128 .Ltmp586-.Lfunc_begin23        #     jumps to .Ltmp586
	.byte	0                               #   On action: cleanup
	.uleb128 .Ltmp576-.Lfunc_begin23        # >> Call Site 9 <<
	.uleb128 .Ltmp577-.Ltmp576              #   Call between .Ltmp576 and .Ltmp577
	.uleb128 .Ltmp578-.Lfunc_begin23        #     jumps to .Ltmp578
	.byte	0                               #   On action: cleanup
	.uleb128 .Ltmp581-.Lfunc_begin23        # >> Call Site 10 <<
	.uleb128 .Ltmp580-.Ltmp581              #   Call between .Ltmp581 and .Ltmp580
	.uleb128 .Ltmp583-.Lfunc_begin23        #     jumps to .Ltmp583
	.byte	0                               #   On action: cleanup
	.uleb128 .Ltmp587-.Lfunc_begin23        # >> Call Site 11 <<
	.uleb128 .Ltmp588-.Ltmp587              #   Call between .Ltmp587 and .Ltmp588
	.uleb128 .Ltmp589-.Lfunc_begin23        #     jumps to .Ltmp589
	.byte	0                               #   On action: cleanup
	.uleb128 .Ltmp590-.Lfunc_begin23        # >> Call Site 12 <<
	.uleb128 .Ltmp591-.Ltmp590              #   Call between .Ltmp590 and .Ltmp591
	.uleb128 .Ltmp592-.Lfunc_begin23        #     jumps to .Ltmp592
	.byte	0                               #   On action: cleanup
	.uleb128 .Ltmp604-.Lfunc_begin23        # >> Call Site 13 <<
	.uleb128 .Ltmp605-.Ltmp604              #   Call between .Ltmp604 and .Ltmp605
	.uleb128 .Ltmp606-.Lfunc_begin23        #     jumps to .Ltmp606
	.byte	0                               #   On action: cleanup
	.uleb128 .Ltmp622-.Lfunc_begin23        # >> Call Site 14 <<
	.uleb128 .Ltmp623-.Ltmp622              #   Call between .Ltmp622 and .Ltmp623
	.uleb128 .Ltmp624-.Lfunc_begin23        #     jumps to .Ltmp624
	.byte	0                               #   On action: cleanup
	.uleb128 .Ltmp628-.Lfunc_begin23        # >> Call Site 15 <<
	.uleb128 .Ltmp629-.Ltmp628              #   Call between .Ltmp628 and .Ltmp629
	.uleb128 .Ltmp630-.Lfunc_begin23        #     jumps to .Ltmp630
	.byte	0                               #   On action: cleanup
	.uleb128 .Ltmp631-.Lfunc_begin23        # >> Call Site 16 <<
	.uleb128 .Ltmp632-.Ltmp631              #   Call between .Ltmp631 and .Ltmp632
	.uleb128 .Ltmp633-.Lfunc_begin23        #     jumps to .Ltmp633
	.byte	0                               #   On action: cleanup
	.uleb128 .Ltmp646-.Lfunc_begin23        # >> Call Site 17 <<
	.uleb128 .Ltmp647-.Ltmp646              #   Call between .Ltmp646 and .Ltmp647
	.uleb128 .Ltmp648-.Lfunc_begin23        #     jumps to .Ltmp648
	.byte	0                               #   On action: cleanup
	.uleb128 .Ltmp651-.Lfunc_begin23        # >> Call Site 18 <<
	.uleb128 .Ltmp652-.Ltmp651              #   Call between .Ltmp651 and .Ltmp652
	.uleb128 .Ltmp653-.Lfunc_begin23        #     jumps to .Ltmp653
	.byte	0                               #   On action: cleanup
	.uleb128 .Ltmp685-.Lfunc_begin23        # >> Call Site 19 <<
	.uleb128 .Ltmp686-.Ltmp685              #   Call between .Ltmp685 and .Ltmp686
	.uleb128 .Ltmp687-.Lfunc_begin23        #     jumps to .Ltmp687
	.byte	0                               #   On action: cleanup
	.uleb128 .Ltmp640-.Lfunc_begin23        # >> Call Site 20 <<
	.uleb128 .Ltmp641-.Ltmp640              #   Call between .Ltmp640 and .Ltmp641
	.uleb128 .Ltmp642-.Lfunc_begin23        #     jumps to .Ltmp642
	.byte	0                               #   On action: cleanup
	.uleb128 .Ltmp616-.Lfunc_begin23        # >> Call Site 21 <<
	.uleb128 .Ltmp617-.Ltmp616              #   Call between .Ltmp616 and .Ltmp617
	.uleb128 .Ltmp618-.Lfunc_begin23        #     jumps to .Ltmp618
	.byte	0                               #   On action: cleanup
	.uleb128 .Ltmp657-.Lfunc_begin23        # >> Call Site 22 <<
	.uleb128 .Ltmp678-.Ltmp657              #   Call between .Ltmp657 and .Ltmp678
	.uleb128 .Ltmp679-.Lfunc_begin23        #     jumps to .Ltmp679
	.byte	0                               #   On action: cleanup
	.uleb128 .Ltmp683-.Lfunc_begin23        # >> Call Site 23 <<
	.uleb128 .Ltmp684-.Ltmp683              #   Call between .Ltmp683 and .Ltmp684
	.uleb128 .Ltmp687-.Lfunc_begin23        #     jumps to .Ltmp687
	.byte	0                               #   On action: cleanup
	.uleb128 .Ltmp688-.Lfunc_begin23        # >> Call Site 24 <<
	.uleb128 .Ltmp689-.Ltmp688              #   Call between .Ltmp688 and .Ltmp689
	.uleb128 .Ltmp690-.Lfunc_begin23        #     jumps to .Ltmp690
	.byte	0                               #   On action: cleanup
	.uleb128 .Ltmp557-.Lfunc_begin23        # >> Call Site 25 <<
	.uleb128 .Ltmp558-.Ltmp557              #   Call between .Ltmp557 and .Ltmp558
	.uleb128 .Ltmp559-.Lfunc_begin23        #     jumps to .Ltmp559
	.byte	0                               #   On action: cleanup
	.uleb128 .Ltmp568-.Lfunc_begin23        # >> Call Site 26 <<
	.uleb128 .Ltmp569-.Ltmp568              #   Call between .Ltmp568 and .Ltmp569
	.uleb128 .Ltmp570-.Lfunc_begin23        #     jumps to .Ltmp570
	.byte	0                               #   On action: cleanup
	.uleb128 .Ltmp610-.Lfunc_begin23        # >> Call Site 27 <<
	.uleb128 .Ltmp611-.Ltmp610              #   Call between .Ltmp610 and .Ltmp611
	.uleb128 .Ltmp612-.Lfunc_begin23        #     jumps to .Ltmp612
	.byte	0                               #   On action: cleanup
	.uleb128 .Ltmp607-.Lfunc_begin23        # >> Call Site 28 <<
	.uleb128 .Ltmp608-.Ltmp607              #   Call between .Ltmp607 and .Ltmp608
	.uleb128 .Ltmp609-.Lfunc_begin23        #     jumps to .Ltmp609
	.byte	0                               #   On action: cleanup
	.uleb128 .Ltmp593-.Lfunc_begin23        # >> Call Site 29 <<
	.uleb128 .Ltmp594-.Ltmp593              #   Call between .Ltmp593 and .Ltmp594
	.uleb128 .Ltmp615-.Lfunc_begin23        #     jumps to .Ltmp615
	.byte	1                               #   On action: 1
	.uleb128 .Ltmp598-.Lfunc_begin23        # >> Call Site 30 <<
	.uleb128 .Ltmp599-.Ltmp598              #   Call between .Ltmp598 and .Ltmp599
	.uleb128 .Ltmp600-.Lfunc_begin23        #     jumps to .Ltmp600
	.byte	1                               #   On action: 1
	.uleb128 .Ltmp634-.Lfunc_begin23        # >> Call Site 31 <<
	.uleb128 .Ltmp635-.Ltmp634              #   Call between .Ltmp634 and .Ltmp635
	.uleb128 .Ltmp636-.Lfunc_begin23        #     jumps to .Ltmp636
	.byte	1                               #   On action: 1
	.uleb128 .Ltmp643-.Lfunc_begin23        # >> Call Site 32 <<
	.uleb128 .Ltmp644-.Ltmp643              #   Call between .Ltmp643 and .Ltmp644
	.uleb128 .Ltmp645-.Lfunc_begin23        #     jumps to .Ltmp645
	.byte	1                               #   On action: 1
	.uleb128 .Ltmp619-.Lfunc_begin23        # >> Call Site 33 <<
	.uleb128 .Ltmp620-.Ltmp619              #   Call between .Ltmp619 and .Ltmp620
	.uleb128 .Ltmp621-.Lfunc_begin23        #     jumps to .Ltmp621
	.byte	1                               #   On action: 1
	.uleb128 .Ltmp613-.Lfunc_begin23        # >> Call Site 34 <<
	.uleb128 .Ltmp614-.Ltmp613              #   Call between .Ltmp613 and .Ltmp614
	.uleb128 .Ltmp615-.Lfunc_begin23        #     jumps to .Ltmp615
	.byte	1                               #   On action: 1
	.uleb128 .Ltmp680-.Lfunc_begin23        # >> Call Site 35 <<
	.uleb128 .Ltmp681-.Ltmp680              #   Call between .Ltmp680 and .Ltmp681
	.uleb128 .Ltmp682-.Lfunc_begin23        #     jumps to .Ltmp682
	.byte	1                               #   On action: 1
	.uleb128 .Ltmp637-.Lfunc_begin23        # >> Call Site 36 <<
	.uleb128 .Ltmp638-.Ltmp637              #   Call between .Ltmp637 and .Ltmp638
	.uleb128 .Ltmp639-.Lfunc_begin23        #     jumps to .Ltmp639
	.byte	1                               #   On action: 1
	.uleb128 .Ltmp649-.Lfunc_begin23        # >> Call Site 37 <<
	.uleb128 .Ltmp650-.Ltmp649              #   Call between .Ltmp649 and .Ltmp650
	.uleb128 .Ltmp656-.Lfunc_begin23        #     jumps to .Ltmp656
	.byte	1                               #   On action: 1
	.uleb128 .Ltmp625-.Lfunc_begin23        # >> Call Site 38 <<
	.uleb128 .Ltmp626-.Ltmp625              #   Call between .Ltmp625 and .Ltmp626
	.uleb128 .Ltmp627-.Lfunc_begin23        #     jumps to .Ltmp627
	.byte	1                               #   On action: 1
	.uleb128 .Ltmp654-.Lfunc_begin23        # >> Call Site 39 <<
	.uleb128 .Ltmp655-.Ltmp654              #   Call between .Ltmp654 and .Ltmp655
	.uleb128 .Ltmp656-.Lfunc_begin23        #     jumps to .Ltmp656
	.byte	1                               #   On action: 1
	.uleb128 .Ltmp560-.Lfunc_begin23        # >> Call Site 40 <<
	.uleb128 .Ltmp561-.Ltmp560              #   Call between .Ltmp560 and .Ltmp561
	.uleb128 .Ltmp562-.Lfunc_begin23        #     jumps to .Ltmp562
	.byte	1                               #   On action: 1
	.uleb128 .Ltmp563-.Lfunc_begin23        # >> Call Site 41 <<
	.uleb128 .Ltmp564-.Ltmp563              #   Call between .Ltmp563 and .Ltmp564
	.uleb128 .Ltmp682-.Lfunc_begin23        #     jumps to .Ltmp682
	.byte	1                               #   On action: 1
	.uleb128 .Ltmp691-.Lfunc_begin23        # >> Call Site 42 <<
	.uleb128 .Ltmp692-.Ltmp691              #   Call between .Ltmp691 and .Ltmp692
	.uleb128 .Ltmp693-.Lfunc_begin23        #     jumps to .Ltmp693
	.byte	1                               #   On action: 1
	.uleb128 .Ltmp692-.Lfunc_begin23        # >> Call Site 43 <<
	.uleb128 .Lfunc_end155-.Ltmp692         #   Call between .Ltmp692 and .Lfunc_end155
	.byte	0                               #     has no landing pad
	.byte	0                               #   On action: cleanup
.Lcst_end23:
	.byte	127                             # >> Action Record 1 <<
                                        #   Filter TypeInfo -1
	.byte	0                               #   No further actions
	.p2align	2, 0x0
.Lttbase8:
                                        # >> Filter TypeInfos <<
	.byte	0
	.p2align	2, 0x0
                                        # -- End function
