abort
bcmp
calloc
close
__cxa_finalize
dl_iterate_phdr
dup
__errno_location
fcntl
free
fstat64
getauxval
getcwd
getenv
gettid
__gmon_start__
_ITM_deregisterTMCloneTable
_ITM_registerTMCloneTable
__libc_start_main
lseek64
malloc
memcpy
memmove
memset
mmap64
mprotect
munmap
open64
pause
poll
posix_memalign
pthread_attr_destroy
pthread_attr_getstack
pthread_getattr_np
pthread_self
read
readlink
realloc
realpath
sigaction
sigaltstack
signal
stat64
statx
strlen
syscall
sysconf
_Unwind_Backtrace
_Unwind_DeleteException
_Unwind_GetDataRelBase
_Unwind_GetIP
_Unwind_GetIPInfo
_Unwind_GetLanguageSpecificData
_Unwind_GetRegionStart
_Unwind_GetTextRelBase
_Unwind_RaiseException
_Unwind_Resume
_Unwind_SetGR
_Unwind_SetIP
write
__xpg_strerror_r
_RNvNCNKNvNtNtCs3bNtqN8jaZB_3std9panicking11panic_count17LOCAL_PANIC_COUNT0s_023___RUST_STD_INTERNAL_VAL
_RNvNtNtNtCs3bNtqN8jaZB_3std6thread7current2id2ID
_RNvNtNtNtCsfQL5qMWGko6_4core7unicode12unicode_data15grapheme_extend7OFFSETS
_RNvNtNtNtCsfQL5qMWGko6_4core7unicode12unicode_data15grapheme_extend17SHORT_OFFSET_RUNS
_RNvNtNtNtCsfQL5qMWGko6_4core7unicode12unicode_data11white_space14WHITESPACE_MAP
GCC_except_table2
GCC_except_table13
GCC_except_table55
GCC_except_table77
GCC_except_table85
GCC_except_table86
GCC_except_table87
GCC_except_table88
GCC_except_table140
GCC_except_table141
GCC_except_table144
GCC_except_table145
GCC_except_table149
GCC_except_table152
GCC_except_table157
GCC_except_table158
GCC_except_table161
GCC_except_table162
GCC_except_table167
GCC_except_table168
GCC_except_table169
GCC_except_table172
GCC_except_table173
GCC_except_table175
GCC_except_table178
GCC_except_table179
GCC_except_table181
GCC_except_table182
GCC_except_table183
GCC_except_table185
GCC_except_table186
GCC_except_table187
GCC_except_table191
GCC_except_table192
GCC_except_table193
GCC_except_table197
GCC_except_table202
GCC_except_table206
GCC_except_table213
GCC_except_table215
GCC_except_table216
GCC_except_table219
GCC_except_table228
GCC_except_table236
GCC_except_table244
GCC_except_table246
GCC_except_table247
GCC_except_table249
GCC_except_table257
GCC_except_table260
GCC_except_table261
GCC_except_table266
GCC_except_table267
GCC_except_table268
GCC_except_table269
GCC_except_table273
GCC_except_table274
GCC_except_table276
GCC_except_table277
GCC_except_table280
GCC_except_table282
GCC_except_table285
GCC_except_table298
GCC_except_table301
GCC_except_table302
GCC_except_table309
GCC_except_table316
GCC_except_table321
GCC_except_table324
GCC_except_table325
GCC_except_table326
GCC_except_table327
GCC_except_table331
GCC_except_table332
GCC_except_table333
GCC_except_table348
GCC_except_table350
GCC_except_table352
GCC_except_table354
GCC_except_table364
GCC_except_table366
GCC_except_table370
GCC_except_table372
GCC_except_table376
GCC_except_table377
GCC_except_table379
GCC_except_table381
GCC_except_table384
GCC_except_table388
_start
_RINvNtNtCs3bNtqN8jaZB_3std3sys9backtrace28___rust_begin_short_backtraceFEuuECs8IiOmDRNe1P_10reflection
_RNvCs8IiOmDRNe1P_10reflection4main
main
_RNvCsL6e0J8m5bd_7___rustc12___rust_alloc
_RNvCsL6e0J8m5bd_7___rustc14___rust_realloc
_RNvNtCsfwdNdOnv07X_9addr2line4line9path_push
_RINvNvMs2_NtCs78A21jy8lRn_5alloc7raw_vecINtB8_11RawVecInnerpE7reserve21do_reserve_and_handleNtNtBa_5alloc6GlobalECsfwdNdOnv07X_9addr2line
_RNvMs2_NtCs78A21jy8lRn_5alloc7raw_vecNtB5_11RawVecInner11finish_growCsfwdNdOnv07X_9addr2line
_RNvNtCs78A21jy8lRn_5alloc7raw_vec12handle_error
_RINvNvMs2_NtCs78A21jy8lRn_5alloc7raw_vecINtB8_11RawVecInnerpE7reserve21do_reserve_and_handleNtNtBa_5alloc6GlobalEBa_
_RNvMs2_NtCs78A21jy8lRn_5alloc7raw_vecNtB5_11RawVecInner11finish_growB7_
_RNvNtCs78A21jy8lRn_5alloc5alloc18handle_alloc_error
_RNvNtCs78A21jy8lRn_5alloc7raw_vec17capacity_overflow
_RNvMNtCs78A21jy8lRn_5alloc6stringNtB2_6String15from_utf8_lossy
_RNvXs0_NvXsf_NtNtCs78A21jy8lRn_5alloc5boxed7convertINtBd_3BoxDNtNtCsfQL5qMWGko6_4core5error5ErrorNtNtB12_6marker4SyncNtB1z_4SendEL_EINtNtB12_7convert4FromNtNtBf_6string6StringE4fromNtB5_11StringErrorNtNtB12_3fmt5Debug3fmt
_RNvXs_NvMs_NtNtCs78A21jy8lRn_5alloc3ffi5c_strNtB9_7CString3newRShNtB4_11SpecNewImpl13spec_new_impl
_RNvXs_NvXsf_NtNtCs78A21jy8lRn_5alloc5boxed7convertINtBc_3BoxDNtNtCsfQL5qMWGko6_4core5error5ErrorNtNtB11_6marker4SyncNtB1y_4SendEL_EINtNtB11_7convert4FromNtNtBe_6string6StringE4fromNtB4_11StringErrorNtNtB11_3fmt7Display3fmt
_RNvNtCsfQL5qMWGko6_4core9panicking19assert_failed_inner
_RNvXs1i_NtCsfQL5qMWGko6_4core3fmtReNtB6_7Display3fmtB8_
_RNvXs1g_NtCsfQL5qMWGko6_4core3fmtRDNtB6_5DebugEL_Bx_3fmtB8_
_RNvNtCsfQL5qMWGko6_4core9panicking9panic_fmt
_RNvNtCsfQL5qMWGko6_4core3fmt5write
_RNvMsa_NtCsfQL5qMWGko6_4core3fmtNtB5_9Formatter3pad
_RNvNtNtCsfQL5qMWGko6_4core3str5count14do_count_chars
_RNvXs0_NtNtCsfQL5qMWGko6_4core3fmt8buildersNtB5_10PadAdapterNtB7_5Write9write_str
_RNvXs0_NtNtCsfQL5qMWGko6_4core3fmt8buildersNtB5_10PadAdapterNtB7_5Write10write_char
_RNvYNtNtNtCsfQL5qMWGko6_4core3fmt8builders10PadAdapterNtB6_5Write9write_fmtB8_
_RNvMsa_NtCsfQL5qMWGko6_4core3fmtNtB5_9Formatter12pad_integral
_RNvMsk_NtNtNtCsfQL5qMWGko6_4core3fmt3num3impj10__fmt_inner
_RNvNtCsfQL5qMWGko6_4core9panicking18panic_bounds_check
_RNvXsi_NtNtNtCsfQL5qMWGko6_4core3fmt3num3impjNtB9_7Display3fmt
_RNvNvMsa_NtCsfQL5qMWGko6_4core3fmtNtB7_9Formatter12pad_integral12write_prefix
_RNvMNtNtCsfQL5qMWGko6_4core4char7methodsc16escape_debug_ext
_RNvNtNtCsfQL5qMWGko6_4core7unicode9printable12is_printable
_RNvNtNtNtCsfQL5qMWGko6_4core7unicode12unicode_data15grapheme_extend11lookup_slow
_RNvNtNtCsfQL5qMWGko6_4core5slice5index16slice_index_fail
_RNvNtCsfQL5qMWGko6_4core6option13unwrap_failed
_RNvNtCsfQL5qMWGko6_4core9panicking5panic
_RNvNvNvNtNtCsfQL5qMWGko6_4core5slice5index16slice_index_fail8do_panic7runtime
_RNvNvNvNtNtCsfQL5qMWGko6_4core5slice5index16slice_index_fails1_8do_panic7runtime
_RNvNvNvNtNtCsfQL5qMWGko6_4core5slice5index16slice_index_fails0_8do_panic7runtime
_RNvNtNtCsfQL5qMWGko6_4core3str8converts9from_utf8
_RNvMs3_NtNtCsfQL5qMWGko6_4core3ffi5c_strNtB5_4CStr19from_bytes_with_nul
_RNvMsa_NtNtNtCsfQL5qMWGko6_4core3fmt3num3impm10__fmt_inner
_RNvMsu_NtNtCsfQL5qMWGko6_4core3str7patternNtB5_11StrSearcher3new
_RNvXs8_NtNtNtCsfQL5qMWGko6_4core3fmt3num3impmNtB9_7Display3fmt
_RNvNtCsfQL5qMWGko6_4core3str16slice_error_fail
_RNvNtCsfQL5qMWGko6_4core3str19slice_error_fail_rt
_RNvXsj_NtCsfQL5qMWGko6_4core3fmtcNtB5_5Debug3fmt
_RNvXs_NtNtCsfQL5qMWGko6_4core3ops5rangeINtB4_5RangejENtNtB8_3fmt5Debug3fmtB8_
_RNvNtCsfQL5qMWGko6_4core4cell22panic_already_borrowed
_RNvNvNvNtCsfQL5qMWGko6_4core4cell22panic_already_borrowed8do_panic7runtime
_RNvXso_NtCsfQL5qMWGko6_4core4cellNtB5_14BorrowMutErrorNtNtB7_3fmt7Display3fmt
_RNvNtCsfQL5qMWGko6_4core6result13unwrap_failed
_RNvNtCsfQL5qMWGko6_4core9panicking14panic_nounwind
_RNvNtCsfQL5qMWGko6_4core9panicking18panic_nounwind_fmt
_RNvNtCsfQL5qMWGko6_4core9panicking19panic_cannot_unwind
_RNvNtCsfQL5qMWGko6_4core9panicking16panic_in_cleanup
_RNvNtCsfQL5qMWGko6_4core9panicking26panic_nounwind_nobacktrace
_RNvNtNtCsfQL5qMWGko6_4core3str6traits23str_index_overflow_fail
_RNvNtNtCsfQL5qMWGko6_4core5slice6memchr14memchr_aligned
_RNvNtNtCsfQL5qMWGko6_4core9panicking11panic_const23panic_const_div_by_zero
_RNvNtNtCsfQL5qMWGko6_4core9panicking11panic_const23panic_const_rem_by_zero
_RNvNtNtNtNtCsfQL5qMWGko6_4core5slice4sort6shared9smallsort22panic_on_ord_violation
_RNvNvNtCsfQL5qMWGko6_4core5slice20copy_from_slice_impl17len_mismatch_fail
_RNvNvNvNvNtCsfQL5qMWGko6_4core5slice20copy_from_slice_impl17len_mismatch_fail8do_panic7runtime
_RNvXs2_NtNtCsfQL5qMWGko6_4core3str5lossyNtB5_10Utf8ChunksNtNtNtNtB9_4iter6traits8iterator8Iterator4next
_RNvXsg_NtNtCsfQL5qMWGko6_4core3fmt3numhNtB7_8UpperHex3fmt
_RNvXsk_NtCsfQL5qMWGko6_4core3fmtcNtB5_7Display3fmt
_RNvXsh_NtCsfQL5qMWGko6_4core3fmteNtB5_5Debug3fmt
_RNvXs9_NtNtNtCsfQL5qMWGko6_4core3fmt3num3implNtB9_7Display3fmt
_RNvXsC_NtNtCsfQL5qMWGko6_4core3fmt3numyNtB7_8LowerHex3fmt
_RNvXsd_NtNtNtCsfQL5qMWGko6_4core3fmt3num3impyNtB9_7Display3fmt
_RNvMs0_NtCs78A21jy8lRn_5alloc7raw_vecINtB5_6RawVecNtNtNtCsktQxXQGZjIy_5gimli4read6abbrev12AbbreviationE8grow_oneBS_
_RNvMs2_NtCs78A21jy8lRn_5alloc7raw_vecNtB5_11RawVecInner14grow_amortizedCsktQxXQGZjIy_5gimli
_RNvMs2_NtCs78A21jy8lRn_5alloc7raw_vecNtB5_11RawVecInner11finish_growCsktQxXQGZjIy_5gimli
_RNvMs0_NtCs78A21jy8lRn_5alloc7raw_vecINtB5_6RawVecNtNtNtCsktQxXQGZjIy_5gimli4read6abbrev22AttributeSpecificationE8grow_oneBS_
_RNvMs4_NtNtCsktQxXQGZjIy_5gimli4read6abbrevNtB5_13Abbreviations6insert
_RNvXsa_NtNtCsktQxXQGZjIy_5gimli4read6abbrevNtB5_10AttributesNtNtNtCsfQL5qMWGko6_4core3ops5deref5Deref5deref
_RNvNvNtNtNtCslQCDUggHFaK_6memchr4arch6x86_646memchr10memchr_raw6detect
_RNvNvNtNtNtCslQCDUggHFaK_6memchr4arch6x86_646memchr10memchr_raw9find_sse2
_RNvNtNtCs65H79aCg9yw_11miniz_oxide7inflate4core10decompress
_RNvNtNtCs65H79aCg9yw_11miniz_oxide7inflate4core9init_tree
_RNvNtNtCs65H79aCg9yw_11miniz_oxide7inflate4core11apply_match
_RNvNtNtCs65H79aCg9yw_11miniz_oxide7inflate4core8transfer
_RNvCsL6e0J8m5bd_7___rustc18___rust_start_panic
_RINvNtCsfQL5qMWGko6_4core3ptr13drop_in_placeNtNtCs3NI1OepfVOb_12panic_unwind3imp9ExceptionEBK_
_RNvNvNtCs3NI1OepfVOb_12panic_unwind3imp5panic17exception_cleanup
_RINvNtCsfQL5qMWGko6_4core3ptr13drop_in_placeINtNtCs78A21jy8lRn_5alloc5boxed3BoxNtNtCs3NI1OepfVOb_12panic_unwind3imp9ExceptionEEB1j_
_RNvCsL6e0J8m5bd_7___rustc20___rust_panic_cleanup
_RNvCsbho2wNjk0G0_14rustc_demangle12try_demangle
_RNvXsv_NtNtCsfQL5qMWGko6_4core3str7patternNtB5_11StrSearcherNtB5_8Searcher4next
_RNvMs4_NtCsbho2wNjk0G0_14rustc_demangle2v0NtB5_7Printer10print_path
_RNvXsK_NtCsfQL5qMWGko6_4core3fmtNtB5_5ErrorNtB5_5Debug3fmt.61
_RINvMs4_NtCsbho2wNjk0G0_14rustc_demangle2v0NtB6_7Printer13print_backrefNCNvB2_10print_paths_0EB8_
_RNvMs2_NtCsbho2wNjk0G0_14rustc_demangle2v0NtB5_6Parser13disambiguator
_RNvMs2_NtCsbho2wNjk0G0_14rustc_demangle2v0NtB5_6Parser5ident
_RNvXs0_NtCsbho2wNjk0G0_14rustc_demangle2v0NtB5_5IdentNtNtCsfQL5qMWGko6_4core3fmt7Display3fmt
_RNvMs2_NtCsbho2wNjk0G0_14rustc_demangle2v0NtB5_6Parser9namespace
_RNvMs4_NtCsbho2wNjk0G0_14rustc_demangle2v0NtB5_7Printer10print_type
_RINvMs4_NtCsbho2wNjk0G0_14rustc_demangle2v0NtB6_7Printer14print_sep_listNvB2_17print_generic_argEB8_
_RNvMs4_NtCsbho2wNjk0G0_14rustc_demangle2v0NtB5_7Printer17print_generic_arg
_RNvMs4_NtCsbho2wNjk0G0_14rustc_demangle2v0NtB5_7Printer11print_const
_RNvMs4_NtCsbho2wNjk0G0_14rustc_demangle2v0NtB5_7Printer25print_lifetime_from_index
_RNvMs4_NtCsbho2wNjk0G0_14rustc_demangle2v0NtB5_7Printer16print_const_uint
_RINvMs4_NtCsbho2wNjk0G0_14rustc_demangle2v0NtB6_7Printer13print_backrefNCNvB2_11print_consts4_0EB8_
_RNvMs2_NtCsbho2wNjk0G0_14rustc_demangle2v0NtB5_6Parser11hex_nibbles
_RNvMs1_NtCsbho2wNjk0G0_14rustc_demangle2v0NtB5_10HexNibbles14try_parse_uint
_RINvMs4_NtCsbho2wNjk0G0_14rustc_demangle2v0NtB6_7Printer26print_quoted_escaped_charsINtNtNtNtCsfQL5qMWGko6_4core4iter7sources4once4OncecEEB8_
_RNvMs4_NtCsbho2wNjk0G0_14rustc_demangle2v0NtB5_7Printer23print_const_str_literal
_RINvMs4_NtCsbho2wNjk0G0_14rustc_demangle2v0NtB6_7Printer14print_sep_listNCNvB2_11print_consts0_0EB8_
_RINvMs4_NtCsbho2wNjk0G0_14rustc_demangle2v0NtB6_7Printer14print_sep_listNCNvB2_11print_consts1_0EB8_
_RINvMs4_NtCsbho2wNjk0G0_14rustc_demangle2v0NtB6_7Printer14print_sep_listNCNvB2_11print_consts3_0EB8_
_RNvXNtNtNtCsfQL5qMWGko6_4core4iter7sources7from_fnINtB2_6FromFnNCNvMs1_NtCsbho2wNjk0G0_14rustc_demangle2v0NtB17_10HexNibbles19try_parse_str_charss0_0ENtNtNtB6_6traits8iterator8Iterator4nextB19_
_RNvMNtNtCsfQL5qMWGko6_4core4char7methodsc16escape_debug_ext.62
_RNvXss_NtCsfQL5qMWGko6_4core3fmtuNtB5_5Debug3fmt
_RNvXNtNtCsfQL5qMWGko6_4core3str4iterNtB2_5CharsNtNtNtNtB6_4iter6traits8iterator8Iterator5count
_RNvXs1h_NtCsfQL5qMWGko6_4core3fmtQShNtB6_5Debug3fmtCsbho2wNjk0G0_14rustc_demangle
_RNvXs1g_NtCsfQL5qMWGko6_4core3fmtReNtB6_5Debug3fmtCsbho2wNjk0G0_14rustc_demangle
_RNvXs1g_NtCsfQL5qMWGko6_4core3fmtRhNtB6_5Debug3fmtCsbho2wNjk0G0_14rustc_demangle
_RINvMs4_NtCsbho2wNjk0G0_14rustc_demangle2v0NtB6_7Printer9in_binderNCNvB2_10print_type0EB8_
_RINvMs4_NtCsbho2wNjk0G0_14rustc_demangle2v0NtB6_7Printer13print_backrefNvB2_10print_typeEB8_
_RNvMs2_NtCsbho2wNjk0G0_14rustc_demangle2v0NtB5_6Parser10integer_62
_RINvMs4_NtCsbho2wNjk0G0_14rustc_demangle2v0NtB6_7Printer14print_sep_listNvB2_10print_typeEB8_
_RINvMs4_NtCsbho2wNjk0G0_14rustc_demangle2v0NtB6_7Printer9in_binderNCNvB2_10print_types_0EB8_
_RNvMs4_NtCsbho2wNjk0G0_14rustc_demangle2v0NtB5_7Printer9print_pat
_RNvMs4_NtCsbho2wNjk0G0_14rustc_demangle2v0NtB5_7Printer15print_dyn_trait
_RNvMs4_NtCsbho2wNjk0G0_14rustc_demangle2v0NtB5_7Printer30print_path_maybe_open_generics
_RNCNvMs4_NtCsbho2wNjk0G0_14rustc_demangle2v0NtB7_7Printer10print_type0B9_
_RNvXs_NtNtCsfQL5qMWGko6_4core3str7patternNtB4_12CharSearcherNtB4_8Searcher10next_match
_RNvXsc_NtNtCsfQL5qMWGko6_4core3num5errorNtB5_13ParseIntErrorNtNtB9_3fmt5Debug3fmt
_RNvXs1i_NtCsfQL5qMWGko6_4core3fmtRNtCsbho2wNjk0G0_14rustc_demangle13DemangleStyleNtB6_7Display3fmtBy_
_RNvXs8_Csbho2wNjk0G0_14rustc_demangleNtB5_18SizeLimitExhaustedNtNtCsfQL5qMWGko6_4core3fmt5Debug3fmt
_RNvXs0_Csbho2wNjk0G0_14rustc_demangleINtB5_21SizeLimitedFmtAdapterQNtNtCsfQL5qMWGko6_4core3fmt9FormatterENtB15_5Write9write_strB5_
_RNvYINtCsbho2wNjk0G0_14rustc_demangle21SizeLimitedFmtAdapterQNtNtCsfQL5qMWGko6_4core3fmt9FormatterENtBZ_5Write10write_charB5_
_RNvYINtCsbho2wNjk0G0_14rustc_demangle21SizeLimitedFmtAdapterQNtNtCsfQL5qMWGko6_4core3fmt9FormatterENtBZ_5Write9write_fmtB5_
rust_eh_personality
_RNvNtCs3bNtqN8jaZB_3std9panicking15panic_with_hook
_RNvMNtNtNtNtCs3bNtqN8jaZB_3std3sys4sync6rwlock5futexNtB2_6RwLock14read_contended
_RNvXs1i_NtCsfQL5qMWGko6_4core3fmtRNtNtNtB8_5panic8location8LocationNtB6_7Display3fmtCs3bNtqN8jaZB_3std
_RNvYNtNtNtNtCs3bNtqN8jaZB_3std3sys5stdio4unix6StderrNtNtBa_2io5Write9write_fmtBa_
_RINvNtCsfQL5qMWGko6_4core3ptr13drop_in_placeINtNtB4_6result6ResultuNtNtNtCs3bNtqN8jaZB_3std2io5error5ErrorEEB19_
_RNvNtCs3bNtqN8jaZB_3std7process5abort
_RINvNtCsfQL5qMWGko6_4core3ptr13drop_in_placeINtNtNtNtCs3bNtqN8jaZB_3std4sync9nonpoison6rwlock15RwLockReadGuardNtNtBP_9panicking4HookEEBP_
_RNvCsL6e0J8m5bd_7___rustc10rust_panic
_RNvNtCs3bNtqN8jaZB_3std5panic19get_backtrace_style
_RNvNtNtCs3bNtqN8jaZB_3std9panicking11panic_count17is_zero_slow_path
_RINvNvMs2_NtCs78A21jy8lRn_5alloc7raw_vecINtB8_11RawVecInnerpE7reserve21do_reserve_and_handleNtNtBa_5alloc6GlobalECs3bNtqN8jaZB_3std
_RINvNtCsfQL5qMWGko6_4core3ptr13drop_in_placeNtNtNtCs3bNtqN8jaZB_3std2io5error5ErrorEBM_
_RNvMs2_NtCs78A21jy8lRn_5alloc7raw_vecNtB5_11RawVecInner11finish_growCs3bNtqN8jaZB_3std
_RNvMNtNtNtNtCs3bNtqN8jaZB_3std3sys4sync5mutex5futexNtB2_5Mutex14lock_contended
_RNvNtNtCs3bNtqN8jaZB_3std3sys9backtrace4lock
_RINvNtCsfQL5qMWGko6_4core3ptr13drop_in_placeNtNtNtCs3bNtqN8jaZB_3std3sys9backtrace13BacktraceLockEBM_
_RNvXNvMNtNtCs3bNtqN8jaZB_3std3sys9backtraceNtB5_13BacktraceLock5printNtB2_16DisplayBacktraceNtNtCsfQL5qMWGko6_4core3fmt7Display3fmt
_RNvNvNtNtNtCs3bNtqN8jaZB_3std12backtrace_rs9backtrace9libunwind5trace8trace_fn
_RINvNtCsfQL5qMWGko6_4core3ptr13drop_in_placeNtNtNtNtCs3bNtqN8jaZB_3std12backtrace_rs9backtrace9libunwind4BombEBO_
_RNSNvYNCNvNtNtCs3bNtqN8jaZB_3std3sys9backtrace10__print_fmts_0INtNtNtCsfQL5qMWGko6_4core3ops8function6FnOnceTRNtNtNtBc_12backtrace_rs9backtrace5FrameEE9call_once6vtableBc_
_RNCNvNtNtCs3bNtqN8jaZB_3std3sys9backtrace10__print_fmts_0B7_
_RINvMs0_NtNtNtCs3bNtqN8jaZB_3std12backtrace_rs9symbolize5gimliNtB6_5Cache11with_globalNCNvB6_7resolves_0EBc_
_RNvMs_NtNtCs3bNtqN8jaZB_3std12backtrace_rs5printNtB4_17BacktraceFrameFmt21print_raw_with_column
_RNvXsq_NtCsfQL5qMWGko6_4core3fmtONtNtB7_3ffi6c_voidNtB5_5Debug3fmtCs3bNtqN8jaZB_3std
_RNvXs2_NtNtCs3bNtqN8jaZB_3std12backtrace_rs9symbolizeNtB5_10SymbolNameNtNtCsfQL5qMWGko6_4core3fmt7Display3fmt
_RNvMsi_NtNtNtCs3bNtqN8jaZB_3std3sys2fs4unixNtB5_4File6open_c
_RNvNtNtNtNtCs3bNtqN8jaZB_3std12backtrace_rs9symbolize5gimli20libs_dl_iterate_phdr8callback
_RNvNtNtNtCs3bNtqN8jaZB_3std12backtrace_rs9symbolize5gimli4mmap
_RNvMs_NtNtNtNtCs3bNtqN8jaZB_3std12backtrace_rs9symbolize5gimli3elfNtB4_6Object5parse
_RINvNtCsfQL5qMWGko6_4core3ptr13drop_in_placeNtNtNtNtNtCs3bNtqN8jaZB_3std12backtrace_rs9symbolize5gimli5stash5StashEBQ_
_RNvMs_NtNtNtNtCs3bNtqN8jaZB_3std12backtrace_rs9symbolize5gimli3elfNtB4_6Object8build_id
_RNvNtNtNtNtCs3bNtqN8jaZB_3std12backtrace_rs9symbolize5gimli3elf15locate_build_id
_RNvMNtNtNtNtCs3bNtqN8jaZB_3std12backtrace_rs9symbolize5gimli3elfNtB4_7Mapping9new_debug
_RNvNtNtNtCs3bNtqN8jaZB_3std3sys2fs4unix12canonicalize
_RINvNtNtNtNtCs3bNtqN8jaZB_3std3sys3pal6common14small_c_string24run_with_cstr_allocatingNtNtBa_4path7PathBufEBa_
_RNvXsj_NtCs3bNtqN8jaZB_3std4pathNtB5_10ComponentsNtNtNtNtCsfQL5qMWGko6_4core4iter6traits12double_ended19DoubleEndedIterator9next_back
_RNvMs8_NtCs3bNtqN8jaZB_3std4pathNtB5_10Components7as_path
_RNvMs16_NtCs3bNtqN8jaZB_3std4pathNtB6_4Path7is_file
_RNvMs16_NtCs3bNtqN8jaZB_3std4pathNtB6_4Path6is_dir
_RNvMs16_NtCs3bNtqN8jaZB_3std4pathNtB6_4Path13__strip_prefix
_RNvMNtNtNtNtCs3bNtqN8jaZB_3std12backtrace_rs9symbolize5gimli3elfNtB4_7Mapping18load_dwarf_package
_RNvMs_NtNtNtCs3bNtqN8jaZB_3std12backtrace_rs9symbolize5gimliNtB4_7Context3new
_RINvNtCsfQL5qMWGko6_4core3ptr13drop_in_placeTjNtNtNtNtCs3bNtqN8jaZB_3std12backtrace_rs9symbolize5gimli7MappingEEBQ_
_RNvMNtCsfwdNdOnv07X_9addr2line4unitINtB2_7ResUnitINtNtNtCsktQxXQGZjIy_5gimli4read12endian_slice11EndianSliceNtNtBS_9endianity12LittleEndianEE25find_function_or_locationCs3bNtqN8jaZB_3std
_RNvMs2_NtCsfwdNdOnv07X_9addr2line6lookupINtB5_13LoopingLookupINtNtCsfQL5qMWGko6_4core6result6ResultINtNtB7_5frame9FrameIterINtNtNtCsktQxXQGZjIy_5gimli4read12endian_slice11EndianSliceNtNtB24_9endianity12LittleEndianEENtB22_5ErrorEINtB5_12MappedLookupIBY_TINtNtB12_6option6OptionRINtNtB7_8function8FunctionB1X_EEIB45_NtB1C_8LocationEEB3s_EINtB5_12SimpleLookupIBY_TNtB7_9DebugFileINtNtB22_5dwarf7UnitRefB1X_EEB3s_EB1X_NCNvMNtB7_4unitINtB6K_7ResUnitB1X_E14dwarf_and_units4_0ENCNvB6J_25find_function_or_location0ENCNvMs_B7_INtB7_7ContextB1X_E11find_frames0E10new_lookupCs3bNtqN8jaZB_3std
_RNvMsn_NtCs78A21jy8lRn_5alloc4syncINtB5_3ArcINtNtNtCsktQxXQGZjIy_5gimli4read5dwarf5DwarfINtNtBL_12endian_slice11EndianSliceNtNtBN_9endianity12LittleEndianEEE9drop_slowCs3bNtqN8jaZB_3std
_RINvNtCsfQL5qMWGko6_4core3ptr13drop_in_placeINtNtCs78A21jy8lRn_5alloc4sync8ArcInnerINtNtNtCsktQxXQGZjIy_5gimli4read5dwarf5DwarfINtNtB1o_12endian_slice11EndianSliceNtNtB1q_9endianity12LittleEndianEEEECs3bNtqN8jaZB_3std
_RNvMs0_NtCs78A21jy8lRn_5alloc7raw_vecINtB5_6RawVecNtNtNtNtNtCs3bNtqN8jaZB_3std12backtrace_rs9symbolize5gimli4mmap4MmapE8grow_oneBW_
_RNvMs_NtNtNtNtCs3bNtqN8jaZB_3std12backtrace_rs9symbolize5gimli3elfNtB4_6Object7section
_RNvMs6_NtNtCsktQxXQGZjIy_5gimli4read4unitINtB5_24DebugInfoUnitHeadersIterINtNtB7_12endian_slice11EndianSliceNtNtB9_9endianity12LittleEndianEE4nextCs3bNtqN8jaZB_3std
_RNvMs4_NtNtCsktQxXQGZjIy_5gimli4read5dwarfINtB5_4UnitINtNtB7_12endian_slice11EndianSliceNtNtB9_9endianity12LittleEndianEjE3newCs3bNtqN8jaZB_3std
_RINvNtCsfQL5qMWGko6_4core3ptr13drop_in_placeINtNtNtCsktQxXQGZjIy_5gimli4read5dwarf4UnitINtNtBL_12endian_slice11EndianSliceNtNtBN_9endianity12LittleEndianEjEECs3bNtqN8jaZB_3std
_RNvMsn_NtCs78A21jy8lRn_5alloc4syncINtB5_3ArcNtNtNtCsktQxXQGZjIy_5gimli4read6abbrev13AbbreviationsE9drop_slowCs3bNtqN8jaZB_3std
_RINvNtCsfQL5qMWGko6_4core3ptr13drop_in_placeINtNtB4_6option6OptionINtNtNtCsktQxXQGZjIy_5gimli4read4line21IncompleteLineProgramINtNtB17_12endian_slice11EndianSliceNtNtB19_9endianity12LittleEndianEjEEECs3bNtqN8jaZB_3std
_RINvNtCsfQL5qMWGko6_4core3ptr13drop_in_placeINtNtB4_6result6ResultRIBH_INtNtB4_6option6OptionINtNtCs78A21jy8lRn_5alloc5boxed3BoxINtNtCsfwdNdOnv07X_9addr2line4unit7DwoUnitINtNtNtCsktQxXQGZjIy_5gimli4read12endian_slice11EndianSliceNtNtB2P_9endianity12LittleEndianEEEENtB2N_5ErrorETB12_B13_EEECs3bNtqN8jaZB_3std
_RNCNvMNtCsfwdNdOnv07X_9addr2line4unitINtB4_7ResUnitINtNtNtCsktQxXQGZjIy_5gimli4read12endian_slice11EndianSliceNtNtBU_9endianity12LittleEndianEE25find_function_or_location0Cs3bNtqN8jaZB_3std
_RINvMNtNtCsfQL5qMWGko6_4core4cell4onceINtB3_8OnceCellINtNtB7_6result6ResultNtNtCsfwdNdOnv07X_9addr2line4line5LinesNtNtCsktQxXQGZjIy_5gimli4read5ErrorEE8try_initNCINvB2_11get_or_initNCINvMB1d_NtB1d_9LazyLines6borrowINtNtB1Q_12endian_slice11EndianSliceNtNtB1S_9endianity12LittleEndianEE0E0zECs3bNtqN8jaZB_3std
_RNvMs_NtNtNtNtCs3bNtqN8jaZB_3std12backtrace_rs9symbolize5gimli3elfNtB4_6Object13search_symtab
_RNvXs11_NtNtCsktQxXQGZjIy_5gimli4read4lineINtB6_9FileEntryINtNtB8_12endian_slice11EndianSliceNtNtBa_9endianity12LittleEndianEjENtNtCsfQL5qMWGko6_4core5clone5Clone5cloneCs3bNtqN8jaZB_3std
_RNvMs0_NtCs78A21jy8lRn_5alloc7raw_vecINtB5_6RawVecINtNtNtCsktQxXQGZjIy_5gimli4read4line9FileEntryINtNtBR_12endian_slice11EndianSliceNtNtBT_9endianity12LittleEndianEjEE8grow_oneCs3bNtqN8jaZB_3std
_RINvNtCsfQL5qMWGko6_4core3ptr13drop_in_placeINtNtNtCsktQxXQGZjIy_5gimli4read4line8LineRowsINtNtBL_12endian_slice11EndianSliceNtNtBN_9endianity12LittleEndianEINtBJ_21IncompleteLineProgramB1q_jEjEECs3bNtqN8jaZB_3std
_RINvNtNtNtCsfQL5qMWGko6_4core5slice4sort6stable14driftsort_mainNtNtCsfwdNdOnv07X_9addr2line4line12LineSequenceNCINvMNtCs78A21jy8lRn_5alloc5sliceSBZ_11sort_by_keyyNCINvMs_B11_NtB11_5Lines5parseINtNtNtCsktQxXQGZjIy_5gimli4read12endian_slice11EndianSliceNtNtB3b_9endianity12LittleEndianEEs_0E0INtNtB1S_3vec3VecBZ_EECs3bNtqN8jaZB_3std
_RINvNtNtNtNtCsfQL5qMWGko6_4core5slice4sort6shared9smallsort25insertion_sort_shift_leftNtNtCsfwdNdOnv07X_9addr2line4line12LineSequenceNCINvMNtCs78A21jy8lRn_5alloc5sliceSB1m_11sort_by_keyyNCINvMs_B1o_NtB1o_5Lines5parseINtNtNtCsktQxXQGZjIy_5gimli4read12endian_slice11EndianSliceNtNtB3z_9endianity12LittleEndianEEs_0E0ECs3bNtqN8jaZB_3std
_RNvMs0_NtCs78A21jy8lRn_5alloc7raw_vecINtB5_6RawVecNtNtCsfwdNdOnv07X_9addr2line4line12LineSequenceE8grow_oneCs3bNtqN8jaZB_3std
_RINvNtCsfQL5qMWGko6_4core3ptr13drop_in_placeINtNtCs78A21jy8lRn_5alloc3vec3VecNtNtBL_6string6StringEECs3bNtqN8jaZB_3std
_RINvNtCsfwdNdOnv07X_9addr2line4line11render_fileINtNtNtCsktQxXQGZjIy_5gimli4read12endian_slice11EndianSliceNtNtBR_9endianity12LittleEndianEECs3bNtqN8jaZB_3std
_RINvNtCsfQL5qMWGko6_4core3ptr13drop_in_placeINtNtCs78A21jy8lRn_5alloc3vec3VecNtNtCsfwdNdOnv07X_9addr2line4line12LineSequenceEECs3bNtqN8jaZB_3std
_RINvNtCsfQL5qMWGko6_4core3ptr13drop_in_placeINtNtCs78A21jy8lRn_5alloc5boxed3BoxSNtNtBL_6string6StringEECs3bNtqN8jaZB_3std
_RINvNtCsfQL5qMWGko6_4core3ptr13drop_in_placeINtNtB4_6result6ResultRIBH_NtNtCsfwdNdOnv07X_9addr2line4line5LinesNtNtCsktQxXQGZjIy_5gimli4read5ErrorETB12_B13_EEECs3bNtqN8jaZB_3std
_RINvNtCsfQL5qMWGko6_4core3ptr13drop_in_placeINtNtB4_6result6ResultNtNtCsfwdNdOnv07X_9addr2line4line5LinesNtNtCsktQxXQGZjIy_5gimli4read5ErrorEECs3bNtqN8jaZB_3std
_RNvMs0_NtNtCsktQxXQGZjIy_5gimli4read5dwarfINtB5_5DwarfINtNtB7_12endian_slice11EndianSliceNtNtB9_9endianity12LittleEndianEE11attr_stringCs3bNtqN8jaZB_3std
_RINvNtNtNtNtCsfQL5qMWGko6_4core5slice4sort6stable5drift4sortNtNtCsfwdNdOnv07X_9addr2line4line12LineSequenceNCINvMNtCs78A21jy8lRn_5alloc5sliceSBW_11sort_by_keyyNCINvMs_BY_NtBY_5Lines5parseINtNtNtCsktQxXQGZjIy_5gimli4read12endian_slice11EndianSliceNtNtB36_9endianity12LittleEndianEEs_0E0ECs3bNtqN8jaZB_3std
_RINvNtNtNtNtCsfQL5qMWGko6_4core5slice4sort6stable9quicksort9quicksortNtNtCsfwdNdOnv07X_9addr2line4line12LineSequenceNCINvMNtCs78A21jy8lRn_5alloc5sliceSB15_11sort_by_keyyNCINvMs_B17_NtB17_5Lines5parseINtNtNtCsktQxXQGZjIy_5gimli4read12endian_slice11EndianSliceNtNtB3i_9endianity12LittleEndianEEs_0E0ECs3bNtqN8jaZB_3std
_RINvNtNtNtNtCsfQL5qMWGko6_4core5slice4sort6shared5pivot11median3_recNtNtCsfwdNdOnv07X_9addr2line4line12LineSequenceNCINvMNtCs78A21jy8lRn_5alloc5sliceSB14_11sort_by_keyyNCINvMs_B16_NtB16_5Lines5parseINtNtNtCsktQxXQGZjIy_5gimli4read12endian_slice11EndianSliceNtNtB3h_9endianity12LittleEndianEEs_0E0ECs3bNtqN8jaZB_3std
_RINvMNtNtCsfQL5qMWGko6_4core4cell4onceINtB3_8OnceCellINtNtB7_6result6ResultINtNtCsfwdNdOnv07X_9addr2line8function9FunctionsINtNtNtCsktQxXQGZjIy_5gimli4read12endian_slice11EndianSliceNtNtB24_9endianity12LittleEndianEENtB22_5ErrorEE8try_initNCINvB2_11get_or_initNCNvMB1e_INtB1e_13LazyFunctionsB1X_E6borrow0E0zECs3bNtqN8jaZB_3std
_RINvMNtNtCsfQL5qMWGko6_4core4cell4onceINtB3_8OnceCellINtNtB7_6result6ResultINtNtCsfwdNdOnv07X_9addr2line8function8FunctionINtNtNtCsktQxXQGZjIy_5gimli4read12endian_slice11EndianSliceNtNtB23_9endianity12LittleEndianEENtB21_5ErrorEE8try_initNCINvB2_11get_or_initNCNvMs_B1e_INtB1e_12LazyFunctionB1W_E6borrow0E0zECs3bNtqN8jaZB_3std
_RINvNtNtCsktQxXQGZjIy_5gimli4read4unit15parse_attributeINtNtB4_12endian_slice11EndianSliceNtNtB6_9endianity12LittleEndianEECs3bNtqN8jaZB_3std
_RNvMs1_NtCsfwdNdOnv07X_9addr2line8functionINtB5_8FunctionINtNtNtCsktQxXQGZjIy_5gimli4read12endian_slice11EndianSliceNtNtB10_9endianity12LittleEndianEE14parse_childrenCs3bNtqN8jaZB_3std
_RINvNtNtNtCsfQL5qMWGko6_4core5slice4sort6stable14driftsort_mainNtNtCsfwdNdOnv07X_9addr2line8function22InlinedFunctionAddressNCINvMNtCs78A21jy8lRn_5alloc5sliceSBZ_7sort_byNCNvMs1_B11_INtB11_8FunctionINtNtNtCsktQxXQGZjIy_5gimli4read12endian_slice11EndianSliceNtNtB3h_9endianity12LittleEndianEE5parse0E0INtNtB26_3vec3VecBZ_EECs3bNtqN8jaZB_3std
_RINvNtNtNtNtCsfQL5qMWGko6_4core5slice4sort6shared9smallsort25insertion_sort_shift_leftNtNtCsfwdNdOnv07X_9addr2line8function22InlinedFunctionAddressNCINvMNtCs78A21jy8lRn_5alloc5sliceSB1m_7sort_byNCNvMs1_B1o_INtB1o_8FunctionINtNtNtCsktQxXQGZjIy_5gimli4read12endian_slice11EndianSliceNtNtB3F_9endianity12LittleEndianEE5parse0E0ECs3bNtqN8jaZB_3std
_RNvMsb_NtNtCsktQxXQGZjIy_5gimli4read4unitINtB5_9AttributeINtNtB7_12endian_slice11EndianSliceNtNtB9_9endianity12LittleEndianEE5valueCs3bNtqN8jaZB_3std
_RINvNtCsfwdNdOnv07X_9addr2line8function9name_attrINtNtNtCsktQxXQGZjIy_5gimli4read12endian_slice11EndianSliceNtNtBS_9endianity12LittleEndianEECs3bNtqN8jaZB_3std
_RINvNtCsfQL5qMWGko6_4core3ptr13drop_in_placeINtNtB4_6result6ResultRIBH_INtNtCsfwdNdOnv07X_9addr2line8function8FunctionINtNtNtCsktQxXQGZjIy_5gimli4read12endian_slice11EndianSliceNtNtB1Z_9endianity12LittleEndianEENtB1X_5ErrorETB12_B13_EEECs3bNtqN8jaZB_3std
_RINvNtCsfwdNdOnv07X_9addr2line8function10name_entryINtNtNtCsktQxXQGZjIy_5gimli4read12endian_slice11EndianSliceNtNtBU_9endianity12LittleEndianEECs3bNtqN8jaZB_3std
_RNvMsc_NtNtCsktQxXQGZjIy_5gimli4read4unitINtB5_14AttributeValueINtNtB7_12endian_slice11EndianSliceNtNtB9_9endianity12LittleEndianEjE8u8_valueCs3bNtqN8jaZB_3std
_RNvMsc_NtNtCsktQxXQGZjIy_5gimli4read4unitINtB5_14AttributeValueINtNtB7_12endian_slice11EndianSliceNtNtB9_9endianity12LittleEndianEjE9u16_valueCs3bNtqN8jaZB_3std
_RINvNtNtNtNtCsfQL5qMWGko6_4core5slice4sort6stable5drift4sortNtNtCsfwdNdOnv07X_9addr2line8function22InlinedFunctionAddressNCINvMNtCs78A21jy8lRn_5alloc5sliceSBW_7sort_byNCNvMs1_BY_INtBY_8FunctionINtNtNtCsktQxXQGZjIy_5gimli4read12endian_slice11EndianSliceNtNtB3c_9endianity12LittleEndianEE5parse0E0ECs3bNtqN8jaZB_3std
_RINvNtNtNtNtCsfQL5qMWGko6_4core5slice4sort6stable9quicksort9quicksortNtNtCsfwdNdOnv07X_9addr2line8function22InlinedFunctionAddressNCINvMNtCs78A21jy8lRn_5alloc5sliceSB15_7sort_byNCNvMs1_B17_INtB17_8FunctionINtNtNtCsktQxXQGZjIy_5gimli4read12endian_slice11EndianSliceNtNtB3o_9endianity12LittleEndianEE5parse0E0ECs3bNtqN8jaZB_3std
_RINvNtNtNtNtCsfQL5qMWGko6_4core5slice4sort6shared9smallsort12sort4_stableNtNtCsfwdNdOnv07X_9addr2line8function22InlinedFunctionAddressNCINvMNtCs78A21jy8lRn_5alloc5sliceSB19_7sort_byNCNvMs1_B1b_INtB1b_8FunctionINtNtNtCsktQxXQGZjIy_5gimli4read12endian_slice11EndianSliceNtNtB3s_9endianity12LittleEndianEE5parse0E0ECs3bNtqN8jaZB_3std
_RINvNtNtNtNtCsfQL5qMWGko6_4core5slice4sort6shared5pivot11median3_recNtNtCsfwdNdOnv07X_9addr2line8function22InlinedFunctionAddressNCINvMNtCs78A21jy8lRn_5alloc5sliceSB14_7sort_byNCNvMs1_B16_INtB16_8FunctionINtNtNtCsktQxXQGZjIy_5gimli4read12endian_slice11EndianSliceNtNtB3n_9endianity12LittleEndianEE5parse0E0ECs3bNtqN8jaZB_3std
_RINvNtNtCsktQxXQGZjIy_5gimli4read4unit15skip_attributesINtNtB4_12endian_slice11EndianSliceNtNtB6_9endianity12LittleEndianEECs3bNtqN8jaZB_3std
_RNvMs0_NtCs78A21jy8lRn_5alloc7raw_vecINtB5_6RawVecINtNtCsfwdNdOnv07X_9addr2line8function15InlinedFunctionINtNtNtCsktQxXQGZjIy_5gimli4read12endian_slice11EndianSliceNtNtB1M_9endianity12LittleEndianEEE8grow_oneCs3bNtqN8jaZB_3std
_RNvMsc_NtNtCsktQxXQGZjIy_5gimli4read8rnglistsINtB5_11RngListIterINtNtB7_12endian_slice11EndianSliceNtNtB9_9endianity12LittleEndianEE4nextCs3bNtqN8jaZB_3std
_RNvYINtNtNtCsktQxXQGZjIy_5gimli4read12endian_slice11EndianSliceNtNtB9_9endianity12LittleEndianENtNtB7_6reader6Reader17read_sized_offsetCs3bNtqN8jaZB_3std
_RNvYINtNtNtCsktQxXQGZjIy_5gimli4read12endian_slice11EndianSliceNtNtB9_9endianity12LittleEndianENtNtB7_6reader6Reader11read_offsetCs3bNtqN8jaZB_3std
_RINvNtNtNtCsfQL5qMWGko6_4core5slice4sort6stable14driftsort_mainNtNtCsfwdNdOnv07X_9addr2line8function15FunctionAddressNCINvMNtCs78A21jy8lRn_5alloc5sliceSBZ_11sort_by_keyyNCNvMs0_B11_INtB11_9FunctionsINtNtNtCsktQxXQGZjIy_5gimli4read12endian_slice11EndianSliceNtNtB3h_9endianity12LittleEndianEE5parses_0E0INtNtB1Z_3vec3VecBZ_EECs3bNtqN8jaZB_3std
_RNvMs0_NtCs78A21jy8lRn_5alloc7raw_vecINtB5_6RawVecINtNtCsfwdNdOnv07X_9addr2line8function12LazyFunctionINtNtNtCsktQxXQGZjIy_5gimli4read12endian_slice11EndianSliceNtNtB1J_9endianity12LittleEndianEEE8grow_oneCs3bNtqN8jaZB_3std
_RINvNtCsfQL5qMWGko6_4core3ptr13drop_in_placeINtNtCsfwdNdOnv07X_9addr2line8function12LazyFunctionINtNtNtCsktQxXQGZjIy_5gimli4read12endian_slice11EndianSliceNtNtB1D_9endianity12LittleEndianEEECs3bNtqN8jaZB_3std
_RINvNtCsfQL5qMWGko6_4core3ptr13drop_in_placeINtNtCs78A21jy8lRn_5alloc3vec3VecINtNtCsfwdNdOnv07X_9addr2line8function12LazyFunctionINtNtNtCsktQxXQGZjIy_5gimli4read12endian_slice11EndianSliceNtNtB2a_9endianity12LittleEndianEEEECs3bNtqN8jaZB_3std
_RINvNtCsfQL5qMWGko6_4core3ptr13drop_in_placeINtNtCs78A21jy8lRn_5alloc5boxed3BoxSINtNtCsfwdNdOnv07X_9addr2line8function12LazyFunctionINtNtNtCsktQxXQGZjIy_5gimli4read12endian_slice11EndianSliceNtNtB2d_9endianity12LittleEndianEEEECs3bNtqN8jaZB_3std
_RINvNtCsfQL5qMWGko6_4core3ptr13drop_in_placeINtNtB4_6result6ResultRIBH_INtNtCsfwdNdOnv07X_9addr2line8function9FunctionsINtNtNtCsktQxXQGZjIy_5gimli4read12endian_slice11EndianSliceNtNtB20_9endianity12LittleEndianEENtB1Y_5ErrorETB12_B13_EEECs3bNtqN8jaZB_3std
_RINvNtCsfQL5qMWGko6_4core3ptr13drop_in_placeINtNtB4_6result6ResultINtNtCsfwdNdOnv07X_9addr2line8function9FunctionsINtNtNtCsktQxXQGZjIy_5gimli4read12endian_slice11EndianSliceNtNtB1V_9endianity12LittleEndianEENtB1T_5ErrorEECs3bNtqN8jaZB_3std
_RINvNtNtNtNtCsfQL5qMWGko6_4core5slice4sort6stable5drift4sortNtNtCsfwdNdOnv07X_9addr2line8function15FunctionAddressNCINvMNtCs78A21jy8lRn_5alloc5sliceSBW_11sort_by_keyyNCNvMs0_BY_INtBY_9FunctionsINtNtNtCsktQxXQGZjIy_5gimli4read12endian_slice11EndianSliceNtNtB3c_9endianity12LittleEndianEE5parses_0E0ECs3bNtqN8jaZB_3std
_RINvNtNtNtNtCsfQL5qMWGko6_4core5slice4sort6stable9quicksort9quicksortNtNtCsfwdNdOnv07X_9addr2line8function15FunctionAddressNCINvMNtCs78A21jy8lRn_5alloc5sliceSB15_11sort_by_keyyNCNvMs0_B17_INtB17_9FunctionsINtNtNtCsktQxXQGZjIy_5gimli4read12endian_slice11EndianSliceNtNtB3o_9endianity12LittleEndianEE5parses_0E0ECs3bNtqN8jaZB_3std
_RINvNtNtNtNtCsfQL5qMWGko6_4core5slice4sort6shared5pivot11median3_recNtNtCsfwdNdOnv07X_9addr2line8function15FunctionAddressNCINvMNtCs78A21jy8lRn_5alloc5sliceSB14_11sort_by_keyyNCNvMs0_B16_INtB16_9FunctionsINtNtNtCsktQxXQGZjIy_5gimli4read12endian_slice11EndianSliceNtNtB3n_9endianity12LittleEndianEE5parses_0E0ECs3bNtqN8jaZB_3std
_RINvNtCsfQL5qMWGko6_4core3ptr13drop_in_placeINtNtB4_6result6ResultINtNtB4_6option6OptionINtNtCs78A21jy8lRn_5alloc5boxed3BoxINtNtCsfwdNdOnv07X_9addr2line4unit7DwoUnitINtNtNtCsktQxXQGZjIy_5gimli4read12endian_slice11EndianSliceNtNtB2K_9endianity12LittleEndianEEEENtB2I_5ErrorEECs3bNtqN8jaZB_3std
_RINvNtCsfQL5qMWGko6_4core3ptr13drop_in_placeNtNtNtCsktQxXQGZjIy_5gimli4read6abbrev13AbbreviationsECs3bNtqN8jaZB_3std
_RNvMsf_NtNtCsktQxXQGZjIy_5gimli4read4unitINtB5_13EntriesCursorINtNtB7_12endian_slice11EndianSliceNtNtB9_9endianity12LittleEndianEE10next_entryCs3bNtqN8jaZB_3std
_RINvMse_NtNtCsktQxXQGZjIy_5gimli4read4lineNtB6_15FileEntryFormat5parseINtNtB8_12endian_slice11EndianSliceNtNtBa_9endianity12LittleEndianEECs3bNtqN8jaZB_3std
_RNvYINtNtNtCsktQxXQGZjIy_5gimli4read12endian_slice11EndianSliceNtNtB9_9endianity12LittleEndianENtNtB7_6reader6Reader12read_uleb128Cs3bNtqN8jaZB_3std
_RINvNtNtCsktQxXQGZjIy_5gimli4read4line18parse_directory_v5INtNtB4_12endian_slice11EndianSliceNtNtB6_9endianity12LittleEndianEECs3bNtqN8jaZB_3std
_RNvMs0_NtCs78A21jy8lRn_5alloc7raw_vecINtB5_6RawVecINtNtNtCsktQxXQGZjIy_5gimli4read4unit14AttributeValueINtNtBR_12endian_slice11EndianSliceNtNtBT_9endianity12LittleEndianEjEE8grow_oneCs3bNtqN8jaZB_3std
_RINvNtNtCsktQxXQGZjIy_5gimli4read4line13parse_file_v5INtNtB4_12endian_slice11EndianSliceNtNtB6_9endianity12LittleEndianEECs3bNtqN8jaZB_3std
_RNvMsd_NtNtCsktQxXQGZjIy_5gimli4read4lineINtB5_9FileEntryINtNtB7_12endian_slice11EndianSliceNtNtB9_9endianity12LittleEndianEjE5parseCs3bNtqN8jaZB_3std
_RINvNtNtCsktQxXQGZjIy_5gimli4read4line15parse_attributeINtNtB4_12endian_slice11EndianSliceNtNtB6_9endianity12LittleEndianEECs3bNtqN8jaZB_3std
_RNvMs0_NtCs78A21jy8lRn_5alloc7raw_vecINtB5_6RawVecNtNtNtCsktQxXQGZjIy_5gimli4read4line15FileEntryFormatE8grow_oneCs3bNtqN8jaZB_3std
_RNvMNtNtNtNtCs3bNtqN8jaZB_3std12backtrace_rs9symbolize5gimli5stashNtB2_5Stash8allocate
_RNvNtNtNtNtCs3bNtqN8jaZB_3std12backtrace_rs9symbolize5gimli3elf15decompress_zlib
_RNvMs0_NtCs78A21jy8lRn_5alloc7raw_vecINtB5_6RawVecINtNtB7_3vec3VechEE8grow_oneCs3bNtqN8jaZB_3std
_RINvNtCsfQL5qMWGko6_4core3ptr13drop_in_placeNtNtNtCsktQxXQGZjIy_5gimli4read6abbrev18AbbreviationsCacheECs3bNtqN8jaZB_3std
_RNvMsz_NtNtNtCs78A21jy8lRn_5alloc11collections5btree3mapINtB5_8IntoIteryINtNtCsfQL5qMWGko6_4core6result6ResultINtNtBb_4sync3ArcNtNtNtCsktQxXQGZjIy_5gimli4read6abbrev13AbbreviationsENtB25_5ErrorEE10dying_nextCs3bNtqN8jaZB_3std
_RINvNtCsfQL5qMWGko6_4core3ptr13drop_in_placeINtNvXsy_NtNtNtCs78A21jy8lRn_5alloc11collections5btree3mapINtBP_8IntoIterpppENtNtNtB4_3ops4drop4Drop4drop9DropGuardyINtNtB4_6result6ResultINtNtBV_4sync3ArcNtNtNtCsktQxXQGZjIy_5gimli4read6abbrev13AbbreviationsENtB3f_5ErrorENtNtBV_5alloc6GlobalEECs3bNtqN8jaZB_3std
_RNvMs0_NtCs78A21jy8lRn_5alloc7raw_vecINtB5_6RawVecRINtNtCsfwdNdOnv07X_9addr2line8function15InlinedFunctionINtNtNtCsktQxXQGZjIy_5gimli4read12endian_slice11EndianSliceNtNtB1N_9endianity12LittleEndianEEE8grow_oneCs3bNtqN8jaZB_3std
_RINvMNtNtCsfQL5qMWGko6_4core4cell4onceINtB3_8OnceCellINtNtB7_6result6ResultINtNtB7_6option6OptionINtNtCs78A21jy8lRn_5alloc5boxed3BoxINtNtCsfwdNdOnv07X_9addr2line4unit7DwoUnitINtNtNtCsktQxXQGZjIy_5gimli4read12endian_slice11EndianSliceNtNtB2T_9endianity12LittleEndianEEEENtB2R_5ErrorEE8try_initNCINvB2_11get_or_initNCNvMB29_INtB29_7ResUnitB2M_E14dwarf_and_units0_0E0zECs3bNtqN8jaZB_3std
_RINvMNtNtCsfQL5qMWGko6_4core4cell4onceINtB3_8OnceCellINtNtB7_6result6ResultINtNtB7_6option6OptionINtNtCs78A21jy8lRn_5alloc5boxed3BoxINtNtCsfwdNdOnv07X_9addr2line4unit7DwoUnitINtNtNtCsktQxXQGZjIy_5gimli4read12endian_slice11EndianSliceNtNtB2T_9endianity12LittleEndianEEEENtB2R_5ErrorEE8try_initNCINvB2_11get_or_initNCNvMB29_INtB29_7ResUnitB2M_E14dwarf_and_units2_0E0zECs3bNtqN8jaZB_3std
_RINvNtCsfQL5qMWGko6_4core3ptr13drop_in_placeINtNtCsfwdNdOnv07X_9addr2line4unit8ResUnitsINtNtNtCsktQxXQGZjIy_5gimli4read12endian_slice11EndianSliceNtNtB1u_9endianity12LittleEndianEEECs3bNtqN8jaZB_3std
_RINvNtCsfQL5qMWGko6_4core3ptr13drop_in_placeINtNtCsfwdNdOnv07X_9addr2line4unit8SupUnitsINtNtNtCsktQxXQGZjIy_5gimli4read12endian_slice11EndianSliceNtNtB1u_9endianity12LittleEndianEEECs3bNtqN8jaZB_3std
_RINvNtCsfQL5qMWGko6_4core3ptr13drop_in_placeINtNtCsfwdNdOnv07X_9addr2line4unit7SupUnitINtNtNtCsktQxXQGZjIy_5gimli4read12endian_slice11EndianSliceNtNtB1t_9endianity12LittleEndianEEECs3bNtqN8jaZB_3std
_RINvNtCsfQL5qMWGko6_4core3ptr13drop_in_placeINtNtCsfwdNdOnv07X_9addr2line4unit7ResUnitINtNtNtCsktQxXQGZjIy_5gimli4read12endian_slice11EndianSliceNtNtB1t_9endianity12LittleEndianEEECs3bNtqN8jaZB_3std
_RINvNtCsfQL5qMWGko6_4core3ptr13drop_in_placeNtNtNtNtNtCs3bNtqN8jaZB_3std12backtrace_rs9symbolize5gimli3elf6ObjectEBQ_
_RNvMs4_NtNtCsktQxXQGZjIy_5gimli4read7arangesINtB5_12ArangeHeaderINtNtB7_12endian_slice11EndianSliceNtNtB9_9endianity12LittleEndianEjE5parseCs3bNtqN8jaZB_3std
_RNvMs0_NtCs78A21jy8lRn_5alloc7raw_vecINtB5_6RawVecTNtNtCsktQxXQGZjIy_5gimli6common15DebugInfoOffsetNtBP_18DebugArangesOffsetEE8grow_oneCs3bNtqN8jaZB_3std
_RINvNtNtNtCsfQL5qMWGko6_4core5slice4sort6stable14driftsort_mainTNtNtCsktQxXQGZjIy_5gimli6common15DebugInfoOffsetNtB12_18DebugArangesOffsetENCINvMNtCs78A21jy8lRn_5alloc5sliceSBZ_11sort_by_keyB10_NCNvMs_NtCsfwdNdOnv07X_9addr2line4unitINtB3d_8ResUnitsINtNtNtB14_4read12endian_slice11EndianSliceNtNtB14_9endianity12LittleEndianEE5parse0E0INtNtB2l_3vec3VecBZ_EECs3bNtqN8jaZB_3std
_RINvNtNtNtCsfQL5qMWGko6_4core5slice4sort6stable14driftsort_mainNtNtCsfwdNdOnv07X_9addr2line4unit9UnitRangeNCINvMNtCs78A21jy8lRn_5alloc5sliceSBZ_11sort_by_keyyNCNvMs_B11_INtB11_8ResUnitsINtNtNtCsktQxXQGZjIy_5gimli4read12endian_slice11EndianSliceNtNtB34_9endianity12LittleEndianEE5parses2_0E0INtNtB1O_3vec3VecBZ_EECs3bNtqN8jaZB_3std
_RNvMs0_NtCs78A21jy8lRn_5alloc7raw_vecINtB5_6RawVecINtNtCsfwdNdOnv07X_9addr2line4unit7ResUnitINtNtNtCsktQxXQGZjIy_5gimli4read12endian_slice11EndianSliceNtNtB1z_9endianity12LittleEndianEEE8grow_oneCs3bNtqN8jaZB_3std
_RINvNtCsfQL5qMWGko6_4core3ptr13drop_in_placeINtNtCs78A21jy8lRn_5alloc3vec3VecINtNtCsfwdNdOnv07X_9addr2line4unit7ResUnitINtNtNtCsktQxXQGZjIy_5gimli4read12endian_slice11EndianSliceNtNtB20_9endianity12LittleEndianEEEECs3bNtqN8jaZB_3std
_RINvNtCsfQL5qMWGko6_4core3ptr13drop_in_placeINtNtCs78A21jy8lRn_5alloc3vec3VecINtNtCsfwdNdOnv07X_9addr2line4unit7SupUnitINtNtNtCsktQxXQGZjIy_5gimli4read12endian_slice11EndianSliceNtNtB20_9endianity12LittleEndianEEEECs3bNtqN8jaZB_3std
_RNvMs0_NtCs78A21jy8lRn_5alloc7raw_vecINtB5_6RawVecINtNtCsfwdNdOnv07X_9addr2line4unit7SupUnitINtNtNtCsktQxXQGZjIy_5gimli4read12endian_slice11EndianSliceNtNtB1z_9endianity12LittleEndianEEE8grow_oneCs3bNtqN8jaZB_3std
_RNvMs8_NtNtCsktQxXQGZjIy_5gimli4read5indexINtB5_9UnitIndexINtNtB7_12endian_slice11EndianSliceNtNtB9_9endianity12LittleEndianEE5parseCs3bNtqN8jaZB_3std
_RINvNtCsfQL5qMWGko6_4core3ptr13drop_in_placeINtCsfwdNdOnv07X_9addr2line7ContextINtNtNtCsktQxXQGZjIy_5gimli4read12endian_slice11EndianSliceNtNtB1m_9endianity12LittleEndianEEECs3bNtqN8jaZB_3std
_RINvNtNtNtNtCsfQL5qMWGko6_4core5slice4sort6stable5drift4sortNtNtCsfwdNdOnv07X_9addr2line4unit9UnitRangeNCINvMNtCs78A21jy8lRn_5alloc5sliceSBW_11sort_by_keyyNCNvMs_BY_INtBY_8ResUnitsINtNtNtCsktQxXQGZjIy_5gimli4read12endian_slice11EndianSliceNtNtB2Z_9endianity12LittleEndianEE5parses2_0E0ECs3bNtqN8jaZB_3std
_RINvNtNtNtNtCsfQL5qMWGko6_4core5slice4sort6stable9quicksort9quicksortNtNtCsfwdNdOnv07X_9addr2line4unit9UnitRangeNCINvMNtCs78A21jy8lRn_5alloc5sliceSB15_11sort_by_keyyNCNvMs_B17_INtB17_8ResUnitsINtNtNtCsktQxXQGZjIy_5gimli4read12endian_slice11EndianSliceNtNtB3b_9endianity12LittleEndianEE5parses2_0E0ECs3bNtqN8jaZB_3std
_RINvNtNtNtNtCsfQL5qMWGko6_4core5slice4sort6shared5pivot11median3_recNtNtCsfwdNdOnv07X_9addr2line4unit9UnitRangeNCINvMNtCs78A21jy8lRn_5alloc5sliceSB14_11sort_by_keyyNCNvMs_B16_INtB16_8ResUnitsINtNtNtCsktQxXQGZjIy_5gimli4read12endian_slice11EndianSliceNtNtB3a_9endianity12LittleEndianEE5parses2_0E0ECs3bNtqN8jaZB_3std
_RINvNtNtNtNtCsfQL5qMWGko6_4core5slice4sort6stable5drift4sortTNtNtCsktQxXQGZjIy_5gimli6common15DebugInfoOffsetNtBZ_18DebugArangesOffsetENCINvMNtCs78A21jy8lRn_5alloc5sliceSBW_11sort_by_keyBX_NCNvMs_NtCsfwdNdOnv07X_9addr2line4unitINtB38_8ResUnitsINtNtNtB11_4read12endian_slice11EndianSliceNtNtB11_9endianity12LittleEndianEE5parse0E0ECs3bNtqN8jaZB_3std
_RINvNtNtNtNtCsfQL5qMWGko6_4core5slice4sort6stable9quicksort9quicksortTNtNtCsktQxXQGZjIy_5gimli6common15DebugInfoOffsetNtB18_18DebugArangesOffsetENCINvMNtCs78A21jy8lRn_5alloc5sliceSB15_11sort_by_keyB16_NCNvMs_NtCsfwdNdOnv07X_9addr2line4unitINtB3k_8ResUnitsINtNtNtB1a_4read12endian_slice11EndianSliceNtNtB1a_9endianity12LittleEndianEE5parse0E0ECs3bNtqN8jaZB_3std
_RINvNtNtNtNtCsfQL5qMWGko6_4core5slice4sort6shared9smallsort12sort8_stableTNtNtCsktQxXQGZjIy_5gimli6common15DebugInfoOffsetNtB1c_18DebugArangesOffsetENCINvMNtCs78A21jy8lRn_5alloc5sliceSB19_11sort_by_keyB1a_NCNvMs_NtCsfwdNdOnv07X_9addr2line4unitINtB3o_8ResUnitsINtNtNtB1e_4read12endian_slice11EndianSliceNtNtB1e_9endianity12LittleEndianEE5parse0E0ECs3bNtqN8jaZB_3std
_RINvNtNtNtNtCsfQL5qMWGko6_4core5slice4sort6shared5pivot11median3_recTNtNtCsktQxXQGZjIy_5gimli6common15DebugInfoOffsetNtB17_18DebugArangesOffsetENCINvMNtCs78A21jy8lRn_5alloc5sliceSB14_11sort_by_keyB15_NCNvMs_NtCsfwdNdOnv07X_9addr2line4unitINtB3j_8ResUnitsINtNtNtB19_4read12endian_slice11EndianSliceNtNtB19_9endianity12LittleEndianEE5parse0E0ECs3bNtqN8jaZB_3std
_RNvXs1g_NtCsfQL5qMWGko6_4core3fmtRNtNtNtCs3bNtqN8jaZB_3std3ffi6os_str5OsStrNtB6_5Debug3fmtBC_
_RNvNvMs7_NtNtNtCs3bNtqN8jaZB_3std3sys6os_str5bytesNtB7_5Slice21check_public_boundary9slow_path
_RNvXs2a_NtCs3bNtqN8jaZB_3std4pathNtB6_16StripPrefixErrorNtNtCsfQL5qMWGko6_4core3fmt5Debug3fmt
_RNvXsi_NtCs3bNtqN8jaZB_3std4pathNtB5_10ComponentsNtNtNtNtCsfQL5qMWGko6_4core4iter6traits8iterator8Iterator4next
_RNvXs1Y_NtCs3bNtqN8jaZB_3std4pathNtB6_9ComponentNtNtCsfQL5qMWGko6_4core3cmp9PartialEq2eq
_RNvNtNtCs3bNtqN8jaZB_3std3sys2fs8metadata
_RNvNtNtNtCs3bNtqN8jaZB_3std3sys2fs4unix9try_statx
_RINvNtNtNtNtCs3bNtqN8jaZB_3std3sys3pal6common14small_c_string24run_with_cstr_allocatingNtNtNtB8_2fs4unix8FileAttrEBa_
_RNvMs8_NtCs3bNtqN8jaZB_3std4pathNtB5_10Components25parse_next_component_back
_RINvNtNtNtCsfQL5qMWGko6_4core5slice4sort8unstable7ipnsortNtNtNtNtNtCs3bNtqN8jaZB_3std12backtrace_rs9symbolize5gimli3elf9ParsedSymNCINvMB6_SBT_20sort_unstable_by_keyyNCNvMs_BV_NtBV_6Object5parses1_0E0EB13_
_RINvNtNtNtNtCsfQL5qMWGko6_4core5slice4sort8unstable9quicksort9quicksortNtNtNtNtNtCs3bNtqN8jaZB_3std12backtrace_rs9symbolize5gimli3elf9ParsedSymNCINvMB8_SB17_20sort_unstable_by_keyyNCNvMs_B19_NtB19_6Object5parses1_0E0EB1h_
_RINvNtNtNtNtCsfQL5qMWGko6_4core5slice4sort8unstable8heapsort8heapsortNtNtNtNtNtCs3bNtqN8jaZB_3std12backtrace_rs9symbolize5gimli3elf9ParsedSymNCINvMB8_SB15_20sort_unstable_by_keyyNCNvMs_B17_NtB17_6Object5parses1_0E0EB1f_
_RINvNtNtNtNtCsfQL5qMWGko6_4core5slice4sort6shared5pivot11median3_recNtNtNtNtNtCs3bNtqN8jaZB_3std12backtrace_rs9symbolize5gimli3elf9ParsedSymNCINvMB8_SB14_20sort_unstable_by_keyyNCNvMs_B16_NtB16_6Object5parses1_0E0EB1e_
_RINvNtNtNtNtCs3bNtqN8jaZB_3std3sys3pal6common14small_c_string24run_with_cstr_allocatingNtNtNtB8_2fs4unix4FileEBa_
_RNvNtCs3bNtqN8jaZB_3std3env11current_exe
_RNvMs0_NtCs78A21jy8lRn_5alloc7raw_vecINtB5_6RawVecNtNtNtNtCs3bNtqN8jaZB_3std12backtrace_rs9symbolize5gimli7LibraryE8grow_oneBU_
_RINvNtCsfQL5qMWGko6_4core3ptr13drop_in_placeNtNtNtNtCs3bNtqN8jaZB_3std12backtrace_rs9symbolize5gimli7LibraryEBO_
_RINvMNtCsfQL5qMWGko6_4core3stre18trim_start_matchesNvMNtNtB5_4char7methodsc13is_whitespaceECs3bNtqN8jaZB_3std
_RINvNtNtCsfQL5qMWGko6_4core3str11validations15next_code_pointINtNtNtB6_5slice4iter4IterhEECs3bNtqN8jaZB_3std
_RNvMsv_NtCsfQL5qMWGko6_4core3numj16from_ascii_radix
_RINvNvNtCs3bNtqN8jaZB_3std2io19default_read_to_end16small_probe_readRNtNtB6_2fs4FileEB6_
_RINvMs5_NtNtCs3bNtqN8jaZB_3std2io5errorNtB6_5Error3newReEBa_
_RINvNtCsfQL5qMWGko6_4core3ptr13drop_in_placeNtNtNtCs3bNtqN8jaZB_3std2io5error6CustomEBM_
_RINvNtCsfQL5qMWGko6_4core3ptr13drop_in_placeNtNvXsf_NtNtCs78A21jy8lRn_5alloc5boxed7convertINtBQ_3BoxDNtNtB4_5error5ErrorNtNtB4_6marker4SyncNtB1W_4SendEL_EINtNtB4_7convert4FromNtNtBS_6string6StringE4from11StringErrorECs3bNtqN8jaZB_3std
_RNvYNtNvXsf_NtNtCs78A21jy8lRn_5alloc5boxed7convertINtBc_3BoxDNtNtCsfQL5qMWGko6_4core5error5ErrorNtNtB11_6marker4SyncNtB1y_4SendEL_EINtNtB11_7convert4FromNtNtBe_6string6StringE4from11StringErrorBX_7type_idCs3bNtqN8jaZB_3std
_RNvYNtNvXsf_NtNtCs78A21jy8lRn_5alloc5boxed7convertINtBc_3BoxDNtNtCsfQL5qMWGko6_4core5error5ErrorNtNtB11_6marker4SyncNtB1y_4SendEL_EINtNtB11_7convert4FromNtNtBe_6string6StringE4from11StringErrorBX_11descriptionCs3bNtqN8jaZB_3std
_RNvYNtNvXsf_NtNtCs78A21jy8lRn_5alloc5boxed7convertINtBc_3BoxDNtNtCsfQL5qMWGko6_4core5error5ErrorNtNtB11_6marker4SyncNtB1y_4SendEL_EINtNtB11_7convert4FromNtNtBe_6string6StringE4from11StringErrorBX_5causeCs3bNtqN8jaZB_3std
_RNvYNtNvXsf_NtNtCs78A21jy8lRn_5alloc5boxed7convertINtBc_3BoxDNtNtCsfQL5qMWGko6_4core5error5ErrorNtNtB11_6marker4SyncNtB1y_4SendEL_EINtNtB11_7convert4FromNtNtBe_6string6StringE4from11StringErrorBX_7provideCs3bNtqN8jaZB_3std
_RNCNCNvNtNtCs3bNtqN8jaZB_3std3sys9backtrace10__print_fmts_00B9_
_RNvMs_NtNtCs3bNtqN8jaZB_3std12backtrace_rs9symbolizeNtB4_6Symbol4name
_RNvXst_NtNtCsfQL5qMWGko6_4core3str7patternReNtB5_7Pattern15is_contained_in
_RNCNvNtNtCsfQL5qMWGko6_4core3str7pattern13simd_containss0_0Cs3bNtqN8jaZB_3std
_RINvNtCsfQL5qMWGko6_4core3ptr13drop_in_placeNCNvNtNtCs3bNtqN8jaZB_3std3sys9backtrace10__print_fmt0EBO_
_RNSNvYNCNvNtNtCs3bNtqN8jaZB_3std3sys9backtrace10__print_fmt0INtNtNtCsfQL5qMWGko6_4core3ops8function6FnOnceTQNtNtB13_3fmt9FormatterNtNtNtBc_12backtrace_rs5types17BytesOrWideStringEE9call_once6vtableBc_
_RNCNvNtNtCs3bNtqN8jaZB_3std3sys9backtrace10__print_fmt0B7_
_RNvNtNtCs3bNtqN8jaZB_3std3sys9backtrace15output_filename
_RINvNtCsfQL5qMWGko6_4core3ptr13drop_in_placeINtNvNtCs3bNtqN8jaZB_3std2io17default_write_fmt7AdapterINtNtBL_6cursor6CursorQShEEEBN_
_RNvXNvNtCs3bNtqN8jaZB_3std2io17default_write_fmtINtB2_7AdapterINtNtB4_6cursor6CursorQShEENtNtCsfQL5qMWGko6_4core3fmt5Write9write_strB6_
_RNvYINtNvNtCs3bNtqN8jaZB_3std2io17default_write_fmt7AdapterINtNtB7_6cursor6CursorQShEENtNtCsfQL5qMWGko6_4core3fmt5Write10write_charB9_
_RNvYINtNvNtCs3bNtqN8jaZB_3std2io17default_write_fmt7AdapterINtNtB7_6cursor6CursorQShEENtNtCsfQL5qMWGko6_4core3fmt5Write9write_fmtB9_
_RNvYNtNtNtNtCs3bNtqN8jaZB_3std3sys5stdio4unix6StderrNtNtBa_2io5Write9write_allBa_
_RNvMNtNtNtNtCs3bNtqN8jaZB_3std3sys4sync6rwlock5futexNtB2_6RwLock22wake_writer_or_readers
_RNvNtNtNtCs3bNtqN8jaZB_3std3sys3pal4unix14abort_internal
_RNvXNvNtCs3bNtqN8jaZB_3std2io17default_write_fmtINtB2_7AdapterNtNtNtNtB6_3sys5stdio4unix6StderrENtNtCsfQL5qMWGko6_4core3fmt5Write9write_strB6_
_RNvYINtNvNtCs3bNtqN8jaZB_3std2io17default_write_fmt7AdapterNtNtNtNtB9_3sys5stdio4unix6StderrENtNtCsfQL5qMWGko6_4core3fmt5Write10write_charB9_
_RNvYINtNvNtCs3bNtqN8jaZB_3std2io17default_write_fmt7AdapterNtNtNtNtB9_3sys5stdio4unix6StderrENtNtCsfQL5qMWGko6_4core3fmt5Write9write_fmtB9_
_RNvYINtNvNtCs3bNtqN8jaZB_3std9panicking11begin_panic7PayloadReENtNtCsfQL5qMWGko6_4core5panic12PanicPayload6as_strB9_
_RNvXNtCsfQL5qMWGko6_4core3anyReNtB2_3Any7type_idCs3bNtqN8jaZB_3std
_RNSNvYNCNvNtNtNtCs3bNtqN8jaZB_3std3sys11personality3gcc14find_eh_action0INtNtNtCsfQL5qMWGko6_4core3ops8function6FnOnceuE9call_once6vtableBe_
_RNCNvNtNtNtCs3bNtqN8jaZB_3std3sys11personality3gcc14find_eh_action0B9_
_RNSNvYNCNvNtNtNtCs3bNtqN8jaZB_3std3sys11personality3gcc14find_eh_actions_0INtNtNtCsfQL5qMWGko6_4core3ops8function6FnOnceuE9call_once6vtableBe_
_RNCNvNtNtNtCs3bNtqN8jaZB_3std3sys11personality3gcc14find_eh_actions_0B9_
_RNvNvNtNtNtNtCs3bNtqN8jaZB_3std3sys4args4unix3imp15ARGV_INIT_ARRAY12init_wrapper
_RINvNtCsfQL5qMWGko6_4core9panicking13assert_failedllECs3bNtqN8jaZB_3std
_RNvXs1g_NtCsfQL5qMWGko6_4core3fmtRlNtB6_5Debug3fmtCs3bNtqN8jaZB_3std
_RINvNtNtCs3bNtqN8jaZB_3std3sys9backtrace26___rust_end_short_backtraceNCNvNtB6_5alloc8rust_oom0zEB6_
_RNCNvNtCs3bNtqN8jaZB_3std5alloc8rust_oom0B5_
_RNvNtCs3bNtqN8jaZB_3std5alloc24default_alloc_error_hook
_RINvNtNtCs3bNtqN8jaZB_3std3sys9backtrace26___rust_end_short_backtraceNCNvNtB6_9panicking13panic_handler0zEB6_
_RNCNvNtCs3bNtqN8jaZB_3std9panicking13panic_handler0B5_
_RNvXs0_NvNtCs3bNtqN8jaZB_3std9panicking13panic_handlerNtB5_19FormatStringPayloadNtNtCsfQL5qMWGko6_4core3fmt7Display3fmt
_RNvXs_NvNtCs3bNtqN8jaZB_3std9panicking13panic_handlerNtB4_19FormatStringPayloadNtNtCsfQL5qMWGko6_4core5panic12PanicPayload8take_box
_RNvXs_NvNtCs3bNtqN8jaZB_3std9panicking13panic_handlerNtB4_19FormatStringPayloadNtNtCsfQL5qMWGko6_4core5panic12PanicPayload3get
_RNvMNvNtCs3bNtqN8jaZB_3std9panicking13panic_handlerNtB2_19FormatStringPayload4fill
_RINvNtCsfQL5qMWGko6_4core3ptr13drop_in_placeNtNtCs78A21jy8lRn_5alloc6string6StringECs3bNtqN8jaZB_3std
_RNvXNtCsfQL5qMWGko6_4core3anyNtNtCs78A21jy8lRn_5alloc6string6StringNtB2_3Any7type_idCs3bNtqN8jaZB_3std
_RNvXsW_NtCs78A21jy8lRn_5alloc6stringNtB5_6StringNtNtCsfQL5qMWGko6_4core3fmt5Write9write_str.66
_RNvXsW_NtCs78A21jy8lRn_5alloc6stringNtB5_6StringNtNtCsfQL5qMWGko6_4core3fmt5Write10write_char.67
_RNvYNtNtCs78A21jy8lRn_5alloc6string6StringNtNtCsfQL5qMWGko6_4core3fmt5Write9write_fmtCs3bNtqN8jaZB_3std
_RNvXs2_NvNtCs3bNtqN8jaZB_3std9panicking13panic_handlerNtB5_16StaticStrPayloadNtNtCsfQL5qMWGko6_4core3fmt7Display3fmt
_RNvXs1_NvNtCs3bNtqN8jaZB_3std9panicking13panic_handlerNtB5_16StaticStrPayloadNtNtCsfQL5qMWGko6_4core5panic12PanicPayload8take_box
_RNvXs1_NvNtCs3bNtqN8jaZB_3std9panicking13panic_handlerNtB5_16StaticStrPayloadNtNtCsfQL5qMWGko6_4core5panic12PanicPayload3get
_RNvXs1_NvNtCs3bNtqN8jaZB_3std9panicking13panic_handlerNtB5_16StaticStrPayloadNtNtCsfQL5qMWGko6_4core5panic12PanicPayload6as_str
_RNvCsL6e0J8m5bd_7___rustc17___rust_drop_panic
_RNvCsL6e0J8m5bd_7___rustc17rust_begin_unwind
_RNvCsL6e0J8m5bd_7___rustc24___rust_foreign_exception
_RNvCsL6e0J8m5bd_7___rustc26___rust_alloc_error_handler
_RNvNtCs3bNtqN8jaZB_3std5alloc8rust_oom
_RNvNvMNtNtCs3bNtqN8jaZB_3std6thread2idNtB4_8ThreadId3new9exhausted
_RNvNtNtNtNtNtCs3bNtqN8jaZB_3std3sys3pal4unix14stack_overflow3imp12make_handler
_RINvNtCsfQL5qMWGko6_4core3ptr13drop_in_placeINtNtB4_6result6ResultINtNtNtNtCs3bNtqN8jaZB_3std4sync6poison5mutex10MutexGuarduEINtB17_11PoisonErrorB12_EEEB1b_
_RINvMs_NtNtNtCs78A21jy8lRn_5alloc11collections5btree6removeINtNtB7_4node6HandleINtBY_7NodeRefNtNtBY_6marker3MutjNtNtNtNtNtNtCs3bNtqN8jaZB_3std3sys3pal4unix14stack_overflow11thread_info10ThreadInfoNtB1v_4LeafENtB1v_2KVE14remove_leaf_kvNCNvMs7_NtNtB7_3map5entryINtB3S_13OccupiedEntryjB1M_E9remove_kv0NtNtBb_5alloc6GlobalEB1Y_
_RNvMs10_NtNtNtCs78A21jy8lRn_5alloc11collections5btree4nodeINtB6_16BalancingContextjNtNtNtNtNtNtCs3bNtqN8jaZB_3std3sys3pal4unix14stack_overflow11thread_info10ThreadInfoE15bulk_steal_leftB1v_
_RINvMs10_NtNtNtCs78A21jy8lRn_5alloc11collections5btree4nodeINtB7_16BalancingContextjNtNtNtNtNtNtCs3bNtqN8jaZB_3std3sys3pal4unix14stack_overflow11thread_info10ThreadInfoE8do_mergeNCINvB2_20merge_tracking_childNtNtBd_5alloc6GlobalE0INtB7_7NodeRefNtNtB7_6marker3MutjB1k_NtB3W_14LeafOrInternalEB3k_EB1w_
_RNvMs10_NtNtNtCs78A21jy8lRn_5alloc11collections5btree4nodeINtB6_16BalancingContextjNtNtNtNtNtNtCs3bNtqN8jaZB_3std3sys3pal4unix14stack_overflow11thread_info10ThreadInfoE16bulk_steal_rightB1v_
_RNvNtNtNtNtNtCs3bNtqN8jaZB_3std3sys3pal4unix14stack_overflow11thread_info16set_current_info
_RNvXs7_NtNtCs3bNtqN8jaZB_3std2io5errorNtB5_5ErrorNtNtCsfQL5qMWGko6_4core3fmt7Display3fmt
_RNvXsn_NtCs78A21jy8lRn_5alloc6stringNtB5_6StringNtNtCsfQL5qMWGko6_4core3fmt7Display3fmt
_RNvMs0_NtNtNtNtCs3bNtqN8jaZB_3std3sys4sync4once5futexNtB5_4Once4call
_RNSNvYNCINvMs0_NtNtCs3bNtqN8jaZB_3std4sync4onceNtBd_4Once9call_onceNCNvNtBh_2rt7cleanup0E0INtNtNtCsfQL5qMWGko6_4core3ops8function6FnOnceTRNtBd_9OnceStateEE9call_once6vtableBh_
_RNCINvMs0_NtNtCs3bNtqN8jaZB_3std4sync4onceNtB8_4Once9call_onceNCNvNtBc_2rt7cleanup0E0Bc_
_RINvMNtNtCs3bNtqN8jaZB_3std4sync9once_lockINtB3_8OnceLockINtNtB5_14reentrant_lock13ReentrantLockINtNtCsfQL5qMWGko6_4core4cell7RefCellINtNtNtNtB7_2io8buffered10linewriter10LineWriterNtNtB2e_5stdio9StdoutRawEEEE10initializeNCINvB2_11get_or_initNCNvB2V_7cleanup0E0zEB7_
_RINvNtCsfQL5qMWGko6_4core3ptr13drop_in_placeINtNtNtCs3bNtqN8jaZB_3std4sync14reentrant_lock18ReentrantLockGuardINtNtB4_4cell7RefCellINtNtNtNtBN_2io8buffered10linewriter10LineWriterNtNtB2c_5stdio9StdoutRawEEEEBN_
_RINvNtCsfQL5qMWGko6_4core3ptr13drop_in_placeINtNtNtNtCs3bNtqN8jaZB_3std2io8buffered10linewriter10LineWriterNtNtBN_5stdio9StdoutRawEEBP_
_RINvNtCsfQL5qMWGko6_4core3ptr13drop_in_placeNtNvMs_NtNtNtCs3bNtqN8jaZB_3std2io8buffered9bufwriterINtBN_9BufWriterpE9flush_buf8BufGuardEBT_
_RNSNvYNCINvMs0_NtNtCs3bNtqN8jaZB_3std4sync4onceNtBd_4Once15call_once_forceNCINvMNtBf_9once_lockINtB1g_8OnceLockINtNtBf_14reentrant_lock13ReentrantLockINtNtCsfQL5qMWGko6_4core4cell7RefCellINtNtNtNtBh_2io8buffered10linewriter10LineWriterNtNtB36_5stdio9StdoutRawEEEE10initializeNCINvB1f_11get_or_initNCNvB3N_7cleanup0E0zE0E0INtNtNtB2t_3ops8function6FnOnceTRNtBd_9OnceStateEE9call_once6vtableBh_
_RNCINvMs0_NtNtCs3bNtqN8jaZB_3std4sync4onceNtB8_4Once15call_once_forceNCINvMNtBa_9once_lockINtB1b_8OnceLockINtNtBa_14reentrant_lock13ReentrantLockINtNtCsfQL5qMWGko6_4core4cell7RefCellINtNtNtNtBc_2io8buffered10linewriter10LineWriterNtNtB31_5stdio9StdoutRawEEEE10initializeNCINvB1a_11get_or_initNCNvB3I_7cleanup0E0zE0E0Bc_
_RNvNtNtNtNtNtCs3bNtqN8jaZB_3std3sys3pal4unix14stack_overflow3imp14signal_handler
_RNCNCNCNvNtCs3bNtqN8jaZB_3std2rt19lang_start_internal00s_0B9_
_RINvNtCs3bNtqN8jaZB_3std2rt15handle_rt_paniciEB4_
_init
_fini
_RNvNtNtNtNtCs3bNtqN8jaZB_3std3sys4args4unix3imp15ARGV_INIT_ARRAY
_DYNAMIC
__dso_handle
__TMC_END__
_RNvNvNtNtNtCslQCDUggHFaK_6memchr4arch6x86_646memchr10memchr_raw2FN
_RNvNCNvNtCs3bNtqN8jaZB_3std9panicking12default_hook011FIRST_PANIC
_RNvNtNtCs3bNtqN8jaZB_3std2io5stdio6STDOUT
_RNvNvMs0_NtNtNtCs3bNtqN8jaZB_3std12backtrace_rs9symbolize5gimliNtB7_5Cache11with_global14MAPPINGS_CACHE
_RNvNvNtCs3bNtqN8jaZB_3std2rt7cleanup7CLEANUP
DW.ref.rust_eh_personality
_RNvNtCs3bNtqN8jaZB_3std5panic14SHOULD_CAPTURE
_RNvNtCs3bNtqN8jaZB_3std9panicking4HOOK
_RNvNtNtCs3bNtqN8jaZB_3std6thread11main_thread4MAIN.0
_RNvNtNtCs3bNtqN8jaZB_3std9panicking11panic_count18GLOBAL_PANIC_COUNT
_RNvNtNtNtCs3bNtqN8jaZB_3std3sys3env4unix8ENV_LOCK
_RNvNtNtNtNtCs3bNtqN8jaZB_3std3sys4args4unix3imp4ARGV.0
_RNvNtNtNtNtNtCs3bNtqN8jaZB_3std3sys3pal4unix14stack_overflow11thread_info11THREAD_INFO.0
_RNvNtNtNtNtNtCs3bNtqN8jaZB_3std3sys3pal4unix14stack_overflow11thread_info11THREAD_INFO.1
_RNvNtNtNtNtNtCs3bNtqN8jaZB_3std3sys3pal4unix14stack_overflow11thread_info11THREAD_INFO.2
_RNvNtNtNtNtNtCs3bNtqN8jaZB_3std3sys3pal4unix14stack_overflow11thread_info4LOCK
_RNvNtNtNtNtNtCs3bNtqN8jaZB_3std3sys3pal4unix14stack_overflow11thread_info9SPIN_LOCK
_RNvNtNtNtNtNtCs3bNtqN8jaZB_3std3sys3pal4unix14stack_overflow3imp13MAIN_ALTSTACK.0
_RNvNtNtNtNtNtCs3bNtqN8jaZB_3std3sys3pal4unix14stack_overflow3imp13NEED_ALTSTACK.0
_RNvNtNtNtNtNtCs3bNtqN8jaZB_3std3sys3pal4unix14stack_overflow3imp9PAGE_SIZE.0
_RNvNvMNtNtCs3bNtqN8jaZB_3std6thread2idNtB4_8ThreadId3new7COUNTER
_RNvNvNtCs3bNtqN8jaZB_3std5alloc24default_alloc_error_hook18PREV_ALLOC_FAILURE
_RNvNvNtNtCs3bNtqN8jaZB_3std3sys10exit_guard18unique_thread_exit17EXITING_THREAD_ID
_RNvNvNtNtCs3bNtqN8jaZB_3std3sys9backtrace4lock4LOCK
_RNvNvNtNtNtCs3bNtqN8jaZB_3std3sys2fs4unix9try_statx17STATX_SAVED_STATE.0
_RNvNvNtNtNtNtCs3bNtqN8jaZB_3std12backtrace_rs9symbolize5gimli3elf17debug_path_exists17DEBUG_PATH_EXISTS.0
