	.section	.text._RINvNtCsfQL5qMWGko6_4core3ptr13drop_in_placeINtNtB4_6option6OptionINtNtNtCsktQxXQGZjIy_5gimli4read4line21IncompleteLineProgramINtNtB17_12endian_slice11EndianSliceNtNtB19_9endianity12LittleEndianEjEEECs3bNtqN8jaZB_3std,"ax",@progbits
	.p2align	4                               # -- Begin function _RINvNtCsfQL5qMWGko6_4core3ptr13drop_in_placeINtNtB4_6option6OptionINtNtNtCsktQxXQGZjIy_5gimli4read4line21IncompleteLineProgramINtNtB17_12endian_slice11EndianSliceNtNtB19_9endianity12LittleEndianEjEEECs3bNtqN8jaZB_3std
	.type	_RINvNtCsfQL5qMWGko6_4core3ptr13drop_in_placeINtNtB4_6option6OptionINtNtNtCsktQxXQGZjIy_5gimli4read4line21IncompleteLineProgramINtNtB17_12endian_slice11EndianSliceNtNtB19_9endianity12LittleEndianEjEEECs3bNtqN8jaZB_3std,@function
_RINvNtCsfQL5qMWGko6_4core3ptr13drop_in_placeINtNtB4_6option6OptionINtNtNtCsktQxXQGZjIy_5gimli4read4line21IncompleteLineProgramINtNtB17_12endian_slice11EndianSliceNtNtB19_9endianity12LittleEndianEjEEECs3bNtqN8jaZB_3std: # @_RINvNtCsfQL5qMWGko6_4core3ptr13drop_in_placeINtNtB4_6option6OptionINtNtNtCsktQxXQGZjIy_5gimli4read4line21IncompleteLineProgramINtNtB17_12endian_slice11EndianSliceNtNtB19_9endianity12LittleEndianEjEEECs3bNtqN8jaZB_3std
	.cfi_startproc
# %bb.0:
	push	rbx
	.cfi_def_cfa_offset 16
	.cfi_offset rbx, -16
	cmp	dword ptr [rdi], 47
	je	.LBB167_8
# %bb.1:
	mov	rbx, rdi
	cmp	qword ptr [rdi + 88], 0
	je	.LBB167_3
# %bb.2:
	mov	rdi, qword ptr [rbx + 96]
	call	qword ptr [rip + free@GOTPCREL]
.LBB167_3:
	cmp	qword ptr [rbx + 112], 0
	je	.LBB167_5
# %bb.4:
	mov	rdi, qword ptr [rbx + 120]
	call	qword ptr [rip + free@GOTPCREL]
.LBB167_5:
	cmp	qword ptr [rbx + 136], 0
	je	.LBB167_7
# %bb.6:
	mov	rdi, qword ptr [rbx + 144]
	call	qword ptr [rip + free@GOTPCREL]
.LBB167_7:
	cmp	qword ptr [rbx + 160], 0
	je	.LBB167_8
# %bb.9:
	mov	rdi, qword ptr [rbx + 168]
	pop	rbx
	.cfi_def_cfa_offset 8
	jmp	qword ptr [rip + free@GOTPCREL] # TAILCALL
.LBB167_8:
	.cfi_def_cfa_offset 16
	pop	rbx
	.cfi_def_cfa_offset 8
	ret
.Lfunc_end167:
	.size	_RINvNtCsfQL5qMWGko6_4core3ptr13drop_in_placeINtNtB4_6option6OptionINtNtNtCsktQxXQGZjIy_5gimli4read4line21IncompleteLineProgramINtNtB17_12endian_slice11EndianSliceNtNtB19_9endianity12LittleEndianEjEEECs3bNtqN8jaZB_3std, .Lfunc_end167-_RINvNtCsfQL5qMWGko6_4core3ptr13drop_in_placeINtNtB4_6option6OptionINtNtNtCsktQxXQGZjIy_5gimli4read4line21IncompleteLineProgramINtNtB17_12endian_slice11EndianSliceNtNtB19_9endianity12LittleEndianEjEEECs3bNtqN8jaZB_3std
	.cfi_endproc
                                        # -- End function
