	.section	.text._RINvNtNtNtNtCsfQL5qMWGko6_4core5slice4sort6shared5pivot11median3_recNtNtCsfwdNdOnv07X_9addr2line8function22InlinedFunctionAddressNCINvMNtCs78A21jy8lRn_5alloc5sliceSB14_7sort_byNCNvMs1_B16_INtB16_8FunctionINtNtNtCsktQxXQGZjIy_5gimli4read12endian_slice11EndianSliceNtNtB3n_9endianity12LittleEndianEE5parse0E0ECs3bNtqN8jaZB_3std,"ax",@progbits
	.p2align	4                               # -- Begin function _RINvNtNtNtNtCsfQL5qMWGko6_4core5slice4sort6shared5pivot11median3_recNtNtCsfwdNdOnv07X_9addr2line8function22InlinedFunctionAddressNCINvMNtCs78A21jy8lRn_5alloc5sliceSB14_7sort_byNCNvMs1_B16_INtB16_8FunctionINtNtNtCsktQxXQGZjIy_5gimli4read12endian_slice11EndianSliceNtNtB3n_9endianity12LittleEndianEE5parse0E0ECs3bNtqN8jaZB_3std
	.type	_RINvNtNtNtNtCsfQL5qMWGko6_4core5slice4sort6shared5pivot11median3_recNtNtCsfwdNdOnv07X_9addr2line8function22InlinedFunctionAddressNCINvMNtCs78A21jy8lRn_5alloc5sliceSB14_7sort_byNCNvMs1_B16_INtB16_8FunctionINtNtNtCsktQxXQGZjIy_5gimli4read12endian_slice11EndianSliceNtNtB3n_9endianity12LittleEndianEE5parse0E0ECs3bNtqN8jaZB_3std,@function
_RINvNtNtNtNtCsfQL5qMWGko6_4core5slice4sort6shared5pivot11median3_recNtNtCsfwdNdOnv07X_9addr2line8function22InlinedFunctionAddressNCINvMNtCs78A21jy8lRn_5alloc5sliceSB14_7sort_byNCNvMs1_B16_INtB16_8FunctionINtNtNtCsktQxXQGZjIy_5gimli4read12endian_slice11EndianSliceNtNtB3n_9endianity12LittleEndianEE5parse0E0ECs3bNtqN8jaZB_3std: # @_RINvNtNtNtNtCsfQL5qMWGko6_4core5slice4sort6shared5pivot11median3_recNtNtCsfwdNdOnv07X_9addr2line8function22InlinedFunctionAddressNCINvMNtCs78A21jy8lRn_5alloc5sliceSB14_7sort_byNCNvMs1_B16_INtB16_8FunctionINtNtNtCsktQxXQGZjIy_5gimli4read12endian_slice11EndianSliceNtNtB3n_9endianity12LittleEndianEE5parse0E0ECs3bNtqN8jaZB_3std
	.cfi_startproc
# %bb.0:
	push	rbp
	.cfi_def_cfa_offset 16
	push	r15
	.cfi_def_cfa_offset 24
	push	r14
	.cfi_def_cfa_offset 32
	push	r13
	.cfi_def_cfa_offset 40
	push	r12
	.cfi_def_cfa_offset 48
	push	rbx
	.cfi_def_cfa_offset 56
	push	rax
	.cfi_def_cfa_offset 64
	.cfi_offset rbx, -56
	.cfi_offset r12, -48
	.cfi_offset r13, -40
	.cfi_offset r14, -32
	.cfi_offset r15, -24
	.cfi_offset rbp, -16
	mov	rbx, rdx
	mov	r14, rsi
	cmp	rcx, 8
	jb	.LBB219_2
# %bb.1:
	shr	rcx, 3
	mov	r15, rcx
	shl	r15, 7
	lea	rsi, [rdi + r15]
	imul	r12, rcx, 224
	lea	rdx, [rdi + r12]
	mov	r13, rcx
	call	_RINvNtNtNtNtCsfQL5qMWGko6_4core5slice4sort6shared5pivot11median3_recNtNtCsfwdNdOnv07X_9addr2line8function22InlinedFunctionAddressNCINvMNtCs78A21jy8lRn_5alloc5sliceSB14_7sort_byNCNvMs1_B16_INtB16_8FunctionINtNtNtCsktQxXQGZjIy_5gimli4read12endian_slice11EndianSliceNtNtB3n_9endianity12LittleEndianEE5parse0E0ECs3bNtqN8jaZB_3std
	mov	rbp, rax
	lea	rsi, [r14 + r15]
	lea	rdx, [r14 + r12]
	mov	rdi, r14
	mov	rcx, r13
	call	_RINvNtNtNtNtCsfQL5qMWGko6_4core5slice4sort6shared5pivot11median3_recNtNtCsfwdNdOnv07X_9addr2line8function22InlinedFunctionAddressNCINvMNtCs78A21jy8lRn_5alloc5sliceSB14_7sort_byNCNvMs1_B16_INtB16_8FunctionINtNtNtCsktQxXQGZjIy_5gimli4read12endian_slice11EndianSliceNtNtB3n_9endianity12LittleEndianEE5parse0E0ECs3bNtqN8jaZB_3std
	mov	r14, rax
	add	r15, rbx
	add	r12, rbx
	mov	rdi, rbx
	mov	rsi, r15
	mov	rdx, r12
	mov	rcx, r13
	call	_RINvNtNtNtNtCsfQL5qMWGko6_4core5slice4sort6shared5pivot11median3_recNtNtCsfwdNdOnv07X_9addr2line8function22InlinedFunctionAddressNCINvMNtCs78A21jy8lRn_5alloc5sliceSB14_7sort_byNCNvMs1_B16_INtB16_8FunctionINtNtNtCsktQxXQGZjIy_5gimli4read12endian_slice11EndianSliceNtNtB3n_9endianity12LittleEndianEE5parse0E0ECs3bNtqN8jaZB_3std
	mov	rbx, rax
	mov	rdi, rbp
.LBB219_2:
	mov	r9, qword ptr [rdi]
	mov	r10, qword ptr [rdi + 16]
	mov	rax, qword ptr [r14]
	mov	rdx, qword ptr [r14 + 16]
	cmp	r10, rdx
	jae	.LBB219_3
# %bb.5:
	mov	rsi, qword ptr [rbx]
	mov	r8, qword ptr [rbx + 16]
	mov	cl, 1
	cmp	r10, r8
	jb	.LBB219_9
# %bb.6:
	ja	.LBB219_12
# %bb.7:
	cmp	r9, rsi
	jb	.LBB219_9
	jmp	.LBB219_12
.LBB219_3:
	setbe	sil
	cmp	r9, rax
	setb	cl
	and	cl, sil
	mov	rsi, qword ptr [rbx]
	mov	r8, qword ptr [rbx + 16]
	cmp	r10, r8
	jae	.LBB219_8
# %bb.4:
	test	cl, cl
	mov	cl, 1
	jne	.LBB219_9
	jmp	.LBB219_12
.LBB219_8:
	setbe	r10b
	cmp	r9, rsi
	setb	r9b
	and	r9b, r10b
	cmp	cl, r9b
	jne	.LBB219_12
.LBB219_9:
	mov	dil, 1
	cmp	rdx, r8
	jb	.LBB219_11
# %bb.10:
	setbe	dl
	cmp	rax, rsi
	setb	dil
	and	dil, dl
.LBB219_11:
	xor	cl, dil
	cmovne	r14, rbx
	mov	rdi, r14
.LBB219_12:
	mov	rax, rdi
	add	rsp, 8
	.cfi_def_cfa_offset 56
	pop	rbx
	.cfi_def_cfa_offset 48
	pop	r12
	.cfi_def_cfa_offset 40
	pop	r13
	.cfi_def_cfa_offset 32
	pop	r14
	.cfi_def_cfa_offset 24
	pop	r15
	.cfi_def_cfa_offset 16
	pop	rbp
	.cfi_def_cfa_offset 8
	ret
.Lfunc_end219:
	.size	_RINvNtNtNtNtCsfQL5qMWGko6_4core5slice4sort6shared5pivot11median3_recNtNtCsfwdNdOnv07X_9addr2line8function22InlinedFunctionAddressNCINvMNtCs78A21jy8lRn_5alloc5sliceSB14_7sort_byNCNvMs1_B16_INtB16_8FunctionINtNtNtCsktQxXQGZjIy_5gimli4read12endian_slice11EndianSliceNtNtB3n_9endianity12LittleEndianEE5parse0E0ECs3bNtqN8jaZB_3std, .Lfunc_end219-_RINvNtNtNtNtCsfQL5qMWGko6_4core5slice4sort6shared5pivot11median3_recNtNtCsfwdNdOnv07X_9addr2line8function22InlinedFunctionAddressNCINvMNtCs78A21jy8lRn_5alloc5sliceSB14_7sort_byNCNvMs1_B16_INtB16_8FunctionINtNtNtCsktQxXQGZjIy_5gimli4read12endian_slice11EndianSliceNtNtB3n_9endianity12LittleEndianEE5parse0E0ECs3bNtqN8jaZB_3std
	.cfi_endproc
                                        # -- End function
