	.section	.text._RNvMs4_NtCsbho2wNjk0G0_14rustc_demangle2v0NtB5_7Printer10print_path,"ax",@progbits
	.p2align	4                               # -- Begin function _RNvMs4_NtCsbho2wNjk0G0_14rustc_demangle2v0NtB5_7Printer10print_path
	.type	_RNvMs4_NtCsbho2wNjk0G0_14rustc_demangle2v0NtB5_7Printer10print_path,@function
_RNvMs4_NtCsbho2wNjk0G0_14rustc_demangle2v0NtB5_7Printer10print_path: # @_RNvMs4_NtCsbho2wNjk0G0_14rustc_demangle2v0NtB5_7Printer10print_path
	.cfi_startproc
# %bb.0:
	push	rbp
	.cfi_def_cfa_offset 16
	push	r15
	.cfi_def_cfa_offset 24
	push	r14
	.cfi_def_cfa_offset 32
	push	rbx
	.cfi_def_cfa_offset 40
	sub	rsp, 104
	.cfi_def_cfa_offset 144
	.cfi_offset rbx, -40
	.cfi_offset r14, -32
	.cfi_offset r15, -24
	.cfi_offset rbp, -16
	mov	rbx, rdi
	mov	rcx, qword ptr [rdi]
	test	rcx, rcx
	je	.LBB69_77
# %bb.1:
	mov	eax, dword ptr [rbx + 24]
	inc	eax
	mov	dword ptr [rbx + 24], eax
	cmp	eax, 500
	jbe	.LBB69_5
# %bb.2:
	mov	rdi, qword ptr [rbx + 32]
	test	rdi, rdi
	je	.LBB69_4
# %bb.3:
	lea	rsi, [rip + .Lanon.21307fd90ecd30149cef64ece95db940.1]
	mov	edx, 25
	call	_RNvMsa_NtCsfQL5qMWGko6_4core3fmtNtB5_9Formatter3pad
	mov	bpl, 1
	test	al, al
	jne	.LBB69_96
.LBB69_4:
	mov	qword ptr [rbx], 0
	mov	byte ptr [rbx + 8], 1
	jmp	.LBB69_95
.LBB69_5:
	mov	rdi, qword ptr [rbx + 8]
	mov	rax, qword ptr [rbx + 16]
	cmp	rax, rdi
	jae	.LBB69_62
# %bb.6:
	movzx	r15d, byte ptr [rcx + rax]
	lea	rdx, [rax + 1]
	mov	qword ptr [rbx + 16], rdx
	lea	r8d, [r15 - 66]
	cmp	r8d, 23
	ja	.LBB69_62
# %bb.7:
	lea	r9, [rip + .LJTI69_0]
	movsxd	r8, dword ptr [r9 + 4*r8]
	add	r8, r9
	jmp	r8
.LBB69_8:
	cmp	rdx, rdi
	jae	.LBB69_80
# %bb.9:
	cmp	byte ptr [rcx + rdx], 115
	jne	.LBB69_80
# %bb.10:
	lea	rsi, [rax + 2]
	mov	qword ptr [rbx + 16], rsi
	cmp	rsi, rdi
	jae	.LBB69_51
# %bb.11:
	cmp	byte ptr [rcx + rsi], 95
	jne	.LBB69_51
# %bb.12:
	add	rax, 3
	mov	qword ptr [rbx + 16], rax
	jmp	.LBB69_80
.LBB69_13:
	mov	ebp, esi
	mov	rdi, rbx
	call	_RNvMs2_NtCsbho2wNjk0G0_14rustc_demangle2v0NtB5_6Parser9namespace
	test	al, 1
	je	.LBB69_30
# %bb.14:
	mov	rdi, qword ptr [rbx + 32]
	and	rax, 256
	jne	.LBB69_65
# %bb.15:
	test	rdi, rdi
	je	.LBB69_68
# %bb.16:
	lea	rsi, [rip + .Lanon.21307fd90ecd30149cef64ece95db940.0]
	mov	edx, 16
	jmp	.LBB69_67
.LBB69_17:
	mov	rdi, rsp
	mov	rsi, rbx
	call	_RNvMs2_NtCsbho2wNjk0G0_14rustc_demangle2v0NtB5_6Parser13disambiguator
	cmp	byte ptr [rsp], 1
	jne	.LBB69_41
.LBB69_18:
	movzx	r14d, byte ptr [rsp + 1]
	mov	rdi, qword ptr [rbx + 32]
	test	r14b, r14b
	je	.LBB69_70
.LBB69_19:
	test	rdi, rdi
	je	.LBB69_73
# %bb.20:
	lea	rsi, [rip + .Lanon.21307fd90ecd30149cef64ece95db940.1]
	mov	edx, 25
	jmp	.LBB69_72
.LBB69_21:
	movzx	esi, sil
	mov	rdi, rbx
	call	_RINvMs4_NtCsbho2wNjk0G0_14rustc_demangle2v0NtB6_7Printer13print_backrefNCNvB2_10print_paths_0EB8_
	mov	bpl, 1
	jmp	.LBB69_92
.LBB69_22:
	mov	r14, qword ptr [rbx + 32]
	jmp	.LBB69_82
.LBB69_23:
	mov	r14d, esi
	movzx	esi, sil
	mov	rdi, rbx
	call	_RNvMs4_NtCsbho2wNjk0G0_14rustc_demangle2v0NtB5_7Printer10print_path
	mov	bpl, 1
	test	al, al
	jne	.LBB69_96
# %bb.24:
	test	r14b, r14b
	je	.LBB69_27
# %bb.25:
	mov	rdi, qword ptr [rbx + 32]
	test	rdi, rdi
	je	.LBB69_27
# %bb.26:
	lea	rsi, [rip + .Lanon.21307fd90ecd30149cef64ece95db940.51]
	mov	edx, 2
	call	_RNvMsa_NtCsfQL5qMWGko6_4core3fmtNtB5_9Formatter3pad
	test	al, al
	jne	.LBB69_96
.LBB69_27:
	mov	rdi, qword ptr [rbx + 32]
	test	rdi, rdi
	je	.LBB69_29
# %bb.28:
	lea	rsi, [rip + .Lanon.21307fd90ecd30149cef64ece95db940.57]
	mov	edx, 1
	call	_RNvMsa_NtCsfQL5qMWGko6_4core3fmtNtB5_9Formatter3pad
	test	al, al
	jne	.LBB69_96
.LBB69_29:
	mov	rdi, rbx
	call	_RINvMs4_NtCsbho2wNjk0G0_14rustc_demangle2v0NtB6_7Printer14print_sep_listNvB2_17print_generic_argEB8_
	test	rax, rax
	je	.LBB69_89
	jmp	.LBB69_96
.LBB69_30:
	mov	r15, rax
	movzx	esi, bpl
	mov	rdi, rbx
	call	_RNvMs4_NtCsbho2wNjk0G0_14rustc_demangle2v0NtB5_7Printer10print_path
	mov	bpl, 1
	test	al, al
	jne	.LBB69_96
# %bb.31:
	cmp	qword ptr [rbx], 0
	je	.LBB69_74
.LBB69_32:
	mov	rdi, rsp
	mov	rsi, rbx
	call	_RNvMs2_NtCsbho2wNjk0G0_14rustc_demangle2v0NtB5_6Parser13disambiguator
	cmp	byte ptr [rsp], 1
	je	.LBB69_18
# %bb.33:
	cmp	qword ptr [rbx], 0
	je	.LBB69_77
# %bb.34:
	mov	r14, qword ptr [rsp + 8]
	mov	rdi, rsp
	mov	rsi, rbx
	call	_RNvMs2_NtCsbho2wNjk0G0_14rustc_demangle2v0NtB5_6Parser5ident
	cmp	qword ptr [rsp], 0
	je	.LBB69_69
# %bb.35:
	shr	r15, 32
	movups	xmm0, xmmword ptr [rsp]
	movups	xmm1, xmmword ptr [rsp + 16]
	movaps	xmmword ptr [rsp + 48], xmm1
	movaps	xmmword ptr [rsp + 32], xmm0
	cmp	r15d, 1114112
	jne	.LBB69_97
# %bb.36:
	mov	rax, qword ptr [rsp + 56]
	or	rax, qword ptr [rsp + 40]
	je	.LBB69_93
# %bb.37:
	mov	rdi, qword ptr [rbx + 32]
	test	rdi, rdi
	je	.LBB69_93
# %bb.38:
	lea	rsi, [rip + .Lanon.21307fd90ecd30149cef64ece95db940.51]
	mov	edx, 2
	call	_RNvMsa_NtCsfQL5qMWGko6_4core3fmtNtB5_9Formatter3pad
	test	al, al
	jne	.LBB69_96
# %bb.39:
	mov	rsi, qword ptr [rbx + 32]
	test	rsi, rsi
	je	.LBB69_93
# %bb.40:
	lea	rdi, [rsp + 32]
	call	_RNvXs0_NtCsbho2wNjk0G0_14rustc_demangle2v0NtB5_5IdentNtNtCsfQL5qMWGko6_4core3fmt7Display3fmt
	jmp	.LBB69_92
.LBB69_41:
	cmp	qword ptr [rbx], 0
	je	.LBB69_77
# %bb.42:
	mov	r14, qword ptr [rsp + 8]
	mov	rdi, rsp
	mov	rsi, rbx
	call	_RNvMs2_NtCsbho2wNjk0G0_14rustc_demangle2v0NtB5_6Parser5ident
	cmp	qword ptr [rsp], 0
	je	.LBB69_69
# %bb.43:
	movups	xmm0, xmmword ptr [rsp]
	movups	xmm1, xmmword ptr [rsp + 16]
	movaps	xmmword ptr [rsp + 80], xmm1
	movaps	xmmword ptr [rsp + 64], xmm0
	mov	rsi, qword ptr [rbx + 32]
	test	rsi, rsi
	je	.LBB69_93
# %bb.44:
	lea	rdi, [rsp + 64]
	call	_RNvXs0_NtCsbho2wNjk0G0_14rustc_demangle2v0NtB5_5IdentNtNtCsfQL5qMWGko6_4core3fmt7Display3fmt
	mov	bpl, 1
	test	al, al
	jne	.LBB69_96
# %bb.45:
	mov	rax, qword ptr [rbx + 32]
	test	rax, rax
	je	.LBB69_93
# %bb.46:
	test	r14, r14
	je	.LBB69_93
# %bb.47:
	mov	ecx, 8388608
	and	ecx, dword ptr [rax + 16]
	jne	.LBB69_93
# %bb.48:
	mov	rdi, qword ptr [rax]
	mov	rax, qword ptr [rax + 8]
	lea	rsi, [rip + .Lanon.21307fd90ecd30149cef64ece95db940.49]
	mov	edx, 1
	call	qword ptr [rax + 24]
	test	al, al
	jne	.LBB69_96
# %bb.49:
	mov	rsi, qword ptr [rbx + 32]
	mov	rdi, r14
	call	_RNvXsC_NtNtCsfQL5qMWGko6_4core3fmt3numyNtB7_8LowerHex3fmt
	test	al, al
	jne	.LBB69_96
# %bb.50:
	mov	rax, qword ptr [rbx + 32]
	mov	rdi, qword ptr [rax]
	mov	rax, qword ptr [rax + 8]
	lea	rsi, [rip + .Lanon.21307fd90ecd30149cef64ece95db940.50]
	mov	edx, 1
	call	qword ptr [rax + 24]
	jmp	.LBB69_92
.LBB69_51:
	xor	eax, eax
	mov	r8d, 62
.LBB69_52:                              # =>This Inner Loop Header: Depth=1
	cmp	rsi, rdi
	jae	.LBB69_62
# %bb.53:                               #   in Loop: Header=BB69_52 Depth=1
	movzx	edx, byte ptr [rcx + rsi]
	cmp	dl, 95
	je	.LBB69_79
# %bb.54:                               #   in Loop: Header=BB69_52 Depth=1
	lea	r9d, [rdx - 48]
	cmp	r9b, 10
	jb	.LBB69_60
# %bb.55:                               #   in Loop: Header=BB69_52 Depth=1
	lea	r9d, [rdx - 97]
	cmp	r9b, 26
	jae	.LBB69_57
# %bb.56:                               #   in Loop: Header=BB69_52 Depth=1
	add	dl, -87
	jmp	.LBB69_59
.LBB69_57:                              #   in Loop: Header=BB69_52 Depth=1
	lea	r9d, [rdx - 65]
	cmp	r9b, 26
	jae	.LBB69_62
# %bb.58:                               #   in Loop: Header=BB69_52 Depth=1
	add	dl, -29
.LBB69_59:                              #   in Loop: Header=BB69_52 Depth=1
	mov	r9d, edx
.LBB69_60:                              #   in Loop: Header=BB69_52 Depth=1
	inc	rsi
	mov	qword ptr [rbx + 16], rsi
	mul	r8
	jo	.LBB69_62
# %bb.61:                               #   in Loop: Header=BB69_52 Depth=1
	movzx	edx, r9b
	add	rax, rdx
	jae	.LBB69_52
.LBB69_62:
	mov	rdi, qword ptr [rbx + 32]
	test	rdi, rdi
	je	.LBB69_64
# %bb.63:
	lea	rsi, [rip + .Lanon.21307fd90ecd30149cef64ece95db940.0]
	mov	edx, 16
	call	_RNvMsa_NtCsfQL5qMWGko6_4core3fmtNtB5_9Formatter3pad
	mov	bpl, 1
	test	al, al
	jne	.LBB69_96
.LBB69_64:
	mov	qword ptr [rbx], 0
	mov	byte ptr [rbx + 8], 0
	jmp	.LBB69_95
.LBB69_65:
	test	rdi, rdi
	je	.LBB69_68
# %bb.66:
	lea	rsi, [rip + .Lanon.21307fd90ecd30149cef64ece95db940.1]
	mov	edx, 25
.LBB69_67:
	mov	r14, rax
	call	_RNvMsa_NtCsfQL5qMWGko6_4core3fmtNtB5_9Formatter3pad
	mov	bpl, 1
	test	al, al
	mov	rax, r14
	jne	.LBB69_96
.LBB69_68:
	mov	qword ptr [rbx], 0
	mov	byte ptr [rbx + 8], ah
	jmp	.LBB69_95
.LBB69_69:
	movzx	r14d, byte ptr [rsp + 8]
	mov	rdi, qword ptr [rbx + 32]
	test	r14b, r14b
	jne	.LBB69_19
.LBB69_70:
	test	rdi, rdi
	je	.LBB69_73
# %bb.71:
	lea	rsi, [rip + .Lanon.21307fd90ecd30149cef64ece95db940.0]
	mov	edx, 16
.LBB69_72:
	call	_RNvMsa_NtCsfQL5qMWGko6_4core3fmtNtB5_9Formatter3pad
	mov	bpl, 1
	test	al, al
	jne	.LBB69_96
.LBB69_73:
	mov	qword ptr [rbx], 0
	mov	byte ptr [rbx + 8], r14b
	jmp	.LBB69_95
.LBB69_74:
	mov	rdi, qword ptr [rbx + 32]
	test	rdi, rdi
	je	.LBB69_95
# %bb.75:
	lea	rsi, [rip + .Lanon.21307fd90ecd30149cef64ece95db940.51]
	mov	edx, 2
	call	_RNvMsa_NtCsfQL5qMWGko6_4core3fmtNtB5_9Formatter3pad
	test	al, al
	jne	.LBB69_96
# %bb.76:
	cmp	qword ptr [rbx], 0
	jne	.LBB69_32
.LBB69_77:
	mov	rdi, qword ptr [rbx + 32]
	test	rdi, rdi
	je	.LBB69_95
# %bb.78:
	lea	rsi, [rip + .Lanon.21307fd90ecd30149cef64ece95db940.2]
	mov	edx, 1
	add	rsp, 104
	.cfi_def_cfa_offset 40
	pop	rbx
	.cfi_def_cfa_offset 32
	pop	r14
	.cfi_def_cfa_offset 24
	pop	r15
	.cfi_def_cfa_offset 16
	pop	rbp
	.cfi_def_cfa_offset 8
	jmp	_RNvMsa_NtCsfQL5qMWGko6_4core3fmtNtB5_9Formatter3pad # TAILCALL
.LBB69_79:
	.cfi_def_cfa_offset 144
	inc	rsi
	mov	qword ptr [rbx + 16], rsi
	cmp	rax, -3
	ja	.LBB69_62
.LBB69_80:
	mov	r14, qword ptr [rbx + 32]
	mov	qword ptr [rbx + 32], 0
	mov	rdi, rbx
	xor	esi, esi
	call	_RNvMs4_NtCsbho2wNjk0G0_14rustc_demangle2v0NtB5_7Printer10print_path
	test	al, al
	jne	.LBB69_123
# %bb.81:
	mov	qword ptr [rbx + 32], r14
.LBB69_82:
	test	r14, r14
	je	.LBB69_84
# %bb.83:
	lea	rsi, [rip + .Lanon.21307fd90ecd30149cef64ece95db940.57]
	mov	edx, 1
	mov	rdi, r14
	call	_RNvMsa_NtCsfQL5qMWGko6_4core3fmtNtB5_9Formatter3pad
	mov	bpl, 1
	test	al, al
	jne	.LBB69_96
.LBB69_84:
	mov	rdi, rbx
	call	_RNvMs4_NtCsbho2wNjk0G0_14rustc_demangle2v0NtB5_7Printer10print_type
	mov	bpl, 1
	test	al, al
	jne	.LBB69_96
# %bb.85:
	cmp	r15b, 77
	je	.LBB69_89
# %bb.86:
	mov	rdi, qword ptr [rbx + 32]
	test	rdi, rdi
	je	.LBB69_88
# %bb.87:
	lea	rsi, [rip + .Lanon.21307fd90ecd30149cef64ece95db940.58]
	mov	edx, 4
	call	_RNvMsa_NtCsfQL5qMWGko6_4core3fmtNtB5_9Formatter3pad
	test	al, al
	jne	.LBB69_96
.LBB69_88:
	mov	rdi, rbx
	xor	esi, esi
	call	_RNvMs4_NtCsbho2wNjk0G0_14rustc_demangle2v0NtB5_7Printer10print_path
	test	al, al
	jne	.LBB69_96
.LBB69_89:
	mov	rdi, qword ptr [rbx + 32]
	test	rdi, rdi
	je	.LBB69_93
# %bb.90:
	lea	rsi, [rip + .Lanon.21307fd90ecd30149cef64ece95db940.59]
.LBB69_91:
	mov	edx, 1
	call	_RNvMsa_NtCsfQL5qMWGko6_4core3fmtNtB5_9Formatter3pad
.LBB69_92:
	test	al, al
	jne	.LBB69_96
.LBB69_93:
	cmp	qword ptr [rbx], 0
	je	.LBB69_95
# %bb.94:
	dec	dword ptr [rbx + 24]
.LBB69_95:
	xor	ebp, ebp
.LBB69_96:
	mov	eax, ebp
	add	rsp, 104
	.cfi_def_cfa_offset 40
	pop	rbx
	.cfi_def_cfa_offset 32
	pop	r14
	.cfi_def_cfa_offset 24
	pop	r15
	.cfi_def_cfa_offset 16
	pop	rbp
	.cfi_def_cfa_offset 8
	ret
.LBB69_97:
	.cfi_def_cfa_offset 144
	mov	rdi, qword ptr [rbx + 32]
	test	rdi, rdi
	je	.LBB69_100
# %bb.98:
	lea	rsi, [rip + .Lanon.21307fd90ecd30149cef64ece95db940.52]
	mov	edx, 3
	call	_RNvMsa_NtCsfQL5qMWGko6_4core3fmtNtB5_9Formatter3pad
	test	al, al
	jne	.LBB69_96
# %bb.99:
	mov	rax, qword ptr [rbx + 32]
	jmp	.LBB69_101
.LBB69_100:
	xor	eax, eax
.LBB69_101:
	cmp	r15d, 67
	je	.LBB69_105
# %bb.102:
	cmp	r15d, 83
	jne	.LBB69_108
# %bb.103:
	test	rax, rax
	je	.LBB69_111
# %bb.104:
	lea	rsi, [rip + .Lanon.21307fd90ecd30149cef64ece95db940.54]
	mov	edx, 4
	jmp	.LBB69_107
.LBB69_105:
	test	rax, rax
	je	.LBB69_111
# %bb.106:
	lea	rsi, [rip + .Lanon.21307fd90ecd30149cef64ece95db940.53]
	mov	edx, 7
.LBB69_107:
	mov	rdi, rax
	call	_RNvMsa_NtCsfQL5qMWGko6_4core3fmtNtB5_9Formatter3pad
	jmp	.LBB69_110
.LBB69_108:
	mov	dword ptr [rsp], r15d
	test	rax, rax
	je	.LBB69_111
# %bb.109:
	mov	rdi, rsp
	mov	rsi, rax
	call	_RNvXsk_NtCsfQL5qMWGko6_4core3fmtcNtB5_7Display3fmt
.LBB69_110:
	test	al, al
	jne	.LBB69_96
.LBB69_111:
	mov	rax, qword ptr [rsp + 56]
	mov	rdi, qword ptr [rbx + 32]
	or	rax, qword ptr [rsp + 40]
	jne	.LBB69_118
# %bb.112:
	test	rdi, rdi
	je	.LBB69_93
.LBB69_113:
	lea	rsi, [rip + .Lanon.21307fd90ecd30149cef64ece95db940.56]
	mov	edx, 1
	call	_RNvMsa_NtCsfQL5qMWGko6_4core3fmtNtB5_9Formatter3pad
	test	al, al
	jne	.LBB69_96
# %bb.114:
	mov	rsi, qword ptr [rbx + 32]
	mov	qword ptr [rsp], r14
	test	rsi, rsi
	je	.LBB69_93
# %bb.115:
	mov	rdi, rsp
	call	_RNvXsd_NtNtNtCsfQL5qMWGko6_4core3fmt3num3impyNtB9_7Display3fmt
	test	al, al
	jne	.LBB69_96
# %bb.116:
	mov	rdi, qword ptr [rbx + 32]
	test	rdi, rdi
	je	.LBB69_93
# %bb.117:
	lea	rsi, [rip + .Lanon.21307fd90ecd30149cef64ece95db940.33]
	jmp	.LBB69_91
.LBB69_118:
	test	rdi, rdi
	je	.LBB69_93
# %bb.119:
	lea	rsi, [rip + .Lanon.21307fd90ecd30149cef64ece95db940.55]
	mov	edx, 1
	call	_RNvMsa_NtCsfQL5qMWGko6_4core3fmtNtB5_9Formatter3pad
	test	al, al
	jne	.LBB69_96
# %bb.120:
	mov	rsi, qword ptr [rbx + 32]
	test	rsi, rsi
	je	.LBB69_93
# %bb.121:
	lea	rdi, [rsp + 32]
	call	_RNvXs0_NtCsbho2wNjk0G0_14rustc_demangle2v0NtB5_5IdentNtNtCsfQL5qMWGko6_4core3fmt7Display3fmt
	test	al, al
	jne	.LBB69_96
# %bb.122:
	mov	rdi, qword ptr [rbx + 32]
	test	rdi, rdi
	jne	.LBB69_113
	jmp	.LBB69_93
.LBB69_123:
	lea	rdi, [rip + .Lanon.21307fd90ecd30149cef64ece95db940.3]
	lea	rcx, [rip + .Lanon.21307fd90ecd30149cef64ece95db940.42]
	lea	r8, [rip + .Lanon.21307fd90ecd30149cef64ece95db940.5]
	mov	rdx, rsp
	mov	esi, 61
	call	_RNvNtCsfQL5qMWGko6_4core6result13unwrap_failed
.Lfunc_end69:
	.size	_RNvMs4_NtCsbho2wNjk0G0_14rustc_demangle2v0NtB5_7Printer10print_path, .Lfunc_end69-_RNvMs4_NtCsbho2wNjk0G0_14rustc_demangle2v0NtB5_7Printer10print_path
	.cfi_endproc
	.section	.rodata._RNvMs4_NtCsbho2wNjk0G0_14rustc_demangle2v0NtB5_7Printer10print_path,"a",@progbits
	.p2align	2, 0x0
.LJTI69_0:
	.long	.LBB69_21-.LJTI69_0
	.long	.LBB69_17-.LJTI69_0
	.long	.LBB69_62-.LJTI69_0
	.long	.LBB69_62-.LJTI69_0
	.long	.LBB69_62-.LJTI69_0
	.long	.LBB69_62-.LJTI69_0
	.long	.LBB69_62-.LJTI69_0
	.long	.LBB69_23-.LJTI69_0
	.long	.LBB69_62-.LJTI69_0
	.long	.LBB69_62-.LJTI69_0
	.long	.LBB69_62-.LJTI69_0
	.long	.LBB69_8-.LJTI69_0
	.long	.LBB69_13-.LJTI69_0
	.long	.LBB69_62-.LJTI69_0
	.long	.LBB69_62-.LJTI69_0
	.long	.LBB69_62-.LJTI69_0
	.long	.LBB69_62-.LJTI69_0
	.long	.LBB69_62-.LJTI69_0
	.long	.LBB69_62-.LJTI69_0
	.long	.LBB69_62-.LJTI69_0
	.long	.LBB69_62-.LJTI69_0
	.long	.LBB69_62-.LJTI69_0
	.long	.LBB69_8-.LJTI69_0
	.long	.LBB69_22-.LJTI69_0
                                        # -- End function
