	.section	.text._RINvNtCsfQL5qMWGko6_4core3ptr13drop_in_placeINtNtNtCsktQxXQGZjIy_5gimli4read4line8LineRowsINtNtBL_12endian_slice11EndianSliceNtNtBN_9endianity12LittleEndianEINtBJ_21IncompleteLineProgramB1q_jEjEECs3bNtqN8jaZB_3std,"ax",@progbits
	.p2align	4                               # -- Begin function _RINvNtCsfQL5qMWGko6_4core3ptr13drop_in_placeINtNtNtCsktQxXQGZjIy_5gimli4read4line8LineRowsINtNtBL_12endian_slice11EndianSliceNtNtBN_9endianity12LittleEndianEINtBJ_21IncompleteLineProgramB1q_jEjEECs3bNtqN8jaZB_3std
	.type	_RINvNtCsfQL5qMWGko6_4core3ptr13drop_in_placeINtNtNtCsktQxXQGZjIy_5gimli4read4line8LineRowsINtNtBL_12endian_slice11EndianSliceNtNtBN_9endianity12LittleEndianEINtBJ_21IncompleteLineProgramB1q_jEjEECs3bNtqN8jaZB_3std,@function
_RINvNtCsfQL5qMWGko6_4core3ptr13drop_in_placeINtNtNtCsktQxXQGZjIy_5gimli4read4line8LineRowsINtNtBL_12endian_slice11EndianSliceNtNtBN_9endianity12LittleEndianEINtBJ_21IncompleteLineProgramB1q_jEjEECs3bNtqN8jaZB_3std: # @_RINvNtCsfQL5qMWGko6_4core3ptr13drop_in_placeINtNtNtCsktQxXQGZjIy_5gimli4read4line8LineRowsINtNtBL_12endian_slice11EndianSliceNtNtBN_9endianity12LittleEndianEINtBJ_21IncompleteLineProgramB1q_jEjEECs3bNtqN8jaZB_3std
	.cfi_startproc
# %bb.0:
	push	rbx
	.cfi_def_cfa_offset 16
	.cfi_offset rbx, -16
	mov	rbx, rdi
	cmp	qword ptr [rdi + 88], 0
	je	.LBB182_2
# %bb.1:
	mov	rdi, qword ptr [rbx + 96]
	call	qword ptr [rip + free@GOTPCREL]
.LBB182_2:
	cmp	qword ptr [rbx + 112], 0
	je	.LBB182_4
# %bb.3:
	mov	rdi, qword ptr [rbx + 120]
	call	qword ptr [rip + free@GOTPCREL]
.LBB182_4:
	cmp	qword ptr [rbx + 136], 0
	je	.LBB182_6
# %bb.5:
	mov	rdi, qword ptr [rbx + 144]
	call	qword ptr [rip + free@GOTPCREL]
.LBB182_6:
	cmp	qword ptr [rbx + 160], 0
	je	.LBB182_7
# %bb.8:
	mov	rdi, qword ptr [rbx + 168]
	pop	rbx
	.cfi_def_cfa_offset 8
	jmp	qword ptr [rip + free@GOTPCREL] # TAILCALL
.LBB182_7:
	.cfi_def_cfa_offset 16
	pop	rbx
	.cfi_def_cfa_offset 8
	ret
.Lfunc_end182:
	.size	_RINvNtCsfQL5qMWGko6_4core3ptr13drop_in_placeINtNtNtCsktQxXQGZjIy_5gimli4read4line8LineRowsINtNtBL_12endian_slice11EndianSliceNtNtBN_9endianity12LittleEndianEINtBJ_21IncompleteLineProgramB1q_jEjEECs3bNtqN8jaZB_3std, .Lfunc_end182-_RINvNtCsfQL5qMWGko6_4core3ptr13drop_in_placeINtNtNtCsktQxXQGZjIy_5gimli4read4line8LineRowsINtNtBL_12endian_slice11EndianSliceNtNtBN_9endianity12LittleEndianEINtBJ_21IncompleteLineProgramB1q_jEjEECs3bNtqN8jaZB_3std
	.cfi_endproc
                                        # -- End function
