	.section	.text._RNvMs2_NtCsfwdNdOnv07X_9addr2line6lookupINtB5_13LoopingLookupINtNtCsfQL5qMWGko6_4core6result6ResultINtNtB7_5frame9FrameIterINtNtNtCsktQxXQGZjIy_5gimli4read12endian_slice11EndianSliceNtNtB24_9endianity12LittleEndianEENtB22_5ErrorEINtB5_12MappedLookupIBY_TINtNtB12_6option6OptionRINtNtB7_8function8FunctionB1X_EEIB45_NtB1C_8LocationEEB3s_EINtB5_12SimpleLookupIBY_TNtB7_9DebugFileINtNtB22_5dwarf7UnitRefB1X_EEB3s_EB1X_NCNvMNtB7_4unitINtB6K_7ResUnitB1X_E14dwarf_and_units4_0ENCNvB6J_25find_function_or_location0ENCNvMs_B7_INtB7_7ContextB1X_E11find_frames0E10new_lookupCs3bNtqN8jaZB_3std,"ax",@progbits
	.p2align	4                               # -- Begin function _RNvMs2_NtCsfwdNdOnv07X_9addr2line6lookupINtB5_13LoopingLookupINtNtCsfQL5qMWGko6_4core6result6ResultINtNtB7_5frame9FrameIterINtNtNtCsktQxXQGZjIy_5gimli4read12endian_slice11EndianSliceNtNtB24_9endianity12LittleEndianEENtB22_5ErrorEINtB5_12MappedLookupIBY_TINtNtB12_6option6OptionRINtNtB7_8function8FunctionB1X_EEIB45_NtB1C_8LocationEEB3s_EINtB5_12SimpleLookupIBY_TNtB7_9DebugFileINtNtB22_5dwarf7UnitRefB1X_EEB3s_EB1X_NCNvMNtB7_4unitINtB6K_7ResUnitB1X_E14dwarf_and_units4_0ENCNvB6J_25find_function_or_location0ENCNvMs_B7_INtB7_7ContextB1X_E11find_frames0E10new_lookupCs3bNtqN8jaZB_3std
	.type	_RNvMs2_NtCsfwdNdOnv07X_9addr2line6lookupINtB5_13LoopingLookupINtNtCsfQL5qMWGko6_4core6result6ResultINtNtB7_5frame9FrameIterINtNtNtCsktQxXQGZjIy_5gimli4read12endian_slice11EndianSliceNtNtB24_9endianity12LittleEndianEENtB22_5ErrorEINtB5_12MappedLookupIBY_TINtNtB12_6option6OptionRINtNtB7_8function8FunctionB1X_EEIB45_NtB1C_8LocationEEB3s_EINtB5_12SimpleLookupIBY_TNtB7_9DebugFileINtNtB22_5dwarf7UnitRefB1X_EEB3s_EB1X_NCNvMNtB7_4unitINtB6K_7ResUnitB1X_E14dwarf_and_units4_0ENCNvB6J_25find_function_or_location0ENCNvMs_B7_INtB7_7ContextB1X_E11find_frames0E10new_lookupCs3bNtqN8jaZB_3std,@function
_RNvMs2_NtCsfwdNdOnv07X_9addr2line6lookupINtB5_13LoopingLookupINtNtCsfQL5qMWGko6_4core6result6ResultINtNtB7_5frame9FrameIterINtNtNtCsktQxXQGZjIy_5gimli4read12endian_slice11EndianSliceNtNtB24_9endianity12LittleEndianEENtB22_5ErrorEINtB5_12MappedLookupIBY_TINtNtB12_6option6OptionRINtNtB7_8function8FunctionB1X_EEIB45_NtB1C_8LocationEEB3s_EINtB5_12SimpleLookupIBY_TNtB7_9DebugFileINtNtB22_5dwarf7UnitRefB1X_EEB3s_EB1X_NCNvMNtB7_4unitINtB6K_7ResUnitB1X_E14dwarf_and_units4_0ENCNvB6J_25find_function_or_location0ENCNvMs_B7_INtB7_7ContextB1X_E11find_frames0E10new_lookupCs3bNtqN8jaZB_3std: # @_RNvMs2_NtCsfwdNdOnv07X_9addr2line6lookupINtB5_13LoopingLookupINtNtCsfQL5qMWGko6_4core6result6ResultINtNtB7_5frame9FrameIterINtNtNtCsktQxXQGZjIy_5gimli4read12endian_slice11EndianSliceNtNtB24_9endianity12LittleEndianEENtB22_5ErrorEINtB5_12MappedLookupIBY_TINtNtB12_6option6OptionRINtNtB7_8function8FunctionB1X_EEIB45_NtB1C_8LocationEEB3s_EINtB5_12SimpleLookupIBY_TNtB7_9DebugFileINtNtB22_5dwarf7UnitRefB1X_EEB3s_EB1X_NCNvMNtB7_4unitINtB6K_7ResUnitB1X_E14dwarf_and_units4_0ENCNvB6J_25find_function_or_location0ENCNvMs_B7_INtB7_7ContextB1X_E11find_frames0E10new_lookupCs3bNtqN8jaZB_3std
.Lfunc_begin25:
	.cfi_startproc
	.cfi_personality 155, DW.ref.rust_eh_personality
	.cfi_lsda 27, .Lexception25
# %bb.0:
	push	rbp
	.cfi_def_cfa_offset 16
	push	r15
	.cfi_def_cfa_offset 24
	push	r14
	.cfi_def_cfa_offset 32
	push	r13
	.cfi_def_cfa_offset 40
	push	r12
	.cfi_def_cfa_offset 48
	push	rbx
	.cfi_def_cfa_offset 56
	sub	rsp, 280
	.cfi_def_cfa_offset 336
	.cfi_offset rbx, -56
	.cfi_offset r12, -48
	.cfi_offset r13, -40
	.cfi_offset r14, -32
	.cfi_offset r15, -24
	.cfi_offset rbp, -16
	mov	rbp, rdx
	mov	qword ptr [rsp + 104], rdi      # 8-byte Spill
	cmp	qword ptr [rsi], 0
	je	.LBB158_2
.LBB158_1:
	movups	xmm0, xmmword ptr [rsi]
	movups	xmm1, xmmword ptr [rsi + 16]
	movups	xmm2, xmmword ptr [rsi + 32]
	mov	rdi, qword ptr [rsp + 104]      # 8-byte Reload
	movups	xmmword ptr [rdi + 32], xmm2
	movups	xmmword ptr [rdi + 16], xmm1
	movups	xmmword ptr [rdi], xmm0
	mov	rax, qword ptr [rsi + 96]
	mov	qword ptr [rsp + 176], rax
	movups	xmm0, xmmword ptr [rsi + 48]
	movups	xmm1, xmmword ptr [rsi + 64]
	movups	xmm2, xmmword ptr [rsi + 80]
	movaps	xmmword ptr [rsp + 160], xmm2
	movaps	xmmword ptr [rsp + 144], xmm1
	movaps	xmmword ptr [rsp + 128], xmm0
	movups	xmm0, xmmword ptr [rbp]
	movups	xmm1, xmmword ptr [rbp + 16]
	movups	xmm2, xmmword ptr [rbp + 32]
	movups	xmm3, xmmword ptr [rbp + 48]
	movups	xmmword ptr [rsp + 184], xmm0
	movups	xmmword ptr [rsp + 200], xmm1
	movups	xmmword ptr [rsp + 216], xmm2
	movups	xmmword ptr [rsp + 232], xmm3
	movups	xmm0, xmmword ptr [rbp + 64]
	movups	xmmword ptr [rsp + 248], xmm0
	mov	rax, qword ptr [rbp + 80]
	mov	qword ptr [rsp + 264], rax
	add	rdi, 48
	lea	rsi, [rsp + 128]
	mov	edx, 144
	call	qword ptr [rip + memcpy@GOTPCREL]
	jmp	.LBB158_22
.LBB158_2:
	mov	rax, qword ptr [rbp]
	mov	qword ptr [rsp + 96], rax       # 8-byte Spill
	mov	rax, qword ptr [rbp + 8]
	mov	qword ptr [rsp + 80], rax       # 8-byte Spill
	mov	rax, qword ptr [rbp + 16]
	mov	qword ptr [rsp + 88], rax       # 8-byte Spill
	mov	r14, qword ptr [rbp + 56]
	mov	r13, qword ptr [rbp + 72]
	mov	rbx, qword ptr [rbp + 32]
	mov	rax, qword ptr [rbp + 40]
	mov	qword ptr [rsp + 72], rax       # 8-byte Spill
	mov	rax, qword ptr [rbp + 24]
	mov	qword ptr [rsp + 64], rax       # 8-byte Spill
	movzx	eax, byte ptr [rbp + 80]
	mov	dword ptr [rsp + 8], eax        # 4-byte Spill
	mov	r12, qword ptr [rbp + 48]
	mov	qword ptr [rsp + 48], rsi       # 8-byte Spill
.LBB158_3:                              # =>This Loop Header: Depth=1
                                        #     Child Loop BB158_10 Depth 2
	mov	r15d, dword ptr [rsi + 16]
	mov	r10, qword ptr [rsi + 24]
	mov	rax, qword ptr [rsi + 32]
	mov	qword ptr [rsp + 56], rax       # 8-byte Spill
	cmp	r15d, 3
	je	.LBB158_23
# %bb.4:                                #   in Loop: Header=BB158_3 Depth=1
	mov	rcx, qword ptr [rsi + 8]
	mov	r11d, dword ptr [rsi + 20]
	mov	rax, qword ptr [rsi + 40]
	test	rcx, rcx
	jne	.LBB158_24
# %bb.5:                                #   in Loop: Header=BB158_3 Depth=1
	cmp	r15d, 2
	jne	.LBB158_44
# %bb.6:                                #   in Loop: Header=BB158_3 Depth=1
	mov	r15d, 3
	test	byte ptr [rsp + 8], 1           # 1-byte Folded Reload
	jne	.LBB158_19
# %bb.7:                                #   in Loop: Header=BB158_3 Depth=1
	cmp	r12, r14
	je	.LBB158_19
# %bb.8:                                #   in Loop: Header=BB158_3 Depth=1
	mov	rax, r12
	mov	rcx, qword ptr [rsp + 72]       # 8-byte Reload
	mov	rdx, qword ptr [rsp + 64]       # 8-byte Reload
	jmp	.LBB158_10
	.p2align	4
.LBB158_9:                              #   in Loop: Header=BB158_10 Depth=2
	mov	rax, r12
	cmp	r12, r14
	je	.LBB158_19
.LBB158_10:                             #   Parent Loop BB158_3 Depth=1
                                        # =>  This Inner Loop Header: Depth=2
	lea	r12, [rax + 32]
	cmp	r13, qword ptr [rax + 24]
	jbe	.LBB158_15
# %bb.11:                               #   in Loop: Header=BB158_10 Depth=2
	cmp	rbx, qword ptr [rax + 8]
	jae	.LBB158_9
# %bb.12:                               #   in Loop: Header=BB158_10 Depth=2
	cmp	rcx, qword ptr [rax]
	jbe	.LBB158_9
# %bb.13:                               #   in Loop: Header=BB158_3 Depth=1
	mov	qword ptr [rbp + 48], r12
	mov	rdi, qword ptr [rax + 16]
	mov	rsi, qword ptr [rdx + 24]
	cmp	rdi, rsi
	jae	.LBB158_47
# %bb.14:                               #   in Loop: Header=BB158_3 Depth=1
	imul	rcx, rdi, 560
	add	rcx, qword ptr [rdx + 16]
	mov	qword ptr [rsp + 24], rcx
	mov	dword ptr [rsp + 8], 0          # 4-byte Folded Spill
	lea	rcx, [rsp + 272]
	jmp	.LBB158_16
	.p2align	4
.LBB158_15:                             #   in Loop: Header=BB158_3 Depth=1
	mov	qword ptr [rbp + 48], r12
	mov	byte ptr [rbp + 80], 1
	mov	al, 1
	mov	dword ptr [rsp + 8], eax        # 4-byte Spill
	lea	rcx, [rsp + 24]
	xor	eax, eax
.LBB158_16:                             #   in Loop: Header=BB158_3 Depth=1
	mov	qword ptr [rcx], rax
	mov	rsi, qword ptr [rsp + 24]
                                        # implicit-def: $eax
                                        # kill: killed $eax
                                        # implicit-def: $eax
                                        # kill: killed $eax
                                        # implicit-def: $eax
                                        # implicit-def: $r10
                                        # implicit-def: $rcx
                                        # implicit-def: $rdx
                                        # implicit-def: $r11
                                        # implicit-def: $rdi
                                        # implicit-def: $r8
                                        # implicit-def: $r9
	test	rsi, rsi
	je	.LBB158_21
# %bb.17:                               #   in Loop: Header=BB158_3 Depth=1
.Ltmp717:
	lea	r15, [rsp + 136]
	mov	rdi, r15
	mov	rdx, qword ptr [rsp + 96]       # 8-byte Reload
	mov	rcx, qword ptr [rsp + 88]       # 8-byte Reload
	call	_RNvMNtCsfwdNdOnv07X_9addr2line4unitINtB2_7ResUnitINtNtNtCsktQxXQGZjIy_5gimli4read12endian_slice11EndianSliceNtNtBS_9endianity12LittleEndianEE25find_function_or_locationCs3bNtqN8jaZB_3std
.Ltmp718:
# %bb.18:                               #   in Loop: Header=BB158_3 Depth=1
	mov	rax, qword ptr [r15 + 96]
	mov	rsi, qword ptr [rsp + 48]       # 8-byte Reload
	mov	qword ptr [rsi + 96], rax
	movups	xmm0, xmmword ptr [r15 + 80]
	movups	xmmword ptr [rsi + 80], xmm0
	movups	xmm0, xmmword ptr [r15 + 64]
	movups	xmmword ptr [rsi + 64], xmm0
	movups	xmm0, xmmword ptr [r15]
	movups	xmm1, xmmword ptr [r15 + 16]
	movups	xmm2, xmmword ptr [r15 + 32]
	movups	xmm3, xmmword ptr [r15 + 48]
	movups	xmmword ptr [rsi + 48], xmm3
	movups	xmmword ptr [rsi + 32], xmm2
	movups	xmmword ptr [rsi + 16], xmm1
	movups	xmmword ptr [rsi], xmm0
	cmp	qword ptr [rsi], 0
	je	.LBB158_3
	jmp	.LBB158_1
.LBB158_19:
                                        # implicit-def: $eax
                                        # kill: killed $eax
                                        # implicit-def: $eax
                                        # kill: killed $eax
                                        # implicit-def: $eax
                                        # implicit-def: $r10
.LBB158_20:
                                        # implicit-def: $rcx
                                        # implicit-def: $rdx
                                        # kill: killed $rdx
                                        # implicit-def: $rdx
                                        # implicit-def: $r11
                                        # implicit-def: $rdi
                                        # implicit-def: $r8
                                        # implicit-def: $r9
.LBB158_21:
	mov	dword ptr [rsp + 136], r15d
	mov	esi, dword ptr [rsp + 20]       # 4-byte Reload
	mov	dword ptr [rsp + 140], esi
	mov	esi, dword ptr [rsp + 4]        # 4-byte Reload
	mov	dword ptr [rsp + 144], esi
	mov	dword ptr [rsp + 148], eax
	mov	qword ptr [rsp + 152], r10
	mov	qword ptr [rsp + 160], rcx
	mov	rax, qword ptr [rsp + 80]       # 8-byte Reload
	mov	qword ptr [rsp + 168], rax
	mov	qword ptr [rsp + 176], rdx
	mov	qword ptr [rsp + 184], r11
	mov	qword ptr [rsp + 192], rdi
	mov	qword ptr [rsp + 200], rdi
	mov	qword ptr [rsp + 208], r8
	mov	qword ptr [rsp + 216], r9
	lea	rdx, [rsp + 136]
	mov	rax, qword ptr [rdx + 80]
	mov	rcx, qword ptr [rsp + 104]      # 8-byte Reload
	mov	qword ptr [rcx + 80], rax
	movups	xmm0, xmmword ptr [rdx + 64]
	movups	xmmword ptr [rcx + 64], xmm0
	movups	xmm0, xmmword ptr [rdx]
	movups	xmm1, xmmword ptr [rdx + 16]
	movups	xmm2, xmmword ptr [rdx + 32]
	movups	xmm3, xmmword ptr [rdx + 48]
	movups	xmmword ptr [rcx + 48], xmm3
	movups	xmmword ptr [rcx + 32], xmm2
	movups	xmmword ptr [rcx + 16], xmm1
	movups	xmmword ptr [rcx], xmm0
	mov	byte ptr [rcx + 184], 2
.LBB158_22:
	add	rsp, 280
	.cfi_def_cfa_offset 56
	pop	rbx
	.cfi_def_cfa_offset 48
	pop	r12
	.cfi_def_cfa_offset 40
	pop	r13
	.cfi_def_cfa_offset 32
	pop	r14
	.cfi_def_cfa_offset 24
	pop	r15
	.cfi_def_cfa_offset 16
	pop	rbp
	.cfi_def_cfa_offset 8
	ret
.LBB158_23:
	.cfi_def_cfa_offset 336
	mov	rcx, r10
	mov	rax, r10
	shr	rax, 32
	mov	r15d, 5
                                        # implicit-def: $edx
                                        # kill: killed $edx
                                        # kill: def $ecx killed $ecx killed $rcx
	mov	dword ptr [rsp + 4], ecx        # 4-byte Spill
	mov	r10, qword ptr [rsp + 56]       # 8-byte Reload
	jmp	.LBB158_20
.LBB158_24:
	mov	qword ptr [rsp + 120], rax      # 8-byte Spill
	mov	dword ptr [rsp + 20], r11d      # 4-byte Spill
	mov	qword ptr [rsp + 64], r10       # 8-byte Spill
	mov	qword ptr [rsp + 24], 0
	mov	qword ptr [rsp + 32], 8
	mov	qword ptr [rsp + 40], 0
	mov	r14, qword ptr [rcx + 16]
	mov	r12, qword ptr [rcx + 24]
	mov	rax, qword ptr [rcx]
	mov	qword ptr [rsp + 72], rax       # 8-byte Spill
	mov	rax, qword ptr [rcx + 8]
	mov	qword ptr [rsp + 8], rax        # 8-byte Spill
	mov	eax, 8
	xor	ebx, ebx
	mov	qword ptr [rsp + 112], rcx      # 8-byte Spill
	jmp	.LBB158_27
.LBB158_25:                             #   in Loop: Header=BB158_27 Depth=1
	mov	rax, qword ptr [rsp + 32]
.LBB158_26:                             #   in Loop: Header=BB158_27 Depth=1
	lea	rcx, [2*rbp]
	add	rcx, rbp
	shl	rcx, 4
	add	rcx, qword ptr [rsp + 72]       # 8-byte Folded Reload
	mov	qword ptr [rax + 8*rbx], rcx
	inc	rbx
	mov	qword ptr [rsp + 40], rbx
	inc	r13
	sub	r12, r13
	shl	r13, 5
	add	r14, r13
.LBB158_27:                             # =>This Loop Header: Depth=1
                                        #     Child Loop BB158_32 Depth 2
	cmp	r12, 1
	mov	r9, qword ptr [rsp + 96]        # 8-byte Reload
	je	.LBB158_35
# %bb.28:                               #   in Loop: Header=BB158_27 Depth=1
	test	r12, r12
	je	.LBB158_43
# %bb.29:                               #   in Loop: Header=BB158_27 Depth=1
	mov	rcx, r12
	xor	r13d, r13d
	jmp	.LBB158_32
	.p2align	4
.LBB158_30:                             #   in Loop: Header=BB158_32 Depth=2
	mov	r13, rsi
.LBB158_31:                             #   in Loop: Header=BB158_32 Depth=2
	sub	rcx, rdx
	cmp	rcx, 1
	jbe	.LBB158_36
.LBB158_32:                             #   Parent Loop BB158_27 Depth=1
                                        # =>  This Inner Loop Header: Depth=2
	mov	rdx, rcx
	shr	rdx
	lea	rsi, [rdx + r13]
	mov	r8, rsi
	shl	r8, 5
	lea	rdi, [r14 + r8]
	cmp	qword ptr [r14 + r8 + 16], rbx
	ja	.LBB158_31
# %bb.33:                               #   in Loop: Header=BB158_32 Depth=2
	jb	.LBB158_30
# %bb.34:                               #   in Loop: Header=BB158_32 Depth=2
	cmp	qword ptr [rdi], r9
	jbe	.LBB158_30
	jmp	.LBB158_31
.LBB158_35:                             #   in Loop: Header=BB158_27 Depth=1
	xor	r13d, r13d
.LBB158_36:                             #   in Loop: Header=BB158_27 Depth=1
	mov	rcx, r13
	shl	rcx, 5
	lea	rdx, [r14 + rcx]
	cmp	qword ptr [r14 + rcx + 16], rbx
	ja	.LBB158_43
# %bb.37:                               #   in Loop: Header=BB158_27 Depth=1
	jb	.LBB158_43
# %bb.38:                               #   in Loop: Header=BB158_27 Depth=1
	cmp	qword ptr [rdx], r9
	ja	.LBB158_43
# %bb.39:                               #   in Loop: Header=BB158_27 Depth=1
	cmp	qword ptr [rdx + 8], r9
	jbe	.LBB158_43
# %bb.40:                               #   in Loop: Header=BB158_27 Depth=1
	mov	rbp, qword ptr [r14 + rcx + 24]
	cmp	rbp, qword ptr [rsp + 8]        # 8-byte Folded Reload
	jae	.LBB158_45
# %bb.41:                               #   in Loop: Header=BB158_27 Depth=1
	cmp	rbx, qword ptr [rsp + 24]
	jne	.LBB158_26
# %bb.42:                               #   in Loop: Header=BB158_27 Depth=1
.Ltmp711:
	lea	rdi, [rsp + 24]
	call	_RNvMs0_NtCs78A21jy8lRn_5alloc7raw_vecINtB5_6RawVecRINtNtCsfwdNdOnv07X_9addr2line8function15InlinedFunctionINtNtNtCsktQxXQGZjIy_5gimli4read12endian_slice11EndianSliceNtNtB1N_9endianity12LittleEndianEEE8grow_oneCs3bNtqN8jaZB_3std
.Ltmp712:
	jmp	.LBB158_25
.LBB158_43:
	mov	r8, qword ptr [rsp + 24]
	mov	rdi, qword ptr [rsp + 32]
	mov	rax, qword ptr [rsp + 88]       # 8-byte Reload
	mov	rdx, qword ptr [rax]
	add	rdx, 16
	lea	r9, [rdi + 8*rbx]
	mov	rcx, qword ptr [rsp + 64]       # 8-byte Reload
	mov	rax, rcx
	shr	rax, 32
                                        # kill: def $ecx killed $ecx killed $rcx
	mov	dword ptr [rsp + 4], ecx        # 4-byte Spill
	mov	r10, qword ptr [rsp + 56]       # 8-byte Reload
	mov	rcx, qword ptr [rsp + 120]      # 8-byte Reload
	mov	r11, qword ptr [rsp + 112]      # 8-byte Reload
	jmp	.LBB158_21
.LBB158_44:
	mov	qword ptr [rsp + 80], rax       # 8-byte Spill
	mov	dword ptr [rsp + 4], r15d       # 4-byte Spill
	mov	dword ptr [rsp + 20], r11d      # 4-byte Spill
	mov	eax, r11d
	mov	rcx, qword ptr [rsp + 56]       # 8-byte Reload
                                        # implicit-def: $rdx
                                        # implicit-def: $r11
                                        # implicit-def: $rdi
                                        # implicit-def: $r8
                                        # implicit-def: $r9
	mov	r15d, 4
	jmp	.LBB158_21
.LBB158_45:
.Ltmp708:
	lea	rdx, [rip + .Lanon.28cb502c8ec02091c8e32b488a8e08d8.257]
	mov	rdi, rbp
	mov	rsi, qword ptr [rsp + 8]        # 8-byte Reload
	call	_RNvNtCsfQL5qMWGko6_4core9panicking18panic_bounds_check
.Ltmp709:
# %bb.46:
.LBB158_47:
.Ltmp714:
	lea	rdx, [rip + .Lanon.28cb502c8ec02091c8e32b488a8e08d8.108]
	call	_RNvNtCsfQL5qMWGko6_4core9panicking18panic_bounds_check
.Ltmp715:
# %bb.48:
.LBB158_49:
.Ltmp713:
	jmp	.LBB158_52
.LBB158_50:
.Ltmp716:
	jmp	.LBB158_55
.LBB158_51:
.Ltmp710:
.LBB158_52:
	mov	rbx, rax
	cmp	qword ptr [rsp + 24], 0
	je	.LBB158_56
# %bb.53:
	mov	rdi, qword ptr [rsp + 32]
	call	qword ptr [rip + free@GOTPCREL]
	jmp	.LBB158_56
.LBB158_54:
.Ltmp719:
.LBB158_55:
	mov	rbx, rax
.LBB158_56:
	mov	rax, qword ptr [rsp + 48]       # 8-byte Reload
	mov	rax, qword ptr [rax]
	test	rax, rax
	je	.LBB158_59
# %bb.57:
	lock		dec	qword ptr [rax]
	jne	.LBB158_59
# %bb.58:
	#MEMBARRIER
.Ltmp720:
	mov	rdi, qword ptr [rsp + 48]       # 8-byte Reload
	call	_RNvMsn_NtCs78A21jy8lRn_5alloc4syncINtB5_3ArcINtNtNtCsktQxXQGZjIy_5gimli4read5dwarf5DwarfINtNtBL_12endian_slice11EndianSliceNtNtBN_9endianity12LittleEndianEEE9drop_slowCs3bNtqN8jaZB_3std
.Ltmp721:
.LBB158_59:
	mov	rdi, rbx
	call	_Unwind_Resume@PLT
.LBB158_60:
.Ltmp722:
	call	_RNvNtCsfQL5qMWGko6_4core9panicking16panic_in_cleanup
.Lfunc_end158:
	.size	_RNvMs2_NtCsfwdNdOnv07X_9addr2line6lookupINtB5_13LoopingLookupINtNtCsfQL5qMWGko6_4core6result6ResultINtNtB7_5frame9FrameIterINtNtNtCsktQxXQGZjIy_5gimli4read12endian_slice11EndianSliceNtNtB24_9endianity12LittleEndianEENtB22_5ErrorEINtB5_12MappedLookupIBY_TINtNtB12_6option6OptionRINtNtB7_8function8FunctionB1X_EEIB45_NtB1C_8LocationEEB3s_EINtB5_12SimpleLookupIBY_TNtB7_9DebugFileINtNtB22_5dwarf7UnitRefB1X_EEB3s_EB1X_NCNvMNtB7_4unitINtB6K_7ResUnitB1X_E14dwarf_and_units4_0ENCNvB6J_25find_function_or_location0ENCNvMs_B7_INtB7_7ContextB1X_E11find_frames0E10new_lookupCs3bNtqN8jaZB_3std, .Lfunc_end158-_RNvMs2_NtCsfwdNdOnv07X_9addr2line6lookupINtB5_13LoopingLookupINtNtCsfQL5qMWGko6_4core6result6ResultINtNtB7_5frame9FrameIterINtNtNtCsktQxXQGZjIy_5gimli4read12endian_slice11EndianSliceNtNtB24_9endianity12LittleEndianEENtB22_5ErrorEINtB5_12MappedLookupIBY_TINtNtB12_6option6OptionRINtNtB7_8function8FunctionB1X_EEIB45_NtB1C_8LocationEEB3s_EINtB5_12SimpleLookupIBY_TNtB7_9DebugFileINtNtB22_5dwarf7UnitRefB1X_EEB3s_EB1X_NCNvMNtB7_4unitINtB6K_7ResUnitB1X_E14dwarf_and_units4_0ENCNvB6J_25find_function_or_location0ENCNvMs_B7_INtB7_7ContextB1X_E11find_frames0E10new_lookupCs3bNtqN8jaZB_3std
	.cfi_endproc
	.section	.gcc_except_table._RNvMs2_NtCsfwdNdOnv07X_9addr2line6lookupINtB5_13LoopingLookupINtNtCsfQL5qMWGko6_4core6result6ResultINtNtB7_5frame9FrameIterINtNtNtCsktQxXQGZjIy_5gimli4read12endian_slice11EndianSliceNtNtB24_9endianity12LittleEndianEENtB22_5ErrorEINtB5_12MappedLookupIBY_TINtNtB12_6option6OptionRINtNtB7_8function8FunctionB1X_EEIB45_NtB1C_8LocationEEB3s_EINtB5_12SimpleLookupIBY_TNtB7_9DebugFileINtNtB22_5dwarf7UnitRefB1X_EEB3s_EB1X_NCNvMNtB7_4unitINtB6K_7ResUnitB1X_E14dwarf_and_units4_0ENCNvB6J_25find_function_or_location0ENCNvMs_B7_INtB7_7ContextB1X_E11find_frames0E10new_lookupCs3bNtqN8jaZB_3std,"a",@progbits
	.p2align	2, 0x0
GCC_except_table158:
.Lexception25:
	.byte	255                             # @LPStart Encoding = omit
	.byte	155                             # @TType Encoding = indirect pcrel sdata4
	.uleb128 .Lttbase10-.Lttbaseref10
.Lttbaseref10:
	.byte	1                               # Call site Encoding = uleb128
	.uleb128 .Lcst_end25-.Lcst_begin25
.Lcst_begin25:
	.uleb128 .Lfunc_begin25-.Lfunc_begin25  # >> Call Site 1 <<
	.uleb128 .Ltmp717-.Lfunc_begin25        #   Call between .Lfunc_begin25 and .Ltmp717
	.byte	0                               #     has no landing pad
	.byte	0                               #   On action: cleanup
	.uleb128 .Ltmp717-.Lfunc_begin25        # >> Call Site 2 <<
	.uleb128 .Ltmp718-.Ltmp717              #   Call between .Ltmp717 and .Ltmp718
	.uleb128 .Ltmp719-.Lfunc_begin25        #     jumps to .Ltmp719
	.byte	0                               #   On action: cleanup
	.uleb128 .Ltmp711-.Lfunc_begin25        # >> Call Site 3 <<
	.uleb128 .Ltmp712-.Ltmp711              #   Call between .Ltmp711 and .Ltmp712
	.uleb128 .Ltmp713-.Lfunc_begin25        #     jumps to .Ltmp713
	.byte	0                               #   On action: cleanup
	.uleb128 .Ltmp708-.Lfunc_begin25        # >> Call Site 4 <<
	.uleb128 .Ltmp709-.Ltmp708              #   Call between .Ltmp708 and .Ltmp709
	.uleb128 .Ltmp710-.Lfunc_begin25        #     jumps to .Ltmp710
	.byte	0                               #   On action: cleanup
	.uleb128 .Ltmp714-.Lfunc_begin25        # >> Call Site 5 <<
	.uleb128 .Ltmp715-.Ltmp714              #   Call between .Ltmp714 and .Ltmp715
	.uleb128 .Ltmp716-.Lfunc_begin25        #     jumps to .Ltmp716
	.byte	0                               #   On action: cleanup
	.uleb128 .Ltmp720-.Lfunc_begin25        # >> Call Site 6 <<
	.uleb128 .Ltmp721-.Ltmp720              #   Call between .Ltmp720 and .Ltmp721
	.uleb128 .Ltmp722-.Lfunc_begin25        #     jumps to .Ltmp722
	.byte	1                               #   On action: 1
	.uleb128 .Ltmp721-.Lfunc_begin25        # >> Call Site 7 <<
	.uleb128 .Lfunc_end158-.Ltmp721         #   Call between .Ltmp721 and .Lfunc_end158
	.byte	0                               #     has no landing pad
	.byte	0                               #   On action: cleanup
.Lcst_end25:
	.byte	127                             # >> Action Record 1 <<
                                        #   Filter TypeInfo -1
	.byte	0                               #   No further actions
	.p2align	2, 0x0
.Lttbase10:
                                        # >> Filter TypeInfos <<
	.byte	0
	.p2align	2, 0x0
                                        # -- End function
